# SymbolsHelper-Confirmed: 0.5.3 amd64
libcapnp-rpc.so.2 libcapnp2 #MINVER#
 _ZN2kj10StringTreeD1Ev@Base 0.5.3
 _ZN2kj10StringTreeD2Ev@Base 0.5.3
 (optional=templinst)_ZN2kj12ArrayBuilderIN5capnp10PipelineOpEE7disposeEv@Base 0.5.3
 (optional=templinst)_ZN2kj12ArrayBuilderINS_3OwnIN5capnp10ClientHookEEEE7disposeEv@Base 0.5.3
 (optional=templinst)_ZN2kj12ArrayBuilderINS_3OwnIN5capnp12PipelineHookEEEE7disposeEv@Base 0.5.3
 (optional=templinst)_ZN2kj12ArrayBuilderINS_7PromiseIvEEE7disposeEv@Base 0.5.3
 (optional=templinst)_ZN2kj12ArrayBuilderIjE7disposeEv@Base 0.5.3
 (optional=templinst)_ZN2kj13ArrayDisposer8Dispose_INS_10StringTree6BranchELb0EE8destructEPv@Base 0.5.3
 (optional=templinst)_ZN2kj13ArrayDisposer8Dispose_INS_3OwnIN5capnp10ClientHookEEELb0EE8destructEPv@Base 0.5.3
 (optional=templinst)_ZN2kj13ArrayDisposer8Dispose_INS_3OwnIN5capnp12PipelineHookEEELb0EE8destructEPv@Base 0.5.3
 (optional=templinst)_ZN2kj13ArrayDisposer8Dispose_INS_5MaybeINS_3OwnIN5capnp10ClientHookEEEEELb0EE8destructEPv@Base 0.5.3
 (optional=templinst)_ZN2kj13ArrayDisposer8Dispose_INS_7PromiseIvEELb0EE8destructEPv@Base 0.5.3
 _ZN2kj14AsyncIoContextD1Ev@Base 0.5.3
 _ZN2kj14AsyncIoContextD2Ev@Base 0.5.3
 (optional=templinst)_ZN2kj1_10ForkBranchINS0_4VoidEE3getERNS0_16ExceptionOrValueE@Base 0.5.3
 (optional=templinst)_ZN2kj1_10ForkBranchINS_3OwnIN5capnp10ClientHookEEEE3getERNS0_16ExceptionOrValueE@Base 0.5.3
 (optional=templinst)_ZN2kj1_10ForkBranchINS_3OwnIN5capnp12PipelineHookEEEE3getERNS0_16ExceptionOrValueE@Base 0.5.3
 (optional=templinst)_ZN2kj1_10ForkBranchINS_3OwnIZN5capnp12QueuedClient4callEmtONS2_INS3_15CallContextHookEEEE16CallResultHolderEEE3getERNS0_16ExceptionOrValueE@Base 0.5.3
 (optional=templinst)_ZN2kj1_10ForkBranchIjE3getERNS0_16ExceptionOrValueE@Base 0.5.3
 (optional=templinst)_ZN2kj1_11ExceptionOrIN5capnp10AnyPointer8PipelineEED1Ev@Base 0.5.3
 (optional=templinst)_ZN2kj1_11ExceptionOrIN5capnp10AnyPointer8PipelineEED2Ev@Base 0.5.3
 (optional=templinst)_ZN2kj1_11ExceptionOrIN5capnp10Capability6ClientEED1Ev@Base 0.5.3
 (optional=templinst)_ZN2kj1_11ExceptionOrIN5capnp10Capability6ClientEED2Ev@Base 0.5.3
 (optional=templinst)_ZN2kj1_11ExceptionOrIN5capnp8ResponseINS2_10AnyPointerEEEED1Ev@Base 0.5.3
 (optional=templinst)_ZN2kj1_11ExceptionOrIN5capnp8ResponseINS2_10AnyPointerEEEED2Ev@Base 0.5.3
 (optional=templinst)_ZN2kj1_11ExceptionOrIN5capnp8ResponseINS2_13DynamicStructEEEED1Ev@Base 0.5.3
 (optional=templinst)_ZN2kj1_11ExceptionOrIN5capnp8ResponseINS2_13DynamicStructEEEED2Ev@Base 0.5.3
 (optional=templinst)_ZN2kj1_11ExceptionOrINS0_4VoidEEaSEOS3_@Base 0.5.3
 (optional=templinst)_ZN2kj1_11ExceptionOrINS_3OwnIN5capnp10ClientHookEEEED1Ev@Base 0.5.3
 (optional=templinst)_ZN2kj1_11ExceptionOrINS_3OwnIN5capnp10ClientHookEEEED2Ev@Base 0.5.3
 (optional=templinst)_ZN2kj1_11ExceptionOrINS_3OwnIN5capnp10VatNetworkINS3_3rpc8twoparty5VatIdENS6_11ProvisionIdENS6_11RecipientIdENS6_15ThirdPartyCapIdENS6_10JoinResultEE10ConnectionEEEED1Ev@Base 0.5.3
 (optional=templinst)_ZN2kj1_11ExceptionOrINS_3OwnIN5capnp10VatNetworkINS3_3rpc8twoparty5VatIdENS6_11ProvisionIdENS6_11RecipientIdENS6_15ThirdPartyCapIdENS6_10JoinResultEE10ConnectionEEEED2Ev@Base 0.5.3
 (optional=templinst)_ZN2kj1_11ExceptionOrINS_3OwnIN5capnp12PipelineHookEEEED1Ev@Base 0.5.3
 (optional=templinst)_ZN2kj1_11ExceptionOrINS_3OwnIN5capnp12PipelineHookEEEED2Ev@Base 0.5.3
 (optional=templinst)_ZN2kj1_11ExceptionOrINS_3OwnIN5capnp13MessageReaderEEEED1Ev@Base 0.5.3
 (optional=templinst)_ZN2kj1_11ExceptionOrINS_3OwnIN5capnp13MessageReaderEEEED2Ev@Base 0.5.3
 (optional=templinst)_ZN2kj1_11ExceptionOrINS_3OwnIN5capnp1_14VatNetworkBase10ConnectionEEEED1Ev@Base 0.5.3
 (optional=templinst)_ZN2kj1_11ExceptionOrINS_3OwnIN5capnp1_14VatNetworkBase10ConnectionEEEED2Ev@Base 0.5.3
 (optional=templinst)_ZN2kj1_11ExceptionOrINS_3OwnINS_13AsyncIoStreamEEEED1Ev@Base 0.5.3
 (optional=templinst)_ZN2kj1_11ExceptionOrINS_3OwnINS_13AsyncIoStreamEEEED2Ev@Base 0.5.3
 (optional=templinst)_ZN2kj1_11ExceptionOrINS_3OwnINS_14NetworkAddressEEEED1Ev@Base 0.5.3
 (optional=templinst)_ZN2kj1_11ExceptionOrINS_3OwnINS_14NetworkAddressEEEED2Ev@Base 0.5.3
 (optional=templinst)_ZN2kj1_11ExceptionOrINS_3OwnIZN5capnp12QueuedClient4callEmtONS2_INS3_15CallContextHookEEEE16CallResultHolderEEED1Ev@Base 0.5.3
 (optional=templinst)_ZN2kj1_11ExceptionOrINS_3OwnIZN5capnp12QueuedClient4callEmtONS2_INS3_15CallContextHookEEEE16CallResultHolderEEED2Ev@Base 0.5.3
 (optional=templinst)_ZN2kj1_11ExceptionOrINS_5MaybeINS_3OwnIN5capnp13MessageReaderEEEEEED1Ev@Base 0.5.3
 (optional=templinst)_ZN2kj1_11ExceptionOrINS_5MaybeINS_3OwnIN5capnp13MessageReaderEEEEEED2Ev@Base 0.5.3
 (optional=templinst)_ZN2kj1_11ExceptionOrINS_5MaybeINS_3OwnIN5capnp18IncomingRpcMessageEEEEEED1Ev@Base 0.5.3
 (optional=templinst)_ZN2kj1_11ExceptionOrINS_5MaybeINS_3OwnIN5capnp18IncomingRpcMessageEEEEEED2Ev@Base 0.5.3
 (optional=templinst)_ZN2kj1_11ExceptionOrINS_7PromiseINS_3OwnINS_13AsyncIoStreamEEEEEED1Ev@Base 0.5.3
 (optional=templinst)_ZN2kj1_11ExceptionOrINS_7PromiseINS_3OwnINS_13AsyncIoStreamEEEEEED2Ev@Base 0.5.3
 (optional=templinst)_ZN2kj1_11ExceptionOrINS_7PromiseINS_5MaybeINS_3OwnIN5capnp18IncomingRpcMessageEEEEEEEED1Ev@Base 0.5.3
 (optional=templinst)_ZN2kj1_11ExceptionOrINS_7PromiseINS_5MaybeINS_3OwnIN5capnp18IncomingRpcMessageEEEEEEEED2Ev@Base 0.5.3
 (optional=templinst)_ZN2kj1_11ExceptionOrINS_7PromiseIPvEEED1Ev@Base 0.5.3
 (optional=templinst)_ZN2kj1_11ExceptionOrINS_7PromiseIPvEEED2Ev@Base 0.5.3
 (optional=templinst)_ZN2kj1_11ExceptionOrINS_7PromiseIbEEED1Ev@Base 0.5.3
 (optional=templinst)_ZN2kj1_11ExceptionOrINS_7PromiseIbEEED2Ev@Base 0.5.3
 (optional=templinst)_ZN2kj1_11ExceptionOrINS_7PromiseIvEEED1Ev@Base 0.5.3
 (optional=templinst)_ZN2kj1_11ExceptionOrINS_7PromiseIvEEED2Ev@Base 0.5.3
 _ZN2kj1_11ForkHubBaseD0Ev@Base 0.5.3
 _ZN2kj1_11ForkHubBaseD1Ev@Base 0.5.3
 _ZN2kj1_11ForkHubBaseD2Ev@Base 0.5.3
 _ZN2kj1_12HeapDisposerIN5capnp11EzRpcClient4Impl13ClientContextEE8instanceE@Base 0.5.3
 _ZN2kj1_12HeapDisposerIN5capnp11EzRpcClient4ImplEE8instanceE@Base 0.5.3
 _ZN2kj1_12HeapDisposerIN5capnp11EzRpcServer4Impl13ServerContextEE8instanceE@Base 0.5.3
 _ZN2kj1_12HeapDisposerIN5capnp11EzRpcServer4ImplEE8instanceE@Base 0.5.3
 _ZN2kj1_12HeapDisposerIN5capnp12LocalRequestEE8instanceE@Base 0.5.3
 _ZN2kj1_12HeapDisposerIN5capnp14TwoPartyServer18AcceptedConnectionEE8instanceE@Base 0.5.3
 _ZN2kj1_12HeapDisposerIN5capnp18TwoPartyVatNetwork19IncomingMessageImplEE8instanceE@Base 0.5.3
 _ZN2kj1_12HeapDisposerIN5capnp1_13RpcSystemBase4ImplEE8instanceE@Base 0.5.3
 _ZN2kj1_12HeapDisposerIN5capnp20MallocMessageBuilderEE8instanceE@Base 0.5.3
 _ZN2kj1_12HeapDisposerINS0_10ForkBranchINS0_4VoidEEEE8instanceE@Base 0.5.3
 _ZN2kj1_12HeapDisposerINS0_10ForkBranchINS_3OwnIN5capnp10ClientHookEEEEEE8instanceE@Base 0.5.3
 _ZN2kj1_12HeapDisposerINS0_10ForkBranchINS_3OwnIN5capnp12PipelineHookEEEEEE8instanceE@Base 0.5.3
 _ZN2kj1_12HeapDisposerINS0_10ForkBranchINS_3OwnIZN5capnp12QueuedClient4callEmtONS3_INS4_15CallContextHookEEEE16CallResultHolderEEEEE8instanceE@Base 0.5.3
 _ZN2kj1_12HeapDisposerINS0_10ForkBranchIjEEE8instanceE@Base 0.5.3
 _ZN2kj1_12HeapDisposerINS0_16ChainPromiseNodeEE8instanceE@Base 0.5.3
 _ZN2kj1_12HeapDisposerINS0_16EagerPromiseNodeINS0_4VoidEEEE8instanceE@Base 0.5.3
 _ZN2kj1_12HeapDisposerINS0_18AdapterPromiseNodeIN5capnp10AnyPointer8PipelineENS0_26PromiseAndFulfillerAdapterIS5_EEEEE8instanceE@Base 0.5.3
 _ZN2kj1_12HeapDisposerINS0_18AdapterPromiseNodeINS0_4VoidENS0_26PromiseAndFulfillerAdapterIvEEEEE8instanceE@Base 0.5.3
 _ZN2kj1_12HeapDisposerINS0_18AdapterPromiseNodeINS_3OwnIN5capnp10ClientHookEEENS0_26PromiseAndFulfillerAdapterIS6_EEEEE8instanceE@Base 0.5.3
 _ZN2kj1_12HeapDisposerINS0_18AdapterPromiseNodeINS_3OwnIN5capnp10VatNetworkINS4_3rpc8twoparty5VatIdENS7_11ProvisionIdENS7_11RecipientIdENS7_15ThirdPartyCapIdENS7_10JoinResultEE10ConnectionEEENS0_26PromiseAndFulfillerAdapterISF_EEEEE8instanceE@Base 0.5.3
 _ZN2kj1_12HeapDisposerINS0_18AdapterPromiseNodeIjNS0_26PromiseAndFulfillerAdapterIjEEEEE8instanceE@Base 0.5.3
 _ZN2kj1_12HeapDisposerINS0_20ImmediatePromiseNodeINS0_4VoidEEEE8instanceE@Base 0.5.3
 _ZN2kj1_12HeapDisposerINS0_20ImmediatePromiseNodeINS_3OwnIN5capnp10VatNetworkINS4_3rpc8twoparty5VatIdENS7_11ProvisionIdENS7_11RecipientIdENS7_15ThirdPartyCapIdENS7_10JoinResultEE10ConnectionEEEEEE8instanceE@Base 0.5.3
 _ZN2kj1_12HeapDisposerINS0_20ImmediatePromiseNodeIPvEEE8instanceE@Base 0.5.3
 _ZN2kj1_12HeapDisposerINS0_20ImmediatePromiseNodeIbEEE8instanceE@Base 0.5.3
 _ZN2kj1_12HeapDisposerINS0_20ImmediatePromiseNodeIjEEE8instanceE@Base 0.5.3
 (optional=templinst)_ZN2kj1_12HeapDisposerINS0_20TransformPromiseNodeIN5capnp8ResponseINS3_10AnyPointerEEENS0_4VoidENS_13CaptureByMoveIZNS3_12LocalRequest4sendEvEUlONS_3OwnINS3_16LocalCallContextEEEE0_SC_EENS0_18PropagateExceptionEEEE8instanceE@Base 0.5.3
 (optional=templinst)_ZN2kj1_12HeapDisposerINS0_20TransformPromiseNodeIN5capnp8ResponseINS3_10AnyPointerEEES6_ZNS3_7RequestIS5_S5_E4sendEvEUlOS6_E_NS0_18PropagateExceptionEEEE8instanceE@Base 0.5.3
 (optional=templinst)_ZN2kj1_12HeapDisposerINS0_20TransformPromiseNodeINS0_4VoidEN5capnp8ResponseINS4_10AnyPointerEEEZNS4_16LocalCallContext14directTailCallEONS_3OwnINS4_11RequestHookEEEEUlOS7_E_NS0_18PropagateExceptionEEEE8instanceE@Base 0.5.3
 (optional=templinst)_ZN2kj1_12HeapDisposerINS0_20TransformPromiseNodeINS0_4VoidENS_3OwnIN5capnp10ClientHookEEEZNS5_12QueuedClientC4EONS_7PromiseIS7_EEEUlOS7_E_ZNS8_C4ESB_EUlONS_9ExceptionEE0_EEE8instanceE@Base 0.5.3
 (optional=templinst)_ZN2kj1_12HeapDisposerINS0_20TransformPromiseNodeINS0_4VoidENS_3OwnIN5capnp12PipelineHookEEEZNS5_14QueuedPipelineC4EONS_7PromiseIS7_EEEUlOS7_E_ZNS8_C4ESB_EUlONS_9ExceptionEE0_EEE8instanceE@Base 0.5.3
 (optional=templinst)_ZN2kj1_12HeapDisposerINS0_20TransformPromiseNodeINS0_4VoidENS_3OwnIN5capnp1_14VatNetworkBase10ConnectionEEEZNS6_13RpcSystemBase4Impl10acceptLoopEvEUlOS9_E_NS0_18PropagateExceptionEEEE8instanceE@Base 0.5.3
 (optional=templinst)_ZN2kj1_12HeapDisposerINS0_20TransformPromiseNodeINS0_4VoidENS_3OwnINS_13AsyncIoStreamEEENS_13CaptureByMoveIZN5capnp11EzRpcServer4Impl10acceptLoopEONS4_INS_18ConnectionReceiverEEENS8_13ReaderOptionsEEUlSD_OS6_E_SC_EENS0_18PropagateExceptionEEEE8instanceE@Base 0.5.3
 (optional=templinst)_ZN2kj1_12HeapDisposerINS0_20TransformPromiseNodeINS0_4VoidENS_3OwnINS_13AsyncIoStreamEEEZN5capnp11EzRpcClient4ImplC4ENS_9StringPtrEjNS7_13ReaderOptionsEEUlOS6_E0_NS0_18PropagateExceptionEEEE8instanceE@Base 0.5.3
 (optional=templinst)_ZN2kj1_12HeapDisposerINS0_20TransformPromiseNodeINS0_4VoidENS_3OwnINS_13AsyncIoStreamEEEZN5capnp11EzRpcClient4ImplC4EPK8sockaddrjNS7_13ReaderOptionsEEUlOS6_E_NS0_18PropagateExceptionEEEE8instanceE@Base 0.5.3
 (optional=templinst)_ZN2kj1_12HeapDisposerINS0_20TransformPromiseNodeINS0_4VoidENS_3OwnINS_14NetworkAddressEEENS_13CaptureByMoveIZN5capnp11EzRpcServer4ImplC4ENS8_10Capability6ClientENS_9StringPtrEjNS8_13ReaderOptionsEEUlONS4_INS_16PromiseFulfillerIjEEEEOS6_E_SH_EENS0_18PropagateExceptionEEEE8instanceE@Base 0.5.3
 _ZN2kj1_12HeapDisposerINS0_20TransformPromiseNodeINS0_4VoidES3_ZN5capnp1_13RpcSystemBase4Impl10acceptLoopEvEUlvE0_NS0_18PropagateExceptionEEEE8instanceE@Base 0.5.3
 (optional=templinst)_ZN2kj1_12HeapDisposerINS0_20TransformPromiseNodeINS0_4VoidES3_ZNS_7PromiseIvE6detachIZN5capnp12LocalRequest4sendEvEUlONS_9ExceptionEE_EEvOT_EUlvE_SB_EEE8instanceE@Base 0.5.3
 (optional=templinst)_ZN2kj1_12HeapDisposerINS0_20TransformPromiseNodeINS_3OwnIN5capnp10ClientHookEEENS4_10Capability6ClientEZNS8_C4IS8_vEEONS_7PromiseIT_EEEUlOS8_E_NS0_18PropagateExceptionEEEE8instanceE@Base 0.5.3
 (optional=templinst)_ZN2kj1_12HeapDisposerINS0_20TransformPromiseNodeINS_3OwnIN5capnp12PipelineHookEEENS0_4VoidENS_13CaptureByMoveIZNS4_11LocalClient4callEmtONS3_INS4_15CallContextHookEEEEUlSC_E0_SB_EENS0_18PropagateExceptionEEEE8instanceE@Base 0.5.3
 (optional=templinst)_ZN2kj1_12HeapDisposerINS0_20TransformPromiseNodeINS_3OwnIN5capnp12PipelineHookEEENS3_IZNS4_12QueuedClient4callEmtONS3_INS4_15CallContextHookEEEE16CallResultHolderEEZNS7_4callEmtSA_EUlOSC_E0_NS0_18PropagateExceptionEEEE8instanceE@Base 0.5.3
 (optional=templinst)_ZN2kj1_12HeapDisposerINS0_20TransformPromiseNodeINS_3OwnIN5capnp12PipelineHookEEENS4_10AnyPointer8PipelineEZNS4_11LocalClient4callEmtONS3_INS4_15CallContextHookEEEEUlOS8_E1_NS0_18PropagateExceptionEEEE8instanceE@Base 0.5.3
 (optional=templinst)_ZN2kj1_12HeapDisposerINS0_20TransformPromiseNodeINS_3OwnIN5capnp1_14VatNetworkBase10ConnectionEEENS3_INS4_10VatNetworkINS4_3rpc8twoparty5VatIdENSB_11ProvisionIdENSB_11RecipientIdENSB_15ThirdPartyCapIdENSB_10JoinResultEE10ConnectionEEEZNSH_10baseAcceptEvEUlOSJ_E_NS0_18PropagateExceptionEEEE8instanceE@Base 0.5.3
 (optional=templinst)_ZN2kj1_12HeapDisposerINS0_20TransformPromiseNodeINS_3OwnIZN5capnp12QueuedClient4callEmtONS3_INS4_15CallContextHookEEEE16CallResultHolderEENS3_INS4_10ClientHookEEENS_13CaptureByMoveIZNS5_4callEmtS8_EUlS8_OSC_E_S7_EENS0_18PropagateExceptionEEEE8instanceE@Base 0.5.3
 (optional=templinst)_ZN2kj1_12HeapDisposerINS0_20TransformPromiseNodeINS_7PromiseINS_3OwnINS_13AsyncIoStreamEEEEENS4_INS_14NetworkAddressEEEZN5capnp11EzRpcClient4ImplC4ENS_9StringPtrEjNSA_13ReaderOptionsEEUlOS9_E_NS0_18PropagateExceptionEEEE8instanceE@Base 0.5.3
 (optional=templinst)_ZN2kj1_12HeapDisposerINS0_20TransformPromiseNodeINS_7PromiseIvEENS0_4VoidEZN5capnp11LocalClient4callEmtONS_3OwnINS6_15CallContextHookEEEEUlvE_NS0_18PropagateExceptionEEEE8instanceE@Base 0.5.3
 (optional=templinst)_ZN2kj1_12HeapDisposerINS0_20TransformPromiseNodeINS_7PromiseIvEENS0_4VoidEZN5capnp18TwoPartyVatNetwork19OutgoingMessageImpl4sendEvEUlvE_NS0_18PropagateExceptionEEEE8instanceE@Base 0.5.3
 (optional=templinst)_ZN2kj1_12HeapDisposerINS0_20TransformPromiseNodeINS_7PromiseIvEENS_3OwnIZN5capnp12QueuedClient4callEmtONS5_INS6_15CallContextHookEEEE16CallResultHolderEEZNS7_4callEmtSA_EUlOSC_E1_NS0_18PropagateExceptionEEEE8instanceE@Base 0.5.3
 _ZN2kj1_12HeapDisposerINS0_21AttachmentPromiseNodeINS_3OwnIN5capnp10ClientHookEEEEEE8instanceE@Base 0.5.3
 _ZN2kj1_12HeapDisposerINS0_21AttachmentPromiseNodeINS_3OwnIN5capnp11EzRpcServer4Impl13ServerContextEEEEEE8instanceE@Base 0.5.3
 _ZN2kj1_12HeapDisposerINS0_21AttachmentPromiseNodeINS_3OwnIN5capnp11LocalClientEEEEEE8instanceE@Base 0.5.3
 _ZN2kj1_12HeapDisposerINS0_21AttachmentPromiseNodeINS_3OwnIN5capnp14TwoPartyServer18AcceptedConnectionEEEEEE8instanceE@Base 0.5.3
 _ZN2kj1_12HeapDisposerINS0_21AttachmentPromiseNodeINS_3OwnIN5capnp15CallContextHookEEEEEE8instanceE@Base 0.5.3
 _ZN2kj1_12HeapDisposerINS0_21AttachmentPromiseNodeINS_3OwnIN5capnp16LocalCallContextEEEEEE8instanceE@Base 0.5.3
 _ZN2kj1_12HeapDisposerINS0_21AttachmentPromiseNodeINS_3OwnIN5capnp18TwoPartyVatNetwork19OutgoingMessageImplEEEEEE8instanceE@Base 0.5.3
 _ZN2kj1_12HeapDisposerINS0_21AttachmentPromiseNodeINS_3OwnIN5capnp1_14VatNetworkBase10ConnectionEEEEEE8instanceE@Base 0.5.3
 _ZN2kj1_12HeapDisposerINS0_21AttachmentPromiseNodeINS_3OwnINS_14NetworkAddressEEEEEE8instanceE@Base 0.5.3
 _ZN2kj1_12HeapDisposerINS0_24ExclusiveJoinPromiseNodeEE8instanceE@Base 0.5.3
 _ZN2kj1_12HeapDisposerINS0_26ImmediateBrokenPromiseNodeEE8instanceE@Base 0.5.3
 (optional=templinst)_ZN2kj1_12RunnableImplIZN5capnp1_13RpcSystemBase4ImplD4EvEUlvE_E3runEv@Base 0.5.3
 (optional=templinst)_ZN2kj1_13NullableValueINS_7PromiseIvEEEaSEOS4_@Base 0.5.3
 (optional=templinst)_ZN2kj1_13NullableValueINS_9ExceptionEEaSEOS3_@Base 0.5.3
 (optional=templinst)_ZN2kj1_13WeakFulfillerIN5capnp10AnyPointer8PipelineEE6rejectEONS_9ExceptionE@Base 0.5.3
 (optional=templinst)_ZN2kj1_13WeakFulfillerIN5capnp10AnyPointer8PipelineEE7fulfillEOS4_@Base 0.5.3
 (optional=templinst)_ZN2kj1_13WeakFulfillerIN5capnp10AnyPointer8PipelineEE9isWaitingEv@Base 0.5.3
 (optional=templinst)_ZN2kj1_13WeakFulfillerINS_3OwnIN5capnp10ClientHookEEEE6rejectEONS_9ExceptionE@Base 0.5.3
 (optional=templinst)_ZN2kj1_13WeakFulfillerINS_3OwnIN5capnp10ClientHookEEEE7fulfillEOS5_@Base 0.5.3
 (optional=templinst)_ZN2kj1_13WeakFulfillerINS_3OwnIN5capnp10ClientHookEEEE9isWaitingEv@Base 0.5.3
 (optional=templinst)_ZN2kj1_13WeakFulfillerINS_3OwnIN5capnp10VatNetworkINS3_3rpc8twoparty5VatIdENS6_11ProvisionIdENS6_11RecipientIdENS6_15ThirdPartyCapIdENS6_10JoinResultEE10ConnectionEEEE6rejectEONS_9ExceptionE@Base 0.5.3
 (optional=templinst)_ZN2kj1_13WeakFulfillerINS_3OwnIN5capnp10VatNetworkINS3_3rpc8twoparty5VatIdENS6_11ProvisionIdENS6_11RecipientIdENS6_15ThirdPartyCapIdENS6_10JoinResultEE10ConnectionEEEE7fulfillEOSE_@Base 0.5.3
 (optional=templinst)_ZN2kj1_13WeakFulfillerINS_3OwnIN5capnp10VatNetworkINS3_3rpc8twoparty5VatIdENS6_11ProvisionIdENS6_11RecipientIdENS6_15ThirdPartyCapIdENS6_10JoinResultEE10ConnectionEEEE9isWaitingEv@Base 0.5.3
 (optional=templinst)_ZN2kj1_13WeakFulfillerIjE6rejectEONS_9ExceptionE@Base 0.5.3
 (optional=templinst)_ZN2kj1_13WeakFulfillerIjE7fulfillEOj@Base 0.5.3
 (optional=templinst)_ZN2kj1_13WeakFulfillerIjE9isWaitingEv@Base 0.5.3
 (optional=templinst)_ZN2kj1_13WeakFulfillerIvE6rejectEONS_9ExceptionE@Base 0.5.3
 (optional=templinst)_ZN2kj1_13WeakFulfillerIvE7fulfillEONS0_4VoidE@Base 0.5.3
 (optional=templinst)_ZN2kj1_13WeakFulfillerIvE9isWaitingEv@Base 0.5.3
 (optional=templinst)_ZN2kj1_16EagerPromiseNodeINS0_4VoidEE3getERNS0_16ExceptionOrValueE@Base 0.5.3
 (optional=templinst)_ZN2kj1_17HeapArrayDisposer9Allocate_INS_8ArrayPtrIKhEELb0ELb0EE8destructEPv@Base 0.5.3
 (optional=templinst)_ZN2kj1_17HeapArrayDisposer9Allocate_INS_8ArrayPtrIKhEELb0ELb0EE9constructEPv@Base 0.5.3
 (optional=templinst)_ZN2kj1_18AdapterPromiseNodeIN5capnp10AnyPointer8PipelineENS0_26PromiseAndFulfillerAdapterIS4_EEE3getERNS0_16ExceptionOrValueE@Base 0.5.3
 (optional=templinst)_ZN2kj1_18AdapterPromiseNodeIN5capnp10AnyPointer8PipelineENS0_26PromiseAndFulfillerAdapterIS4_EEE6rejectEONS_9ExceptionE@Base 0.5.3
 (optional=templinst)_ZN2kj1_18AdapterPromiseNodeIN5capnp10AnyPointer8PipelineENS0_26PromiseAndFulfillerAdapterIS4_EEE7fulfillEOS4_@Base 0.5.3
 (optional=templinst)_ZN2kj1_18AdapterPromiseNodeIN5capnp10AnyPointer8PipelineENS0_26PromiseAndFulfillerAdapterIS4_EEE9isWaitingEv@Base 0.5.3
 (optional=templinst)_ZN2kj1_18AdapterPromiseNodeINS0_4VoidENS0_26PromiseAndFulfillerAdapterIvEEE3getERNS0_16ExceptionOrValueE@Base 0.5.3
 (optional=templinst)_ZN2kj1_18AdapterPromiseNodeINS0_4VoidENS0_26PromiseAndFulfillerAdapterIvEEE6rejectEONS_9ExceptionE@Base 0.5.3
 (optional=templinst)_ZN2kj1_18AdapterPromiseNodeINS0_4VoidENS0_26PromiseAndFulfillerAdapterIvEEE7fulfillEOS2_@Base 0.5.3
 (optional=templinst)_ZN2kj1_18AdapterPromiseNodeINS0_4VoidENS0_26PromiseAndFulfillerAdapterIvEEE9isWaitingEv@Base 0.5.3
 (optional=templinst)_ZN2kj1_18AdapterPromiseNodeINS_3OwnIN5capnp10ClientHookEEENS0_26PromiseAndFulfillerAdapterIS5_EEE3getERNS0_16ExceptionOrValueE@Base 0.5.3
 (optional=templinst)_ZN2kj1_18AdapterPromiseNodeINS_3OwnIN5capnp10ClientHookEEENS0_26PromiseAndFulfillerAdapterIS5_EEE6rejectEONS_9ExceptionE@Base 0.5.3
 (optional=templinst)_ZN2kj1_18AdapterPromiseNodeINS_3OwnIN5capnp10ClientHookEEENS0_26PromiseAndFulfillerAdapterIS5_EEE7fulfillEOS5_@Base 0.5.3
 (optional=templinst)_ZN2kj1_18AdapterPromiseNodeINS_3OwnIN5capnp10ClientHookEEENS0_26PromiseAndFulfillerAdapterIS5_EEE9isWaitingEv@Base 0.5.3
 (optional=templinst)_ZN2kj1_18AdapterPromiseNodeINS_3OwnIN5capnp10VatNetworkINS3_3rpc8twoparty5VatIdENS6_11ProvisionIdENS6_11RecipientIdENS6_15ThirdPartyCapIdENS6_10JoinResultEE10ConnectionEEENS0_26PromiseAndFulfillerAdapterISE_EEE3getERNS0_16ExceptionOrValueE@Base 0.5.3
 (optional=templinst)_ZN2kj1_18AdapterPromiseNodeINS_3OwnIN5capnp10VatNetworkINS3_3rpc8twoparty5VatIdENS6_11ProvisionIdENS6_11RecipientIdENS6_15ThirdPartyCapIdENS6_10JoinResultEE10ConnectionEEENS0_26PromiseAndFulfillerAdapterISE_EEE6rejectEONS_9ExceptionE@Base 0.5.3
 (optional=templinst)_ZN2kj1_18AdapterPromiseNodeINS_3OwnIN5capnp10VatNetworkINS3_3rpc8twoparty5VatIdENS6_11ProvisionIdENS6_11RecipientIdENS6_15ThirdPartyCapIdENS6_10JoinResultEE10ConnectionEEENS0_26PromiseAndFulfillerAdapterISE_EEE7fulfillEOSE_@Base 0.5.3
 (optional=templinst)_ZN2kj1_18AdapterPromiseNodeINS_3OwnIN5capnp10VatNetworkINS3_3rpc8twoparty5VatIdENS6_11ProvisionIdENS6_11RecipientIdENS6_15ThirdPartyCapIdENS6_10JoinResultEE10ConnectionEEENS0_26PromiseAndFulfillerAdapterISE_EEE9isWaitingEv@Base 0.5.3
 (optional=templinst)_ZN2kj1_18AdapterPromiseNodeIjNS0_26PromiseAndFulfillerAdapterIjEEE3getERNS0_16ExceptionOrValueE@Base 0.5.3
 (optional=templinst)_ZN2kj1_18AdapterPromiseNodeIjNS0_26PromiseAndFulfillerAdapterIjEEE6rejectEONS_9ExceptionE@Base 0.5.3
 (optional=templinst)_ZN2kj1_18AdapterPromiseNodeIjNS0_26PromiseAndFulfillerAdapterIjEEE7fulfillEOj@Base 0.5.3
 (optional=templinst)_ZN2kj1_18AdapterPromiseNodeIjNS0_26PromiseAndFulfillerAdapterIjEEE9isWaitingEv@Base 0.5.3
 (optional=templinst)_ZN2kj1_20ImmediatePromiseNodeINS0_4VoidEE3getERNS0_16ExceptionOrValueE@Base 0.5.3
 (optional=templinst)_ZN2kj1_20ImmediatePromiseNodeINS_3OwnIN5capnp10VatNetworkINS3_3rpc8twoparty5VatIdENS6_11ProvisionIdENS6_11RecipientIdENS6_15ThirdPartyCapIdENS6_10JoinResultEE10ConnectionEEEE3getERNS0_16ExceptionOrValueE@Base 0.5.3
 (optional=templinst)_ZN2kj1_20ImmediatePromiseNodeIPvE3getERNS0_16ExceptionOrValueE@Base 0.5.3
 (optional=templinst)_ZN2kj1_20ImmediatePromiseNodeIbE3getERNS0_16ExceptionOrValueE@Base 0.5.3
 (optional=templinst)_ZN2kj1_20ImmediatePromiseNodeIjE3getERNS0_16ExceptionOrValueE@Base 0.5.3
 (optional=templinst)_ZN2kj1_20TransformPromiseNodeIN5capnp8ResponseINS2_10AnyPointerEEENS0_4VoidENS_13CaptureByMoveIZNS2_12LocalRequest4sendEvEUlONS_3OwnINS2_16LocalCallContextEEEE0_SB_EENS0_18PropagateExceptionEE7getImplERNS0_16ExceptionOrValueE@Base 0.5.3
 (optional=templinst)_ZN2kj1_20TransformPromiseNodeIN5capnp8ResponseINS2_10AnyPointerEEES5_ZNS2_7RequestIS4_S4_E4sendEvEUlOS5_E_NS0_18PropagateExceptionEE7getImplERNS0_16ExceptionOrValueE@Base 0.5.3
 (optional=templinst)_ZN2kj1_20TransformPromiseNodeINS0_4VoidEN5capnp8ResponseINS3_10AnyPointerEEEZNS3_16LocalCallContext14directTailCallEONS_3OwnINS3_11RequestHookEEEEUlOS6_E_NS0_18PropagateExceptionEE7getImplERNS0_16ExceptionOrValueE@Base 0.5.3
 (optional=templinst)_ZN2kj1_20TransformPromiseNodeINS0_4VoidENS_3OwnIN5capnp10ClientHookEEEZNS4_12QueuedClientC4EONS_7PromiseIS6_EEEUlOS6_E_ZNS7_C4ESA_EUlONS_9ExceptionEE0_E7getImplERNS0_16ExceptionOrValueE@Base 0.5.3
 (optional=templinst)_ZN2kj1_20TransformPromiseNodeINS0_4VoidENS_3OwnIN5capnp12PipelineHookEEEZNS4_14QueuedPipelineC4EONS_7PromiseIS6_EEEUlOS6_E_ZNS7_C4ESA_EUlONS_9ExceptionEE0_E7getImplERNS0_16ExceptionOrValueE@Base 0.5.3
 (optional=templinst)_ZN2kj1_20TransformPromiseNodeINS0_4VoidENS_3OwnIN5capnp1_14VatNetworkBase10ConnectionEEEZNS5_13RpcSystemBase4Impl10acceptLoopEvEUlOS8_E_NS0_18PropagateExceptionEE7getImplERNS0_16ExceptionOrValueE@Base 0.5.3
 (optional=templinst)_ZN2kj1_20TransformPromiseNodeINS0_4VoidENS_3OwnINS_13AsyncIoStreamEEENS_13CaptureByMoveIZN5capnp11EzRpcServer4Impl10acceptLoopEONS3_INS_18ConnectionReceiverEEENS7_13ReaderOptionsEEUlSC_OS5_E_SB_EENS0_18PropagateExceptionEE7getImplERNS0_16ExceptionOrValueE@Base 0.5.3
 (optional=templinst)_ZN2kj1_20TransformPromiseNodeINS0_4VoidENS_3OwnINS_13AsyncIoStreamEEEZN5capnp11EzRpcClient4ImplC4ENS_9StringPtrEjNS6_13ReaderOptionsEEUlOS5_E0_NS0_18PropagateExceptionEE7getImplERNS0_16ExceptionOrValueE@Base 0.5.3
 (optional=templinst)_ZN2kj1_20TransformPromiseNodeINS0_4VoidENS_3OwnINS_13AsyncIoStreamEEEZN5capnp11EzRpcClient4ImplC4EPK8sockaddrjNS6_13ReaderOptionsEEUlOS5_E_NS0_18PropagateExceptionEE7getImplERNS0_16ExceptionOrValueE@Base 0.5.3
 (optional=templinst)_ZN2kj1_20TransformPromiseNodeINS0_4VoidENS_3OwnINS_14NetworkAddressEEENS_13CaptureByMoveIZN5capnp11EzRpcServer4ImplC4ENS7_10Capability6ClientENS_9StringPtrEjNS7_13ReaderOptionsEEUlONS3_INS_16PromiseFulfillerIjEEEEOS5_E_SG_EENS0_18PropagateExceptionEE7getImplERNS0_16ExceptionOrValueE@Base 0.5.3
 (optional=templinst)_ZN2kj1_20TransformPromiseNodeINS0_4VoidES2_ZN5capnp1_13RpcSystemBase4Impl10acceptLoopEvEUlvE0_NS0_18PropagateExceptionEE7getImplERNS0_16ExceptionOrValueE@Base 0.5.3
 (optional=templinst)_ZN2kj1_20TransformPromiseNodeINS0_4VoidES2_ZNS_7PromiseIvE6detachIZN5capnp12LocalRequest4sendEvEUlONS_9ExceptionEE_EEvOT_EUlvE_SA_E7getImplERNS0_16ExceptionOrValueE@Base 0.5.3
 (optional=templinst)_ZN2kj1_20TransformPromiseNodeINS_3OwnIN5capnp10ClientHookEEENS3_10Capability6ClientEZNS7_C4IS7_vEEONS_7PromiseIT_EEEUlOS7_E_NS0_18PropagateExceptionEE7getImplERNS0_16ExceptionOrValueE@Base 0.5.3
 (optional=templinst)_ZN2kj1_20TransformPromiseNodeINS_3OwnIN5capnp12PipelineHookEEENS0_4VoidENS_13CaptureByMoveIZNS3_11LocalClient4callEmtONS2_INS3_15CallContextHookEEEEUlSB_E0_SA_EENS0_18PropagateExceptionEE7getImplERNS0_16ExceptionOrValueE@Base 0.5.3
 (optional=templinst)_ZN2kj1_20TransformPromiseNodeINS_3OwnIN5capnp12PipelineHookEEENS2_IZNS3_12QueuedClient4callEmtONS2_INS3_15CallContextHookEEEE16CallResultHolderEEZNS6_4callEmtS9_EUlOSB_E0_NS0_18PropagateExceptionEE7getImplERNS0_16ExceptionOrValueE@Base 0.5.3
 (optional=templinst)_ZN2kj1_20TransformPromiseNodeINS_3OwnIN5capnp12PipelineHookEEENS3_10AnyPointer8PipelineEZNS3_11LocalClient4callEmtONS2_INS3_15CallContextHookEEEEUlOS7_E1_NS0_18PropagateExceptionEE7getImplERNS0_16ExceptionOrValueE@Base 0.5.3
 (optional=templinst)_ZN2kj1_20TransformPromiseNodeINS_3OwnIN5capnp1_14VatNetworkBase10ConnectionEEENS2_INS3_10VatNetworkINS3_3rpc8twoparty5VatIdENSA_11ProvisionIdENSA_11RecipientIdENSA_15ThirdPartyCapIdENSA_10JoinResultEE10ConnectionEEEZNSG_10baseAcceptEvEUlOSI_E_NS0_18PropagateExceptionEE7getImplERNS0_16ExceptionOrValueE@Base 0.5.3
 (optional=templinst)_ZN2kj1_20TransformPromiseNodeINS_3OwnIZN5capnp12QueuedClient4callEmtONS2_INS3_15CallContextHookEEEE16CallResultHolderEENS2_INS3_10ClientHookEEENS_13CaptureByMoveIZNS4_4callEmtS7_EUlS7_OSB_E_S6_EENS0_18PropagateExceptionEE7getImplERNS0_16ExceptionOrValueE@Base 0.5.3
 (optional=templinst)_ZN2kj1_20TransformPromiseNodeINS_7PromiseINS_3OwnINS_13AsyncIoStreamEEEEENS3_INS_14NetworkAddressEEEZN5capnp11EzRpcClient4ImplC4ENS_9StringPtrEjNS9_13ReaderOptionsEEUlOS8_E_NS0_18PropagateExceptionEE7getImplERNS0_16ExceptionOrValueE@Base 0.5.3
 (optional=templinst)_ZN2kj1_20TransformPromiseNodeINS_7PromiseIvEENS0_4VoidEZN5capnp11LocalClient4callEmtONS_3OwnINS5_15CallContextHookEEEEUlvE_NS0_18PropagateExceptionEE7getImplERNS0_16ExceptionOrValueE@Base 0.5.3
 (optional=templinst)_ZN2kj1_20TransformPromiseNodeINS_7PromiseIvEENS0_4VoidEZN5capnp18TwoPartyVatNetwork19OutgoingMessageImpl4sendEvEUlvE_NS0_18PropagateExceptionEE7getImplERNS0_16ExceptionOrValueE@Base 0.5.3
 (optional=templinst)_ZN2kj1_20TransformPromiseNodeINS_7PromiseIvEENS_3OwnIZN5capnp12QueuedClient4callEmtONS4_INS5_15CallContextHookEEEE16CallResultHolderEEZNS6_4callEmtS9_EUlOSB_E1_NS0_18PropagateExceptionEE7getImplERNS0_16ExceptionOrValueE@Base 0.5.3
 (optional=templinst)_ZN2kj1_5Debug15makeDescriptionIIRA25_KcEEENS_6StringEPS3_DpOT_@Base 0.5.3
 (optional=templinst)_ZN2kj1_5Debug15makeDescriptionIJRA25_KcEEENS_6StringEPS3_DpOT_@Base 0.5.3
 (optional=templinst)_ZN2kj1_5Debug3logIIRA71_KcRNS_9ExceptionEEEEvPS3_iNS_11LogSeverityES8_DpOT_@Base 0.5.3
 (optional=templinst)_ZN2kj1_5Debug3logIIRNS_9ExceptionEEEEvPKciNS_11LogSeverityES6_DpOT_@Base 0.5.3
 (optional=templinst)_ZN2kj1_5Debug3logIJRA71_KcRNS_9ExceptionEEEEvPS3_iNS_11LogSeverityES8_DpOT_@Base 0.5.3
 (optional=templinst)_ZN2kj1_5Debug3logIJRNS_9ExceptionEEEEvPKciNS_11LogSeverityES6_DpOT_@Base 0.5.3
 (optional=templinst)_ZN2kj1_5Debug5FaultC1IIRA135_KcEEEPS4_iNS_9Exception4TypeES7_S7_DpOT_@Base 0.5.3
 (optional=templinst)_ZN2kj1_5Debug5FaultC1IIRA15_KcEEEPS4_iNS_9Exception4TypeES7_S7_DpOT_@Base 0.5.3
 (optional=templinst)_ZN2kj1_5Debug5FaultC1IIRA18_KcEEEPS4_iNS_9Exception4TypeES7_S7_DpOT_@Base 0.5.3
 (optional=templinst)_ZN2kj1_5Debug5FaultC1IIRA23_KcEEEPS4_iNS_9Exception4TypeES7_S7_DpOT_@Base 0.5.3
 (optional=templinst)_ZN2kj1_5Debug5FaultC1IIRA24_KcEEEPS4_iNS_9Exception4TypeES7_S7_DpOT_@Base 0.5.3
 (optional=templinst)_ZN2kj1_5Debug5FaultC1IIRA24_KcRPS4_RmRtEEES7_iNS_9Exception4TypeES7_S7_DpOT_@Base 0.5.3
 (optional=templinst)_ZN2kj1_5Debug5FaultC1IIRA24_KcRPS4_RmS8_RtEEES7_iNS_9Exception4TypeES7_S7_DpOT_@Base 0.5.3
 (optional=templinst)_ZN2kj1_5Debug5FaultC1IIRA25_KcjEEEPS4_iNS_9Exception4TypeES7_S7_DpOT_@Base 0.5.3
 (optional=templinst)_ZN2kj1_5Debug5FaultC1IIRA27_KcEEEPS4_iNS_9Exception4TypeES7_S7_DpOT_@Base 0.5.3
 (optional=templinst)_ZN2kj1_5Debug5FaultC1IIRA29_KcEEEPS4_iNS_9Exception4TypeES7_S7_DpOT_@Base 0.5.3
 (optional=templinst)_ZN2kj1_5Debug5FaultC1IIRA29_KcRKN5capnp3rpc13MessageTarget6ReaderEEEEPS4_iNS_9Exception4TypeESD_SD_DpOT_@Base 0.5.3
 (optional=templinst)_ZN2kj1_5Debug5FaultC1IIRA31_KcEEEPS4_iNS_9Exception4TypeES7_S7_DpOT_@Base 0.5.3
 (optional=templinst)_ZN2kj1_5Debug5FaultC1IIRA31_KcRKN5capnp3rpc10Disembargo6ReaderEEEEPS4_iNS_9Exception4TypeESD_SD_DpOT_@Base 0.5.3
 (optional=templinst)_ZN2kj1_5Debug5FaultC1IIRA32_KcEEEPS4_iNS_9Exception4TypeES7_S7_DpOT_@Base 0.5.3
 (optional=templinst)_ZN2kj1_5Debug5FaultC1IIRA34_KcEEEPS4_iNS_9Exception4TypeES7_S7_DpOT_@Base 0.5.3
 (optional=templinst)_ZN2kj1_5Debug5FaultC1IIRA35_KcRN5capnp4Text6ReaderEEEEPS4_iNS_9Exception4TypeESB_SB_DpOT_@Base 0.5.3
 (optional=templinst)_ZN2kj1_5Debug5FaultC1IIRA36_KcEEEPS4_iNS_9Exception4TypeES7_S7_DpOT_@Base 0.5.3
 (optional=templinst)_ZN2kj1_5Debug5FaultC1IIRA37_KcRPS4_RmEEES7_iNS_9Exception4TypeES7_S7_DpOT_@Base 0.5.3
 (optional=templinst)_ZN2kj1_5Debug5FaultC1IIRA39_KcEEEPS4_iNS_9Exception4TypeES7_S7_DpOT_@Base 0.5.3
 (optional=templinst)_ZN2kj1_5Debug5FaultC1IIRA40_KcEEEPS4_iNS_9Exception4TypeES7_S7_DpOT_@Base 0.5.3
 (optional=templinst)_ZN2kj1_5Debug5FaultC1IIRA42_KcEEEPS4_iNS_9Exception4TypeES7_S7_DpOT_@Base 0.5.3
 (optional=templinst)_ZN2kj1_5Debug5FaultC1IIRA43_KcEEEPS4_iNS_9Exception4TypeES7_S7_DpOT_@Base 0.5.3
 (optional=templinst)_ZN2kj1_5Debug5FaultC1IIRA44_KcEEEPS4_iNS_9Exception4TypeES7_S7_DpOT_@Base 0.5.3
 (optional=templinst)_ZN2kj1_5Debug5FaultC1IIRA46_KcEEEPS4_iNS_9Exception4TypeES7_S7_DpOT_@Base 0.5.3
 (optional=templinst)_ZN2kj1_5Debug5FaultC1IIRA49_KcEEEPS4_iNS_9Exception4TypeES7_S7_DpOT_@Base 0.5.3
 (optional=templinst)_ZN2kj1_5Debug5FaultC1IIRA50_KcjEEEPS4_iNS_9Exception4TypeES7_S7_DpOT_@Base 0.5.3
 (optional=templinst)_ZN2kj1_5Debug5FaultC1IIRA52_KcEEEPS4_iNS_9Exception4TypeES7_S7_DpOT_@Base 0.5.3
 (optional=templinst)_ZN2kj1_5Debug5FaultC1IIRA53_KcEEEPS4_iNS_9Exception4TypeES7_S7_DpOT_@Base 0.5.3
 (optional=templinst)_ZN2kj1_5Debug5FaultC1IIRA55_KcEEEPS4_iNS_9Exception4TypeES7_S7_DpOT_@Base 0.5.3
 (optional=templinst)_ZN2kj1_5Debug5FaultC1IIRA58_KcEEEPS4_iNS_9Exception4TypeES7_S7_DpOT_@Base 0.5.3
 (optional=templinst)_ZN2kj1_5Debug5FaultC1IIRA61_KcEEEPS4_iNS_9Exception4TypeES7_S7_DpOT_@Base 0.5.3
 (optional=templinst)_ZN2kj1_5Debug5FaultC1IIRA66_KcEEEPS4_iNS_9Exception4TypeES7_S7_DpOT_@Base 0.5.3
 (optional=templinst)_ZN2kj1_5Debug5FaultC1IIRA67_KcEEEPS4_iNS_9Exception4TypeES7_S7_DpOT_@Base 0.5.3
 (optional=templinst)_ZN2kj1_5Debug5FaultC1IIRA69_KcEEEPS4_iNS_9Exception4TypeES7_S7_DpOT_@Base 0.5.3
 (optional=templinst)_ZN2kj1_5Debug5FaultC1IIRA76_KcEEEPS4_iNS_9Exception4TypeES7_S7_DpOT_@Base 0.5.3
 (optional=templinst)_ZN2kj1_5Debug5FaultC1IIRA90_KcEEEPS4_iNS_9Exception4TypeES7_S7_DpOT_@Base 0.5.3
 (optional=templinst)_ZN2kj1_5Debug5FaultC1IIRA93_KcEEEPS4_iNS_9Exception4TypeES7_S7_DpOT_@Base 0.5.3
 (optional=templinst)_ZN2kj1_5Debug5FaultC1IIRA95_KcEEEPS4_iNS_9Exception4TypeES7_S7_DpOT_@Base 0.5.3
 (optional=templinst)_ZN2kj1_5Debug5FaultC1IIRA96_KcEEEPS4_iNS_9Exception4TypeES7_S7_DpOT_@Base 0.5.3
 (optional=templinst)_ZN2kj1_5Debug5FaultC1IJRA135_KcEEEPS4_iNS_9Exception4TypeES7_S7_DpOT_@Base 0.5.3
 (optional=templinst)_ZN2kj1_5Debug5FaultC1IJRA15_KcEEEPS4_iNS_9Exception4TypeES7_S7_DpOT_@Base 0.5.3
 (optional=templinst)_ZN2kj1_5Debug5FaultC1IJRA18_KcEEEPS4_iNS_9Exception4TypeES7_S7_DpOT_@Base 0.5.3
 (optional=templinst)_ZN2kj1_5Debug5FaultC1IJRA23_KcEEEPS4_iNS_9Exception4TypeES7_S7_DpOT_@Base 0.5.3
 (optional=templinst)_ZN2kj1_5Debug5FaultC1IJRA24_KcEEEPS4_iNS_9Exception4TypeES7_S7_DpOT_@Base 0.5.3
 (optional=templinst)_ZN2kj1_5Debug5FaultC1IJRA24_KcRPS4_RmRtEEES7_iNS_9Exception4TypeES7_S7_DpOT_@Base 0.5.3
 (optional=templinst)_ZN2kj1_5Debug5FaultC1IJRA24_KcRPS4_RmS8_RtEEES7_iNS_9Exception4TypeES7_S7_DpOT_@Base 0.5.3
 (optional=templinst)_ZN2kj1_5Debug5FaultC1IJRA25_KcjEEEPS4_iNS_9Exception4TypeES7_S7_DpOT_@Base 0.5.3
 (optional=templinst)_ZN2kj1_5Debug5FaultC1IJRA27_KcEEEPS4_iNS_9Exception4TypeES7_S7_DpOT_@Base 0.5.3
 (optional=templinst)_ZN2kj1_5Debug5FaultC1IJRA29_KcEEEPS4_iNS_9Exception4TypeES7_S7_DpOT_@Base 0.5.3
 (optional=templinst)_ZN2kj1_5Debug5FaultC1IJRA29_KcRKN5capnp3rpc13MessageTarget6ReaderEEEEPS4_iNS_9Exception4TypeESD_SD_DpOT_@Base 0.5.3
 (optional=templinst)_ZN2kj1_5Debug5FaultC1IJRA31_KcEEEPS4_iNS_9Exception4TypeES7_S7_DpOT_@Base 0.5.3
 (optional=templinst)_ZN2kj1_5Debug5FaultC1IJRA31_KcRKN5capnp3rpc10Disembargo6ReaderEEEEPS4_iNS_9Exception4TypeESD_SD_DpOT_@Base 0.5.3
 (optional=templinst)_ZN2kj1_5Debug5FaultC1IJRA32_KcEEEPS4_iNS_9Exception4TypeES7_S7_DpOT_@Base 0.5.3
 (optional=templinst)_ZN2kj1_5Debug5FaultC1IJRA34_KcEEEPS4_iNS_9Exception4TypeES7_S7_DpOT_@Base 0.5.3
 (optional=templinst)_ZN2kj1_5Debug5FaultC1IJRA35_KcRN5capnp4Text6ReaderEEEEPS4_iNS_9Exception4TypeESB_SB_DpOT_@Base 0.5.3
 (optional=templinst)_ZN2kj1_5Debug5FaultC1IJRA36_KcEEEPS4_iNS_9Exception4TypeES7_S7_DpOT_@Base 0.5.3
 (optional=templinst)_ZN2kj1_5Debug5FaultC1IJRA37_KcRPS4_RmEEES7_iNS_9Exception4TypeES7_S7_DpOT_@Base 0.5.3
 (optional=templinst)_ZN2kj1_5Debug5FaultC1IJRA39_KcEEEPS4_iNS_9Exception4TypeES7_S7_DpOT_@Base 0.5.3
 (optional=templinst)_ZN2kj1_5Debug5FaultC1IJRA40_KcEEEPS4_iNS_9Exception4TypeES7_S7_DpOT_@Base 0.5.3
 (optional=templinst)_ZN2kj1_5Debug5FaultC1IJRA42_KcEEEPS4_iNS_9Exception4TypeES7_S7_DpOT_@Base 0.5.3
 (optional=templinst)_ZN2kj1_5Debug5FaultC1IJRA43_KcEEEPS4_iNS_9Exception4TypeES7_S7_DpOT_@Base 0.5.3
 (optional=templinst)_ZN2kj1_5Debug5FaultC1IJRA44_KcEEEPS4_iNS_9Exception4TypeES7_S7_DpOT_@Base 0.5.3
 (optional=templinst)_ZN2kj1_5Debug5FaultC1IJRA46_KcEEEPS4_iNS_9Exception4TypeES7_S7_DpOT_@Base 0.5.3
 (optional=templinst)_ZN2kj1_5Debug5FaultC1IJRA49_KcEEEPS4_iNS_9Exception4TypeES7_S7_DpOT_@Base 0.5.3
 (optional=templinst)_ZN2kj1_5Debug5FaultC1IJRA50_KcjEEEPS4_iNS_9Exception4TypeES7_S7_DpOT_@Base 0.5.3
 (optional=templinst)_ZN2kj1_5Debug5FaultC1IJRA52_KcEEEPS4_iNS_9Exception4TypeES7_S7_DpOT_@Base 0.5.3
 (optional=templinst)_ZN2kj1_5Debug5FaultC1IJRA53_KcEEEPS4_iNS_9Exception4TypeES7_S7_DpOT_@Base 0.5.3
 (optional=templinst)_ZN2kj1_5Debug5FaultC1IJRA55_KcEEEPS4_iNS_9Exception4TypeES7_S7_DpOT_@Base 0.5.3
 (optional=templinst)_ZN2kj1_5Debug5FaultC1IJRA58_KcEEEPS4_iNS_9Exception4TypeES7_S7_DpOT_@Base 0.5.3
 (optional=templinst)_ZN2kj1_5Debug5FaultC1IJRA61_KcEEEPS4_iNS_9Exception4TypeES7_S7_DpOT_@Base 0.5.3
 (optional=templinst)_ZN2kj1_5Debug5FaultC1IJRA66_KcEEEPS4_iNS_9Exception4TypeES7_S7_DpOT_@Base 0.5.3
 (optional=templinst)_ZN2kj1_5Debug5FaultC1IJRA67_KcEEEPS4_iNS_9Exception4TypeES7_S7_DpOT_@Base 0.5.3
 (optional=templinst)_ZN2kj1_5Debug5FaultC1IJRA69_KcEEEPS4_iNS_9Exception4TypeES7_S7_DpOT_@Base 0.5.3
 (optional=templinst)_ZN2kj1_5Debug5FaultC1IJRA76_KcEEEPS4_iNS_9Exception4TypeES7_S7_DpOT_@Base 0.5.3
 (optional=templinst)_ZN2kj1_5Debug5FaultC1IJRA90_KcEEEPS4_iNS_9Exception4TypeES7_S7_DpOT_@Base 0.5.3
 (optional=templinst)_ZN2kj1_5Debug5FaultC1IJRA93_KcEEEPS4_iNS_9Exception4TypeES7_S7_DpOT_@Base 0.5.3
 (optional=templinst)_ZN2kj1_5Debug5FaultC1IJRA95_KcEEEPS4_iNS_9Exception4TypeES7_S7_DpOT_@Base 0.5.3
 (optional=templinst)_ZN2kj1_5Debug5FaultC1IJRA96_KcEEEPS4_iNS_9Exception4TypeES7_S7_DpOT_@Base 0.5.3
 (optional=templinst)_ZN2kj1_5Debug5FaultC2IIRA135_KcEEEPS4_iNS_9Exception4TypeES7_S7_DpOT_@Base 0.5.3
 (optional=templinst)_ZN2kj1_5Debug5FaultC2IIRA24_KcRPS4_RmRtEEES7_iNS_9Exception4TypeES7_S7_DpOT_@Base 0.5.3
 (optional=templinst)_ZN2kj1_5Debug5FaultC2IIRA24_KcRPS4_RmS8_RtEEES7_iNS_9Exception4TypeES7_S7_DpOT_@Base 0.5.3
 (optional=templinst)_ZN2kj1_5Debug5FaultC2IIRA29_KcRKN5capnp3rpc13MessageTarget6ReaderEEEEPS4_iNS_9Exception4TypeESD_SD_DpOT_@Base 0.5.3
 (optional=templinst)_ZN2kj1_5Debug5FaultC2IIRA31_KcRKN5capnp3rpc10Disembargo6ReaderEEEEPS4_iNS_9Exception4TypeESD_SD_DpOT_@Base 0.5.3
 (optional=templinst)_ZN2kj1_5Debug5FaultC2IIRA35_KcRN5capnp4Text6ReaderEEEEPS4_iNS_9Exception4TypeESB_SB_DpOT_@Base 0.5.3
 (optional=templinst)_ZN2kj1_5Debug5FaultC2IIRA37_KcRPS4_RmEEES7_iNS_9Exception4TypeES7_S7_DpOT_@Base 0.5.3
 (optional=templinst)_ZN2kj1_5Debug5FaultC2IIRA39_KcEEEPS4_iNS_9Exception4TypeES7_S7_DpOT_@Base 0.5.3
 (optional=templinst)_ZN2kj1_5Debug5FaultC2IIRA42_KcEEEPS4_iNS_9Exception4TypeES7_S7_DpOT_@Base 0.5.3
 (optional=templinst)_ZN2kj1_5Debug5FaultC2IIRA50_KcjEEEPS4_iNS_9Exception4TypeES7_S7_DpOT_@Base 0.5.3
 (optional=templinst)_ZN2kj1_5Debug5FaultC2IJRA135_KcEEEPS4_iNS_9Exception4TypeES7_S7_DpOT_@Base 0.5.3
 (optional=templinst)_ZN2kj1_5Debug5FaultC2IJRA15_KcEEEPS4_iNS_9Exception4TypeES7_S7_DpOT_@Base 0.5.3
 (optional=templinst)_ZN2kj1_5Debug5FaultC2IJRA18_KcEEEPS4_iNS_9Exception4TypeES7_S7_DpOT_@Base 0.5.3
 (optional=templinst)_ZN2kj1_5Debug5FaultC2IJRA23_KcEEEPS4_iNS_9Exception4TypeES7_S7_DpOT_@Base 0.5.3
 (optional=templinst)_ZN2kj1_5Debug5FaultC2IJRA24_KcEEEPS4_iNS_9Exception4TypeES7_S7_DpOT_@Base 0.5.3
 (optional=templinst)_ZN2kj1_5Debug5FaultC2IJRA24_KcRPS4_RmRtEEES7_iNS_9Exception4TypeES7_S7_DpOT_@Base 0.5.3
 (optional=templinst)_ZN2kj1_5Debug5FaultC2IJRA24_KcRPS4_RmS8_RtEEES7_iNS_9Exception4TypeES7_S7_DpOT_@Base 0.5.3
 (optional=templinst)_ZN2kj1_5Debug5FaultC2IJRA25_KcjEEEPS4_iNS_9Exception4TypeES7_S7_DpOT_@Base 0.5.3
 (optional=templinst)_ZN2kj1_5Debug5FaultC2IJRA27_KcEEEPS4_iNS_9Exception4TypeES7_S7_DpOT_@Base 0.5.3
 (optional=templinst)_ZN2kj1_5Debug5FaultC2IJRA29_KcEEEPS4_iNS_9Exception4TypeES7_S7_DpOT_@Base 0.5.3
 (optional=templinst)_ZN2kj1_5Debug5FaultC2IJRA29_KcRKN5capnp3rpc13MessageTarget6ReaderEEEEPS4_iNS_9Exception4TypeESD_SD_DpOT_@Base 0.5.3
 (optional=templinst)_ZN2kj1_5Debug5FaultC2IJRA31_KcEEEPS4_iNS_9Exception4TypeES7_S7_DpOT_@Base 0.5.3
 (optional=templinst)_ZN2kj1_5Debug5FaultC2IJRA31_KcRKN5capnp3rpc10Disembargo6ReaderEEEEPS4_iNS_9Exception4TypeESD_SD_DpOT_@Base 0.5.3
 (optional=templinst)_ZN2kj1_5Debug5FaultC2IJRA32_KcEEEPS4_iNS_9Exception4TypeES7_S7_DpOT_@Base 0.5.3
 (optional=templinst)_ZN2kj1_5Debug5FaultC2IJRA34_KcEEEPS4_iNS_9Exception4TypeES7_S7_DpOT_@Base 0.5.3
 (optional=templinst)_ZN2kj1_5Debug5FaultC2IJRA35_KcRN5capnp4Text6ReaderEEEEPS4_iNS_9Exception4TypeESB_SB_DpOT_@Base 0.5.3
 (optional=templinst)_ZN2kj1_5Debug5FaultC2IJRA36_KcEEEPS4_iNS_9Exception4TypeES7_S7_DpOT_@Base 0.5.3
 (optional=templinst)_ZN2kj1_5Debug5FaultC2IJRA37_KcRPS4_RmEEES7_iNS_9Exception4TypeES7_S7_DpOT_@Base 0.5.3
 (optional=templinst)_ZN2kj1_5Debug5FaultC2IJRA39_KcEEEPS4_iNS_9Exception4TypeES7_S7_DpOT_@Base 0.5.3
 (optional=templinst)_ZN2kj1_5Debug5FaultC2IJRA40_KcEEEPS4_iNS_9Exception4TypeES7_S7_DpOT_@Base 0.5.3
 (optional=templinst)_ZN2kj1_5Debug5FaultC2IJRA42_KcEEEPS4_iNS_9Exception4TypeES7_S7_DpOT_@Base 0.5.3
 (optional=templinst)_ZN2kj1_5Debug5FaultC2IJRA43_KcEEEPS4_iNS_9Exception4TypeES7_S7_DpOT_@Base 0.5.3
 (optional=templinst)_ZN2kj1_5Debug5FaultC2IJRA44_KcEEEPS4_iNS_9Exception4TypeES7_S7_DpOT_@Base 0.5.3
 (optional=templinst)_ZN2kj1_5Debug5FaultC2IJRA46_KcEEEPS4_iNS_9Exception4TypeES7_S7_DpOT_@Base 0.5.3
 (optional=templinst)_ZN2kj1_5Debug5FaultC2IJRA49_KcEEEPS4_iNS_9Exception4TypeES7_S7_DpOT_@Base 0.5.3
 (optional=templinst)_ZN2kj1_5Debug5FaultC2IJRA50_KcjEEEPS4_iNS_9Exception4TypeES7_S7_DpOT_@Base 0.5.3
 (optional=templinst)_ZN2kj1_5Debug5FaultC2IJRA52_KcEEEPS4_iNS_9Exception4TypeES7_S7_DpOT_@Base 0.5.3
 (optional=templinst)_ZN2kj1_5Debug5FaultC2IJRA53_KcEEEPS4_iNS_9Exception4TypeES7_S7_DpOT_@Base 0.5.3
 (optional=templinst)_ZN2kj1_5Debug5FaultC2IJRA55_KcEEEPS4_iNS_9Exception4TypeES7_S7_DpOT_@Base 0.5.3
 (optional=templinst)_ZN2kj1_5Debug5FaultC2IJRA58_KcEEEPS4_iNS_9Exception4TypeES7_S7_DpOT_@Base 0.5.3
 (optional=templinst)_ZN2kj1_5Debug5FaultC2IJRA61_KcEEEPS4_iNS_9Exception4TypeES7_S7_DpOT_@Base 0.5.3
 (optional=templinst)_ZN2kj1_5Debug5FaultC2IJRA66_KcEEEPS4_iNS_9Exception4TypeES7_S7_DpOT_@Base 0.5.3
 (optional=templinst)_ZN2kj1_5Debug5FaultC2IJRA67_KcEEEPS4_iNS_9Exception4TypeES7_S7_DpOT_@Base 0.5.3
 (optional=templinst)_ZN2kj1_5Debug5FaultC2IJRA69_KcEEEPS4_iNS_9Exception4TypeES7_S7_DpOT_@Base 0.5.3
 (optional=templinst)_ZN2kj1_5Debug5FaultC2IJRA76_KcEEEPS4_iNS_9Exception4TypeES7_S7_DpOT_@Base 0.5.3
 (optional=templinst)_ZN2kj1_5Debug5FaultC2IJRA90_KcEEEPS4_iNS_9Exception4TypeES7_S7_DpOT_@Base 0.5.3
 (optional=templinst)_ZN2kj1_5Debug5FaultC2IJRA93_KcEEEPS4_iNS_9Exception4TypeES7_S7_DpOT_@Base 0.5.3
 (optional=templinst)_ZN2kj1_5Debug5FaultC2IJRA95_KcEEEPS4_iNS_9Exception4TypeES7_S7_DpOT_@Base 0.5.3
 (optional=templinst)_ZN2kj1_5Debug5FaultC2IJRA96_KcEEEPS4_iNS_9Exception4TypeES7_S7_DpOT_@Base 0.5.3
 (optional=templinst)_ZN2kj1_6concatIINS_10StringTreeEEEENS_6StringEDpOT_@Base 0.5.3
 (optional=templinst)_ZN2kj1_6concatIINS_8ArrayPtrIKcEEEEENS_6StringEDpOT_@Base 0.5.3
 (optional=templinst)_ZN2kj1_6concatIJNS_10StringTreeEEEENS_6StringEDpOT_@Base 0.5.3
 (optional=templinst)_ZN2kj1_6concatIJNS_8ArrayPtrIKcEEEEENS_6StringEDpOT_@Base 0.5.3
 (optional=templinst)_ZN2kj1_7ForkHubINS0_4VoidEE9addBranchEv@Base 0.5.3
 (optional=templinst)_ZN2kj1_7ForkHubINS0_4VoidEED0Ev@Base 0.5.3
 (optional=templinst)_ZN2kj1_7ForkHubINS0_4VoidEED1Ev@Base 0.5.3
 (optional=templinst)_ZN2kj1_7ForkHubINS0_4VoidEED2Ev@Base 0.5.3
 (optional=templinst)_ZN2kj1_7ForkHubINS_3OwnIN5capnp10ClientHookEEEE9addBranchEv@Base 0.5.3
 (optional=templinst)_ZN2kj1_7ForkHubINS_3OwnIN5capnp10ClientHookEEEED0Ev@Base 0.5.3
 (optional=templinst)_ZN2kj1_7ForkHubINS_3OwnIN5capnp10ClientHookEEEED1Ev@Base 0.5.3
 (optional=templinst)_ZN2kj1_7ForkHubINS_3OwnIN5capnp10ClientHookEEEED2Ev@Base 0.5.3
 (optional=templinst)_ZN2kj1_7ForkHubINS_3OwnIN5capnp12PipelineHookEEEE9addBranchEv@Base 0.5.3
 (optional=templinst)_ZN2kj1_7ForkHubINS_3OwnIN5capnp12PipelineHookEEEED0Ev@Base 0.5.3
 (optional=templinst)_ZN2kj1_7ForkHubINS_3OwnIN5capnp12PipelineHookEEEED1Ev@Base 0.5.3
 (optional=templinst)_ZN2kj1_7ForkHubINS_3OwnIN5capnp12PipelineHookEEEED2Ev@Base 0.5.3
 (optional=templinst)_ZN2kj1_7ForkHubINS_3OwnIZN5capnp12QueuedClient4callEmtONS2_INS3_15CallContextHookEEEE16CallResultHolderEEED0Ev@Base 0.5.3
 (optional=templinst)_ZN2kj1_7ForkHubINS_3OwnIZN5capnp12QueuedClient4callEmtONS2_INS3_15CallContextHookEEEE16CallResultHolderEEED1Ev@Base 0.5.3
 (optional=templinst)_ZN2kj1_7ForkHubINS_3OwnIZN5capnp12QueuedClient4callEmtONS2_INS3_15CallContextHookEEEE16CallResultHolderEEED2Ev@Base 0.5.3
 (optional=templinst)_ZN2kj1_7ForkHubIjED0Ev@Base 0.5.3
 (optional=templinst)_ZN2kj1_7ForkHubIjED1Ev@Base 0.5.3
 (optional=templinst)_ZN2kj1_7ForkHubIjED2Ev@Base 0.5.3
 (optional=templinst)_ZN2kj20PromiseFulfillerPairIN5capnp10AnyPointer8PipelineEED1Ev@Base 0.5.3
 (optional=templinst)_ZN2kj20PromiseFulfillerPairIN5capnp10AnyPointer8PipelineEED2Ev@Base 0.5.3
 (optional=templinst)_ZN2kj20PromiseFulfillerPairINS_3OwnIN5capnp10ClientHookEEEED1Ev@Base 0.5.3
 (optional=templinst)_ZN2kj20PromiseFulfillerPairINS_3OwnIN5capnp10ClientHookEEEED2Ev@Base 0.5.3
 (optional=templinst)_ZN2kj20PromiseFulfillerPairINS_3OwnIN5capnp10VatNetworkINS2_3rpc8twoparty5VatIdENS5_11ProvisionIdENS5_11RecipientIdENS5_15ThirdPartyCapIdENS5_10JoinResultEE10ConnectionEEEED1Ev@Base 0.5.3
 (optional=templinst)_ZN2kj20PromiseFulfillerPairINS_3OwnIN5capnp10VatNetworkINS2_3rpc8twoparty5VatIdENS5_11ProvisionIdENS5_11RecipientIdENS5_15ThirdPartyCapIdENS5_10JoinResultEE10ConnectionEEEED2Ev@Base 0.5.3
 (optional=templinst)_ZN2kj20PromiseFulfillerPairIjED1Ev@Base 0.5.3
 (optional=templinst)_ZN2kj20PromiseFulfillerPairIjED2Ev@Base 0.5.3
 (optional=templinst)_ZN2kj20PromiseFulfillerPairIvED1Ev@Base 0.5.3
 (optional=templinst)_ZN2kj20PromiseFulfillerPairIvED2Ev@Base 0.5.3
 (optional=templinst)_ZN2kj22newPromiseAndFulfillerIvEENS_20PromiseFulfillerPairIT_EEv@Base 0.5.3
 (optional=templinst)_ZN2kj3OwnIN5capnp10ClientHookEEaSEOS3_@Base 0.5.3
 (optional=templinst)_ZN2kj3OwnIN5capnp12PipelineHookEEaSEOS3_@Base 0.5.3
 (optional=templinst)_ZN2kj3OwnINS_1_11PromiseNodeEEaSEOS3_@Base 0.5.3
 (optional=templinst)_ZN2kj3strIIRA31_KcEEENS_6StringEDpOT_@Base 0.5.3
 (optional=templinst)_ZN2kj3strIIRA39_KcEEENS_6StringEDpOT_@Base 0.5.3
 (optional=templinst)_ZN2kj3strIIRA42_KcEEENS_6StringEDpOT_@Base 0.5.3
 (optional=templinst)_ZN2kj3strIIRPKcEEENS_6StringEDpOT_@Base 0.5.3
 (optional=templinst)_ZN2kj3strIIRjEEENS_6StringEDpOT_@Base 0.5.3
 (optional=templinst)_ZN2kj3strIIRmEEENS_6StringEDpOT_@Base 0.5.3
 (optional=templinst)_ZN2kj3strIIRtEEENS_6StringEDpOT_@Base 0.5.3
 (optional=templinst)_ZN2kj3strIJRA31_KcEEENS_6StringEDpOT_@Base 0.5.3
 (optional=templinst)_ZN2kj3strIJRA39_KcEEENS_6StringEDpOT_@Base 0.5.3
 (optional=templinst)_ZN2kj3strIJRA42_KcEEENS_6StringEDpOT_@Base 0.5.3
 (optional=templinst)_ZN2kj3strIJRPKcEEENS_6StringEDpOT_@Base 0.5.3
 (optional=templinst)_ZN2kj3strIJRjEEENS_6StringEDpOT_@Base 0.5.3
 (optional=templinst)_ZN2kj3strIJRmEEENS_6StringEDpOT_@Base 0.5.3
 (optional=templinst)_ZN2kj3strIJRtEEENS_6StringEDpOT_@Base 0.5.3
 (optional=templinst)_ZN2kj4heapIN5capnp11EzRpcClient4Impl13ClientContextEINS_3OwnINS_13AsyncIoStreamEEERNS1_13ReaderOptionsEEEENS5_IT_EEDpOT0_@Base 0.5.3
 (optional=templinst)_ZN2kj4heapIN5capnp11EzRpcClient4Impl13ClientContextEJNS_3OwnINS_13AsyncIoStreamEEERNS1_13ReaderOptionsEEEENS5_IT_EEDpOT0_@Base 0.5.3
 (optional=templinst)_ZN2kj4heapIN5capnp11EzRpcServer4ImplEINS1_10Capability6ClientERNS_9StringPtrERjRNS1_13ReaderOptionsEEEENS_3OwnIT_EEDpOT0_@Base 0.5.3
 (optional=templinst)_ZN2kj4heapIN5capnp11EzRpcServer4ImplEJNS1_10Capability6ClientERNS_9StringPtrERjRNS1_13ReaderOptionsEEEENS_3OwnIT_EEDpOT0_@Base 0.5.3
 (optional=templinst)_ZN2kj4heapIN5capnp14TwoPartyServer18AcceptedConnectionEIRNS1_10Capability6ClientENS_3OwnINS_13AsyncIoStreamEEEEEENS7_IT_EEDpOT0_@Base 0.5.3
 (optional=templinst)_ZN2kj4heapIN5capnp14TwoPartyServer18AcceptedConnectionEJRNS1_10Capability6ClientENS_3OwnINS_13AsyncIoStreamEEEEEENS7_IT_EEDpOT0_@Base 0.5.3
 (optional=templinst)_ZN2kj4heapINS_1_10ForkBranchINS1_4VoidEEEINS_3OwnINS1_7ForkHubIS3_EEEEEEENS5_IT_EEDpOT0_@Base 0.5.3
 (optional=templinst)_ZN2kj4heapINS_1_10ForkBranchINS1_4VoidEEEJNS_3OwnINS1_7ForkHubIS3_EEEEEEENS5_IT_EEDpOT0_@Base 0.5.3
 (optional=templinst)_ZN2kj4heapINS_1_10ForkBranchINS_3OwnIN5capnp10ClientHookEEEEEINS3_INS1_7ForkHubIS6_EEEEEEENS3_IT_EEDpOT0_@Base 0.5.3
 (optional=templinst)_ZN2kj4heapINS_1_10ForkBranchINS_3OwnIN5capnp10ClientHookEEEEEJNS3_INS1_7ForkHubIS6_EEEEEEENS3_IT_EEDpOT0_@Base 0.5.3
 (optional=templinst)_ZN2kj4heapINS_1_10ForkBranchINS_3OwnIN5capnp12PipelineHookEEEEEINS3_INS1_7ForkHubIS6_EEEEEEENS3_IT_EEDpOT0_@Base 0.5.3
 (optional=templinst)_ZN2kj4heapINS_1_10ForkBranchINS_3OwnIN5capnp12PipelineHookEEEEEJNS3_INS1_7ForkHubIS6_EEEEEEENS3_IT_EEDpOT0_@Base 0.5.3
 (optional=templinst)_ZN2kj4heapINS_1_10ForkBranchINS_3OwnIZN5capnp12QueuedClient4callEmtONS3_INS4_15CallContextHookEEEE16CallResultHolderEEEEINS3_INS1_7ForkHubISA_EEEEEEENS3_IT_EEDpOT0_@Base 0.5.3
 (optional=templinst)_ZN2kj4heapINS_1_10ForkBranchINS_3OwnIZN5capnp12QueuedClient4callEmtONS3_INS4_15CallContextHookEEEE16CallResultHolderEEEEJNS3_INS1_7ForkHubISA_EEEEEEENS3_IT_EEDpOT0_@Base 0.5.3
 (optional=templinst)_ZN2kj4heapINS_1_10ForkBranchIjEEINS_3OwnINS1_7ForkHubIjEEEEEEENS4_IT_EEDpOT0_@Base 0.5.3
 (optional=templinst)_ZN2kj4heapINS_1_10ForkBranchIjEEJNS_3OwnINS1_7ForkHubIjEEEEEEENS4_IT_EEDpOT0_@Base 0.5.3
 (optional=templinst)_ZN2kj4heapINS_1_16ChainPromiseNodeEINS_3OwnINS1_11PromiseNodeEEEEEENS3_IT_EEDpOT0_@Base 0.5.3
 (optional=templinst)_ZN2kj4heapINS_1_16ChainPromiseNodeEJNS_3OwnINS1_11PromiseNodeEEEEEENS3_IT_EEDpOT0_@Base 0.5.3
 (optional=templinst)_ZN2kj4heapINS_1_16EagerPromiseNodeINS1_4VoidEEEINS_3OwnINS1_11PromiseNodeEEEEEENS5_IT_EEDpOT0_@Base 0.5.3
 (optional=templinst)_ZN2kj4heapINS_1_16EagerPromiseNodeINS1_4VoidEEEJNS_3OwnINS1_11PromiseNodeEEEEEENS5_IT_EEDpOT0_@Base 0.5.3
 (optional=templinst)_ZN2kj4heapINS_1_20ImmediatePromiseNodeINS1_4VoidEEEIS3_EEENS_3OwnIT_EEDpOT0_@Base 0.5.3
 (optional=templinst)_ZN2kj4heapINS_1_20ImmediatePromiseNodeINS1_4VoidEEEJS3_EEENS_3OwnIT_EEDpOT0_@Base 0.5.3
 (optional=templinst)_ZN2kj4heapINS_1_20ImmediatePromiseNodeIPvEEIS3_EEENS_3OwnIT_EEDpOT0_@Base 0.5.3
 (optional=templinst)_ZN2kj4heapINS_1_20ImmediatePromiseNodeIPvEEJS3_EEENS_3OwnIT_EEDpOT0_@Base 0.5.3
 (optional=templinst)_ZN2kj4heapINS_1_20ImmediatePromiseNodeIbEEIbEEENS_3OwnIT_EEDpOT0_@Base 0.5.3
 (optional=templinst)_ZN2kj4heapINS_1_20ImmediatePromiseNodeIbEEJbEEENS_3OwnIT_EEDpOT0_@Base 0.5.3
 (optional=templinst)_ZN2kj4heapINS_1_20ImmediatePromiseNodeIjEEIjEEENS_3OwnIT_EEDpOT0_@Base 0.5.3
 (optional=templinst)_ZN2kj4heapINS_1_20ImmediatePromiseNodeIjEEJjEEENS_3OwnIT_EEDpOT0_@Base 0.5.3
 (optional=templinst)_ZN2kj4heapINS_1_24ExclusiveJoinPromiseNodeEINS_3OwnINS1_11PromiseNodeEEES5_EEENS3_IT_EEDpOT0_@Base 0.5.3
 (optional=templinst)_ZN2kj4heapINS_1_24ExclusiveJoinPromiseNodeEJNS_3OwnINS1_11PromiseNodeEEES5_EEENS3_IT_EEDpOT0_@Base 0.5.3
 (optional=templinst)_ZN2kj4heapINS_1_26ImmediateBrokenPromiseNodeEINS_9ExceptionEEEENS_3OwnIT_EEDpOT0_@Base 0.5.3
 (optional=templinst)_ZN2kj4heapINS_1_26ImmediateBrokenPromiseNodeEJNS_9ExceptionEEEENS_3OwnIT_EEDpOT0_@Base 0.5.3
 (optional=templinst)_ZN2kj5ArrayIjEaSEOS1_@Base 0.5.3
 (optional=templinst)_ZN2kj5OneOfIINS_3OwnIN5capnp1_14VatNetworkBase10ConnectionEEENS_9ExceptionEEE7destroyEv@Base 0.5.3
 (optional=templinst)_ZN2kj5OneOfIJNS_3OwnIN5capnp1_14VatNetworkBase10ConnectionEEENS_9ExceptionEEE7destroyEv@Base 0.5.3
 (optional=templinst)_ZN2kj7PromiseINS_3OwnIN5capnp10ClientHookEEEE6attachIIS4_EEES5_DpOT_@Base 0.5.3
 (optional=templinst)_ZN2kj7PromiseINS_3OwnIN5capnp10ClientHookEEEE6attachIJS4_EEES5_DpOT_@Base 0.5.3
 (optional=templinst)_ZN2kj7PromiseINS_3OwnINS_13AsyncIoStreamEEEE6attachIINS1_INS_14NetworkAddressEEEEEES4_DpOT_@Base 0.5.3
 (optional=templinst)_ZN2kj7PromiseINS_3OwnINS_13AsyncIoStreamEEEE6attachIJNS1_INS_14NetworkAddressEEEEEES4_DpOT_@Base 0.5.3
 (optional=templinst)_ZN2kj7PromiseINS_3OwnINS_14NetworkAddressEEEE4thenIZN5capnp11EzRpcClient4ImplC4ENS_9StringPtrEjNS6_13ReaderOptionsEEUlOS3_E_NS_1_18PropagateExceptionEEENS0_INSD_13JoinPromises_INSD_11ReturnType_IT_S3_E4TypeEE4TypeEEEOSH_OT0_@Base 0.5.3
 (optional=templinst)_ZN2kj7PromiseINS_3OwnIZN5capnp12QueuedClient4callEmtONS1_INS2_15CallContextHookEEEE16CallResultHolderEEE4thenIZNS3_4callEmtS6_EUlOS8_E1_NS_1_18PropagateExceptionEEENS0_INSD_13JoinPromises_INSD_11ReturnType_IT_S8_E4TypeEE4TypeEEEOSH_OT0_@Base 0.5.3
 (optional=templinst)_ZN2kj7PromiseIvE4thenIZN5capnp11LocalClient4callEmtONS_3OwnINS3_15CallContextHookEEEEUlvE_NS_1_18PropagateExceptionEEENS0_INSA_13JoinPromises_INSA_11ReturnType_IT_vE4TypeEE4TypeEEEOSE_OT0_@Base 0.5.3
 (optional=templinst)_ZN2kj7PromiseIvE4thenIZN5capnp18TwoPartyVatNetwork19OutgoingMessageImpl4sendEvEUlvE_NS_1_18PropagateExceptionEEENS0_INS7_13JoinPromises_INS7_11ReturnType_IT_vE4TypeEE4TypeEEEOSB_OT0_@Base 0.5.3
 (optional=templinst)_ZN2kj7PromiseIvE6attachIINS_3OwnIN5capnp11LocalClientEEEEEES1_DpOT_@Base 0.5.3
 (optional=templinst)_ZN2kj7PromiseIvE6attachIINS_3OwnIN5capnp15CallContextHookEEEEEES1_DpOT_@Base 0.5.3
 (optional=templinst)_ZN2kj7PromiseIvE6attachIINS_3OwnIN5capnp16LocalCallContextEEEEEES1_DpOT_@Base 0.5.3
 (optional=templinst)_ZN2kj7PromiseIvE6attachIINS_3OwnIN5capnp18TwoPartyVatNetwork19OutgoingMessageImplEEEEEES1_DpOT_@Base 0.5.3
 (optional=templinst)_ZN2kj7PromiseIvE6attachIINS_3OwnIN5capnp1_14VatNetworkBase10ConnectionEEEEEES1_DpOT_@Base 0.5.3
 (optional=templinst)_ZN2kj7PromiseIvE6attachIJNS_3OwnIN5capnp11LocalClientEEEEEES1_DpOT_@Base 0.5.3
 (optional=templinst)_ZN2kj7PromiseIvE6attachIJNS_3OwnIN5capnp15CallContextHookEEEEEES1_DpOT_@Base 0.5.3
 (optional=templinst)_ZN2kj7PromiseIvE6attachIJNS_3OwnIN5capnp16LocalCallContextEEEEEES1_DpOT_@Base 0.5.3
 (optional=templinst)_ZN2kj7PromiseIvE6attachIJNS_3OwnIN5capnp18TwoPartyVatNetwork19OutgoingMessageImplEEEEEES1_DpOT_@Base 0.5.3
 (optional=templinst)_ZN2kj7PromiseIvE6attachIJNS_3OwnIN5capnp1_14VatNetworkBase10ConnectionEEEEEES1_DpOT_@Base 0.5.3
 (optional=templinst)_ZN2kj7PromiseIvE6detachIZN5capnp12LocalRequest4sendEvEUlONS_9ExceptionEE_EEvOT_@Base 0.5.3
 _ZN2kj9ExceptionC1EOS0_@Base 0.5.3
 _ZN2kj9ExceptionC2EOS0_@Base 0.5.3
 _ZN5capnp10AnyPointer8PipelineD1Ev@Base 0.5.3
 _ZN5capnp10AnyPointer8PipelineD2Ev@Base 0.5.3
 _ZN5capnp10Capability13_capnpPrivate5brandE@Base 0.5.3
 _ZN5capnp10Capability6Client15makeLocalClientEON2kj3OwnINS0_6ServerEEE@Base 0.5.3
 _ZN5capnp10Capability6ClientC1EDn@Base 0.5.3
 _ZN5capnp10Capability6ClientC1EON2kj9ExceptionE@Base 0.5.3
 _ZN5capnp10Capability6ClientC2EDn@Base 0.5.3
 _ZN5capnp10Capability6ClientC2EON2kj9ExceptionE@Base 0.5.3
 _ZN5capnp10Capability6Server21internalUnimplementedEPKcS3_mt@Base 0.5.3
 _ZN5capnp10Capability6Server21internalUnimplementedEPKcm@Base 0.5.3
 _ZN5capnp10Capability6Server21internalUnimplementedEPKcmt@Base 0.5.3
 _ZN5capnp10ClientHook12whenResolvedEv@Base 0.5.3
 _ZN5capnp10ClientHook14getLocalServerERNS_1_23CapabilityServerSetBaseE@Base 0.5.3
 _ZN5capnp10ClientHook22VoidPromiseAndPipelineD1Ev@Base 0.5.3
 _ZN5capnp10ClientHook22VoidPromiseAndPipelineD2Ev@Base 0.5.3
 _ZN5capnp10ClientHookC1Ev@Base 0.5.3
 _ZN5capnp10ClientHookC2Ev@Base 0.5.3
 (optional=templinst)_ZN5capnp10VatNetworkINS_3rpc8twoparty5VatIdENS2_11ProvisionIdENS2_11RecipientIdENS2_15ThirdPartyCapIdENS2_10JoinResultEE10baseAcceptEv@Base 0.5.3
 (optional=templinst)_ZN5capnp10VatNetworkINS_3rpc8twoparty5VatIdENS2_11ProvisionIdENS2_11RecipientIdENS2_15ThirdPartyCapIdENS2_10JoinResultEE11baseConnectENS_1_12StructReaderE@Base 0.5.3
 _ZN5capnp11EzRpcClient12getWaitScopeEv@Base 0.5.3
 _ZN5capnp11EzRpcClient13getIoProviderEv@Base 0.5.3
 _ZN5capnp11EzRpcClient21getLowLevelIoProviderEv@Base 0.5.3
 _ZN5capnp11EzRpcClient4ImplC1EiNS_13ReaderOptionsE@Base 0.5.3
 _ZN5capnp11EzRpcClient4ImplC2EiNS_13ReaderOptionsE@Base 0.5.3
 _ZN5capnp11EzRpcClient7getMainEv@Base 0.5.3
 _ZN5capnp11EzRpcClient9importCapEN2kj9StringPtrE@Base 0.5.3
 _ZN5capnp11EzRpcClientC1EN2kj9StringPtrEjNS_13ReaderOptionsE@Base 0.5.3
 _ZN5capnp11EzRpcClientC1EPK8sockaddrjNS_13ReaderOptionsE@Base 0.5.3
 _ZN5capnp11EzRpcClientC1EiNS_13ReaderOptionsE@Base 0.5.3
 _ZN5capnp11EzRpcClientC2EN2kj9StringPtrEjNS_13ReaderOptionsE@Base 0.5.3
 _ZN5capnp11EzRpcClientC2EPK8sockaddrjNS_13ReaderOptionsE@Base 0.5.3
 _ZN5capnp11EzRpcClientC2EiNS_13ReaderOptionsE@Base 0.5.3
 _ZN5capnp11EzRpcClientD1Ev@Base 0.5.3
 _ZN5capnp11EzRpcClientD2Ev@Base 0.5.3
 _ZN5capnp11EzRpcServer12getWaitScopeEv@Base 0.5.3
 _ZN5capnp11EzRpcServer13getIoProviderEv@Base 0.5.3
 _ZN5capnp11EzRpcServer21getLowLevelIoProviderEv@Base 0.5.3
 _ZN5capnp11EzRpcServer4Impl10taskFailedEON2kj9ExceptionE@Base 0.5.3
 _ZN5capnp11EzRpcServer4Impl11ExportedCapD1Ev@Base 0.5.3
 _ZN5capnp11EzRpcServer4Impl11ExportedCapD2Ev@Base 0.5.3
 _ZN5capnp11EzRpcServer4Impl7restoreENS_10AnyPointer6ReaderE@Base 0.5.3
 _ZN5capnp11EzRpcServer4ImplC1ENS_10Capability6ClientEN2kj9StringPtrEjNS_13ReaderOptionsE@Base 0.5.3
 _ZN5capnp11EzRpcServer4ImplC2ENS_10Capability6ClientEN2kj9StringPtrEjNS_13ReaderOptionsE@Base 0.5.3
 _ZN5capnp11EzRpcServer7getPortEv@Base 0.5.3
 _ZN5capnp11EzRpcServer9exportCapEN2kj9StringPtrENS_10Capability6ClientE@Base 0.5.3
 _ZN5capnp11EzRpcServerC1EN2kj9StringPtrEjNS_13ReaderOptionsE@Base 0.5.3
 _ZN5capnp11EzRpcServerC1ENS_10Capability6ClientEN2kj9StringPtrEjNS_13ReaderOptionsE@Base 0.5.3
 _ZN5capnp11EzRpcServerC1ENS_10Capability6ClientEP8sockaddrjNS_13ReaderOptionsE@Base 0.5.3
 _ZN5capnp11EzRpcServerC1ENS_10Capability6ClientEijNS_13ReaderOptionsE@Base 0.5.3
 _ZN5capnp11EzRpcServerC1EP8sockaddrjNS_13ReaderOptionsE@Base 0.5.3
 _ZN5capnp11EzRpcServerC1EijNS_13ReaderOptionsE@Base 0.5.3
 _ZN5capnp11EzRpcServerC2EN2kj9StringPtrEjNS_13ReaderOptionsE@Base 0.5.3
 _ZN5capnp11EzRpcServerC2ENS_10Capability6ClientEN2kj9StringPtrEjNS_13ReaderOptionsE@Base 0.5.3
 _ZN5capnp11EzRpcServerC2ENS_10Capability6ClientEP8sockaddrjNS_13ReaderOptionsE@Base 0.5.3
 _ZN5capnp11EzRpcServerC2ENS_10Capability6ClientEijNS_13ReaderOptionsE@Base 0.5.3
 _ZN5capnp11EzRpcServerC2EP8sockaddrjNS_13ReaderOptionsE@Base 0.5.3
 _ZN5capnp11EzRpcServerC2EijNS_13ReaderOptionsE@Base 0.5.3
 _ZN5capnp11EzRpcServerD1Ev@Base 0.5.3
 _ZN5capnp11EzRpcServerD2Ev@Base 0.5.3
 _ZN5capnp11LocalClient11getResolvedEv@Base 0.5.3
 _ZN5capnp11LocalClient14getLocalServerERNS_1_23CapabilityServerSetBaseE@Base 0.5.3
 _ZN5capnp11LocalClient16whenMoreResolvedEv@Base 0.5.3
 _ZN5capnp11LocalClient4callEmtON2kj3OwnINS_15CallContextHookEEE@Base 0.5.3
 _ZN5capnp11LocalClient6addRefEv@Base 0.5.3
 _ZN5capnp11LocalClient7newCallEmtN2kj5MaybeINS_11MessageSizeEEE@Base 0.5.3
 _ZN5capnp11LocalClient8getBrandEv@Base 0.5.3
 _ZN5capnp11LocalClientD0Ev@Base 0.5.3
 _ZN5capnp11LocalClientD1Ev@Base 0.5.3
 _ZN5capnp11LocalClientD2Ev@Base 0.5.3
 _ZN5capnp11readMessageERN2kj16AsyncInputStreamENS_13ReaderOptionsENS0_8ArrayPtrINS_4wordEEE@Base 0.5.3
 _ZN5capnp12EzRpcContextD0Ev@Base 0.5.3
 _ZN5capnp12EzRpcContextD1Ev@Base 0.5.3
 _ZN5capnp12EzRpcContextD2Ev@Base 0.5.3
 _ZN5capnp12LocalRequest4sendEv@Base 0.5.3
 _ZN5capnp12LocalRequest8getBrandEv@Base 0.5.3
 _ZN5capnp12QueuedClient11getResolvedEv@Base 0.5.3
 _ZN5capnp12QueuedClient16whenMoreResolvedEv@Base 0.5.3
 _ZN5capnp12QueuedClient4callEmtON2kj3OwnINS_15CallContextHookEEE@Base 0.5.3
 _ZN5capnp12QueuedClient6addRefEv@Base 0.5.3
 _ZN5capnp12QueuedClient7newCallEmtN2kj5MaybeINS_11MessageSizeEEE@Base 0.5.3
 _ZN5capnp12QueuedClient8getBrandEv@Base 0.5.3
 _ZN5capnp12QueuedClientC1EON2kj7PromiseINS1_3OwnINS_10ClientHookEEEEE@Base 0.5.3
 _ZN5capnp12QueuedClientC2EON2kj7PromiseINS1_3OwnINS_10ClientHookEEEEE@Base 0.5.3
 _ZN5capnp12QueuedClientD0Ev@Base 0.5.3
 _ZN5capnp12QueuedClientD1Ev@Base 0.5.3
 _ZN5capnp12QueuedClientD2Ev@Base 0.5.3
 (optional=templinst)_ZN5capnp12RealmGatewayINS_10AnyPointerES1_S1_S1_E6Client13exportRequestEN2kj5MaybeINS_11MessageSizeEEE@Base 0.5.3
 (optional=templinst)_ZN5capnp12RealmGatewayINS_10AnyPointerES1_S1_S1_E6Client13importRequestEN2kj5MaybeINS_11MessageSizeEEE@Base 0.5.3
 _ZN5capnp12ResponseHookD0Ev@Base 0.5.3
 _ZN5capnp12ResponseHookD1Ev@Base 0.5.3
 _ZN5capnp12ResponseHookD2Ev@Base 0.5.3
 _ZN5capnp12newBrokenCapEN2kj9StringPtrE@Base 0.5.3
 _ZN5capnp12newBrokenCapEON2kj9ExceptionE@Base 0.5.3
 _ZN5capnp12writeMessageERN2kj17AsyncOutputStreamENS0_8ArrayPtrIKNS3_IKNS_4wordEEEEE@Base 0.5.3
 _ZN5capnp13LocalPipeline15getPipelinedCapEN2kj8ArrayPtrIKNS_10PipelineOpEEE@Base 0.5.3
 _ZN5capnp13LocalPipeline6addRefEv@Base 0.5.3
 _ZN5capnp13LocalPipelineD0Ev@Base 0.5.3
 _ZN5capnp13LocalPipelineD1Ev@Base 0.5.3
 _ZN5capnp13LocalPipelineD2Ev@Base 0.5.3
 _ZN5capnp13LocalResponseD0Ev@Base 0.5.3
 _ZN5capnp13LocalResponseD1Ev@Base 0.5.3
 _ZN5capnp13LocalResponseD2Ev@Base 0.5.3
 _ZN5capnp13MessageReader12initCapTableEN2kj5ArrayINS1_5MaybeINS1_3OwnINS_10ClientHookEEEEEEE@Base 0.5.3
 (optional=templinst)_ZN5capnp13RemotePromiseINS_10AnyPointerEED1Ev@Base 0.5.3
 (optional=templinst)_ZN5capnp13RemotePromiseINS_10AnyPointerEED2Ev@Base 0.5.3
 _ZN5capnp13connectAttachEON2kj3OwnINS0_14NetworkAddressEEE@Base 0.5.3
 _ZN5capnp14QueuedPipeline15getPipelinedCapEN2kj8ArrayPtrIKNS_10PipelineOpEEE@Base 0.5.3
 _ZN5capnp14QueuedPipeline15getPipelinedCapEON2kj5ArrayINS_10PipelineOpEEE@Base 0.5.3
 _ZN5capnp14QueuedPipeline6addRefEv@Base 0.5.3
 _ZN5capnp14QueuedPipelineD0Ev@Base 0.5.3
 _ZN5capnp14QueuedPipelineD1Ev@Base 0.5.3
 _ZN5capnp14QueuedPipelineD2Ev@Base 0.5.3
 _ZN5capnp14TwoPartyClient9bootstrapEv@Base 0.5.3
 _ZN5capnp14TwoPartyClientC1ERN2kj13AsyncIoStreamE@Base 0.5.3
 _ZN5capnp14TwoPartyClientC2ERN2kj13AsyncIoStreamE@Base 0.5.3
 _ZN5capnp14TwoPartyServer10taskFailedEON2kj9ExceptionE@Base 0.5.3
 _ZN5capnp14TwoPartyServer6listenERN2kj18ConnectionReceiverE@Base 0.5.3
 _ZN5capnp14TwoPartyServerC1ENS_10Capability6ClientE@Base 0.5.3
 _ZN5capnp14TwoPartyServerC2ENS_10Capability6ClientE@Base 0.5.3
 _ZN5capnp14tryReadMessageERN2kj16AsyncInputStreamENS_13ReaderOptionsENS0_8ArrayPtrINS_4wordEEE@Base 0.5.3
 _ZN5capnp16LocalCallContext10getResultsEN2kj5MaybeINS_11MessageSizeEEE@Base 0.5.3
 _ZN5capnp16LocalCallContext10onTailCallEv@Base 0.5.3
 _ZN5capnp16LocalCallContext13releaseParamsEv@Base 0.5.3
 _ZN5capnp16LocalCallContext14directTailCallEON2kj3OwnINS_11RequestHookEEE@Base 0.5.3
 _ZN5capnp16LocalCallContext17allowCancellationEv@Base 0.5.3
 _ZN5capnp16LocalCallContext6addRefEv@Base 0.5.3
 _ZN5capnp16LocalCallContext8tailCallEON2kj3OwnINS_11RequestHookEEE@Base 0.5.3
 _ZN5capnp16LocalCallContext9getParamsEv@Base 0.5.3
 _ZN5capnp16LocalCallContextD0Ev@Base 0.5.3
 _ZN5capnp16LocalCallContextD1Ev@Base 0.5.3
 _ZN5capnp16LocalCallContextD2Ev@Base 0.5.3
 _ZN5capnp16newBrokenRequestEON2kj9ExceptionENS0_5MaybeINS_11MessageSizeEEE@Base 0.5.3
 _ZN5capnp17DynamicCapability6Client10newRequestEN2kj9StringPtrENS2_5MaybeINS_11MessageSizeEEE@Base 0.5.3
 _ZN5capnp17DynamicCapability6Client10newRequestENS_15InterfaceSchema6MethodEN2kj5MaybeINS_11MessageSizeEEE@Base 0.5.3
 _ZN5capnp17DynamicCapability6Client6upcastENS_15InterfaceSchemaE@Base 0.5.3
 _ZN5capnp17DynamicCapability6Server12dispatchCallEmtNS_11CallContextINS_10AnyPointerES3_EE@Base 0.5.3
 (optional=templinst)_ZN5capnp17SturdyRefRestorerINS_10AnyPointerEE11baseRestoreENS1_6ReaderE@Base 0.5.3
 _ZN5capnp17newBrokenPipelineEON2kj9ExceptionE@Base 0.5.3
 _ZN5capnp18TwoPartyVatNetwork12asConnectionEv@Base 0.5.3
 _ZN5capnp18TwoPartyVatNetwork18newOutgoingMessageEj@Base 0.5.3
 _ZN5capnp18TwoPartyVatNetwork19IncomingMessageImpl12initCapTableEON2kj5ArrayINS2_5MaybeINS2_3OwnINS_10ClientHookEEEEEEE@Base 0.5.3
 _ZN5capnp18TwoPartyVatNetwork19IncomingMessageImpl7getBodyEv@Base 0.5.3
 _ZN5capnp18TwoPartyVatNetwork19OutgoingMessageImpl11getCapTableEv@Base 0.5.3
 _ZN5capnp18TwoPartyVatNetwork19OutgoingMessageImpl4sendEv@Base 0.5.3
 _ZN5capnp18TwoPartyVatNetwork19OutgoingMessageImpl7getBodyEv@Base 0.5.3
 _ZN5capnp18TwoPartyVatNetwork19OutgoingMessageImplD0Ev@Base 0.5.3
 _ZN5capnp18TwoPartyVatNetwork19OutgoingMessageImplD1Ev@Base 0.5.3
 _ZN5capnp18TwoPartyVatNetwork19OutgoingMessageImplD2Ev@Base 0.5.3
 _ZN5capnp18TwoPartyVatNetwork22receiveIncomingMessageEv@Base 0.5.3
 _ZN5capnp18TwoPartyVatNetwork6acceptEv@Base 0.5.3
 _ZN5capnp18TwoPartyVatNetwork7connectENS_3rpc8twoparty5VatId6ReaderE@Base 0.5.3
 _ZN5capnp18TwoPartyVatNetwork8shutdownEv@Base 0.5.3
 _ZN5capnp18TwoPartyVatNetworkC1ERN2kj13AsyncIoStreamENS_7schemas21Side_9fd69ebc87b9719cENS_13ReaderOptionsE@Base 0.5.3
 _ZN5capnp18TwoPartyVatNetworkC2ERN2kj13AsyncIoStreamENS_7schemas21Side_9fd69ebc87b9719cENS_13ReaderOptionsE@Base 0.5.3
 _ZN5capnp18TwoPartyVatNetworkD1Ev@Base 0.5.3
 _ZN5capnp18TwoPartyVatNetworkD2Ev@Base 0.5.3
 _ZN5capnp1_13RpcSystemBase11baseRestoreENS0_12StructReaderENS_10AnyPointer6ReaderE@Base 0.5.3
 _ZN5capnp1_13RpcSystemBase13baseBootstrapENS0_12StructReaderE@Base 0.5.3
 _ZN5capnp1_13RpcSystemBase4Impl10acceptLoopEv@Base 0.5.3
 _ZN5capnp1_13RpcSystemBase4Impl10taskFailedEON2kj9ExceptionE@Base 0.5.3
 _ZN5capnp1_13RpcSystemBaseC1EOS1_@Base 0.5.3
 _ZN5capnp1_13RpcSystemBaseC1ERNS0_14VatNetworkBaseEN2kj5MaybeINS_10Capability6ClientEEENS5_INS_12RealmGatewayINS_10AnyPointerESA_SA_SA_E6ClientEEE@Base 0.5.3
 _ZN5capnp1_13RpcSystemBaseC1ERNS0_14VatNetworkBaseERNS0_21SturdyRefRestorerBaseE@Base 0.5.3
 _ZN5capnp1_13RpcSystemBaseC2EOS1_@Base 0.5.3
 _ZN5capnp1_13RpcSystemBaseC2ERNS0_14VatNetworkBaseEN2kj5MaybeINS_10Capability6ClientEEENS5_INS_12RealmGatewayINS_10AnyPointerESA_SA_SA_E6ClientEEE@Base 0.5.3
 _ZN5capnp1_13RpcSystemBaseC2ERNS0_14VatNetworkBaseERNS0_21SturdyRefRestorerBaseE@Base 0.5.3
 _ZN5capnp1_13RpcSystemBaseD1Ev@Base 0.5.3
 _ZN5capnp1_13RpcSystemBaseD2Ev@Base 0.5.3
 (optional=templinst)_ZN5capnp1_14PointerHelpersINS_3rpc7MessageELNS_4KindE3EE4initENS0_14PointerBuilderE@Base 0.5.3
 _ZN5capnp1_23CapabilityServerSetBase11addInternalEON2kj3OwnINS_10Capability6ServerEEEPv@Base 0.5.3
 _ZN5capnp1_23CapabilityServerSetBase22getLocalServerInternalERNS_10Capability6ClientE@Base 0.5.3
 _ZN5capnp21newLocalPromiseClientEON2kj7PromiseINS0_3OwnINS_10ClientHookEEEEE@Base 0.5.3
 _ZN5capnp3rpc10Disembargo13_capnpPrivate12dataWordSizeE@Base 0.5.3
 _ZN5capnp3rpc10Disembargo13_capnpPrivate12pointerCountE@Base 0.5.3
 _ZN5capnp3rpc10Disembargo13_capnpPrivate4kindE@Base 0.5.3
 _ZN5capnp3rpc10Disembargo13_capnpPrivate5brandE@Base 0.5.3
 _ZN5capnp3rpc10Disembargo13_capnpPrivate6schemaE@Base 0.5.3
 _ZN5capnp3rpc10Disembargo7Context13_capnpPrivate12dataWordSizeE@Base 0.5.3
 _ZN5capnp3rpc10Disembargo7Context13_capnpPrivate12pointerCountE@Base 0.5.3
 _ZN5capnp3rpc10Disembargo7Context13_capnpPrivate4kindE@Base 0.5.3
 _ZN5capnp3rpc10Disembargo7Context13_capnpPrivate5brandE@Base 0.5.3
 _ZN5capnp3rpc10Disembargo7Context13_capnpPrivate6schemaE@Base 0.5.3
 _ZN5capnp3rpc13CapDescriptor13_capnpPrivate12dataWordSizeE@Base 0.5.3
 _ZN5capnp3rpc13CapDescriptor13_capnpPrivate12pointerCountE@Base 0.5.3
 _ZN5capnp3rpc13CapDescriptor13_capnpPrivate4kindE@Base 0.5.3
 _ZN5capnp3rpc13CapDescriptor13_capnpPrivate5brandE@Base 0.5.3
 _ZN5capnp3rpc13CapDescriptor13_capnpPrivate6schemaE@Base 0.5.3
 _ZN5capnp3rpc13MessageTarget13_capnpPrivate12dataWordSizeE@Base 0.5.3
 _ZN5capnp3rpc13MessageTarget13_capnpPrivate12pointerCountE@Base 0.5.3
 _ZN5capnp3rpc13MessageTarget13_capnpPrivate4kindE@Base 0.5.3
 _ZN5capnp3rpc13MessageTarget13_capnpPrivate5brandE@Base 0.5.3
 _ZN5capnp3rpc13MessageTarget13_capnpPrivate6schemaE@Base 0.5.3
 _ZN5capnp3rpc14PromisedAnswer13_capnpPrivate12dataWordSizeE@Base 0.5.3
 _ZN5capnp3rpc14PromisedAnswer13_capnpPrivate12pointerCountE@Base 0.5.3
 _ZN5capnp3rpc14PromisedAnswer13_capnpPrivate4kindE@Base 0.5.3
 _ZN5capnp3rpc14PromisedAnswer13_capnpPrivate5brandE@Base 0.5.3
 _ZN5capnp3rpc14PromisedAnswer13_capnpPrivate6schemaE@Base 0.5.3
 _ZN5capnp3rpc14PromisedAnswer2Op13_capnpPrivate12dataWordSizeE@Base 0.5.3
 _ZN5capnp3rpc14PromisedAnswer2Op13_capnpPrivate12pointerCountE@Base 0.5.3
 _ZN5capnp3rpc14PromisedAnswer2Op13_capnpPrivate4kindE@Base 0.5.3
 _ZN5capnp3rpc14PromisedAnswer2Op13_capnpPrivate5brandE@Base 0.5.3
 _ZN5capnp3rpc14PromisedAnswer2Op13_capnpPrivate6schemaE@Base 0.5.3
 _ZN5capnp3rpc23ThirdPartyCapDescriptor13_capnpPrivate12dataWordSizeE@Base 0.5.3
 _ZN5capnp3rpc23ThirdPartyCapDescriptor13_capnpPrivate12pointerCountE@Base 0.5.3
 _ZN5capnp3rpc23ThirdPartyCapDescriptor13_capnpPrivate4kindE@Base 0.5.3
 _ZN5capnp3rpc23ThirdPartyCapDescriptor13_capnpPrivate5brandE@Base 0.5.3
 _ZN5capnp3rpc23ThirdPartyCapDescriptor13_capnpPrivate6schemaE@Base 0.5.3
 _ZN5capnp3rpc4Call13SendResultsTo13_capnpPrivate12dataWordSizeE@Base 0.5.3
 _ZN5capnp3rpc4Call13SendResultsTo13_capnpPrivate12pointerCountE@Base 0.5.3
 _ZN5capnp3rpc4Call13SendResultsTo13_capnpPrivate4kindE@Base 0.5.3
 _ZN5capnp3rpc4Call13SendResultsTo13_capnpPrivate5brandE@Base 0.5.3
 _ZN5capnp3rpc4Call13SendResultsTo13_capnpPrivate6schemaE@Base 0.5.3
 _ZN5capnp3rpc4Call13_capnpPrivate12dataWordSizeE@Base 0.5.3
 _ZN5capnp3rpc4Call13_capnpPrivate12pointerCountE@Base 0.5.3
 _ZN5capnp3rpc4Call13_capnpPrivate4kindE@Base 0.5.3
 _ZN5capnp3rpc4Call13_capnpPrivate5brandE@Base 0.5.3
 _ZN5capnp3rpc4Call13_capnpPrivate6schemaE@Base 0.5.3
 _ZN5capnp3rpc4Join13_capnpPrivate12dataWordSizeE@Base 0.5.3
 _ZN5capnp3rpc4Join13_capnpPrivate12pointerCountE@Base 0.5.3
 _ZN5capnp3rpc4Join13_capnpPrivate4kindE@Base 0.5.3
 _ZN5capnp3rpc4Join13_capnpPrivate5brandE@Base 0.5.3
 _ZN5capnp3rpc4Join13_capnpPrivate6schemaE@Base 0.5.3
 _ZN5capnp3rpc6Accept13_capnpPrivate12dataWordSizeE@Base 0.5.3
 _ZN5capnp3rpc6Accept13_capnpPrivate12pointerCountE@Base 0.5.3
 _ZN5capnp3rpc6Accept13_capnpPrivate4kindE@Base 0.5.3
 _ZN5capnp3rpc6Accept13_capnpPrivate5brandE@Base 0.5.3
 _ZN5capnp3rpc6Accept13_capnpPrivate6schemaE@Base 0.5.3
 _ZN5capnp3rpc6Finish13_capnpPrivate12dataWordSizeE@Base 0.5.3
 _ZN5capnp3rpc6Finish13_capnpPrivate12pointerCountE@Base 0.5.3
 _ZN5capnp3rpc6Finish13_capnpPrivate4kindE@Base 0.5.3
 _ZN5capnp3rpc6Finish13_capnpPrivate5brandE@Base 0.5.3
 _ZN5capnp3rpc6Finish13_capnpPrivate6schemaE@Base 0.5.3
 _ZN5capnp3rpc6Return13_capnpPrivate12dataWordSizeE@Base 0.5.3
 _ZN5capnp3rpc6Return13_capnpPrivate12pointerCountE@Base 0.5.3
 _ZN5capnp3rpc6Return13_capnpPrivate4kindE@Base 0.5.3
 _ZN5capnp3rpc6Return13_capnpPrivate5brandE@Base 0.5.3
 _ZN5capnp3rpc6Return13_capnpPrivate6schemaE@Base 0.5.3
 _ZN5capnp3rpc7Message13_capnpPrivate12dataWordSizeE@Base 0.5.3
 _ZN5capnp3rpc7Message13_capnpPrivate12pointerCountE@Base 0.5.3
 _ZN5capnp3rpc7Message13_capnpPrivate4kindE@Base 0.5.3
 _ZN5capnp3rpc7Message13_capnpPrivate5brandE@Base 0.5.3
 _ZN5capnp3rpc7Message13_capnpPrivate6schemaE@Base 0.5.3
 _ZN5capnp3rpc7Payload13_capnpPrivate12dataWordSizeE@Base 0.5.3
 _ZN5capnp3rpc7Payload13_capnpPrivate12pointerCountE@Base 0.5.3
 _ZN5capnp3rpc7Payload13_capnpPrivate4kindE@Base 0.5.3
 _ZN5capnp3rpc7Payload13_capnpPrivate5brandE@Base 0.5.3
 _ZN5capnp3rpc7Payload13_capnpPrivate6schemaE@Base 0.5.3
 _ZN5capnp3rpc7Provide13_capnpPrivate12dataWordSizeE@Base 0.5.3
 _ZN5capnp3rpc7Provide13_capnpPrivate12pointerCountE@Base 0.5.3
 _ZN5capnp3rpc7Provide13_capnpPrivate4kindE@Base 0.5.3
 _ZN5capnp3rpc7Provide13_capnpPrivate5brandE@Base 0.5.3
 _ZN5capnp3rpc7Provide13_capnpPrivate6schemaE@Base 0.5.3
 _ZN5capnp3rpc7Release13_capnpPrivate12dataWordSizeE@Base 0.5.3
 _ZN5capnp3rpc7Release13_capnpPrivate12pointerCountE@Base 0.5.3
 _ZN5capnp3rpc7Release13_capnpPrivate4kindE@Base 0.5.3
 _ZN5capnp3rpc7Release13_capnpPrivate5brandE@Base 0.5.3
 _ZN5capnp3rpc7Release13_capnpPrivate6schemaE@Base 0.5.3
 _ZN5capnp3rpc7Resolve13_capnpPrivate12dataWordSizeE@Base 0.5.3
 _ZN5capnp3rpc7Resolve13_capnpPrivate12pointerCountE@Base 0.5.3
 _ZN5capnp3rpc7Resolve13_capnpPrivate4kindE@Base 0.5.3
 _ZN5capnp3rpc7Resolve13_capnpPrivate5brandE@Base 0.5.3
 _ZN5capnp3rpc7Resolve13_capnpPrivate6schemaE@Base 0.5.3
 _ZN5capnp3rpc8twoparty10JoinResult13_capnpPrivate12dataWordSizeE@Base 0.5.3
 _ZN5capnp3rpc8twoparty10JoinResult13_capnpPrivate12pointerCountE@Base 0.5.3
 _ZN5capnp3rpc8twoparty10JoinResult13_capnpPrivate4kindE@Base 0.5.3
 _ZN5capnp3rpc8twoparty10JoinResult13_capnpPrivate5brandE@Base 0.5.3
 _ZN5capnp3rpc8twoparty10JoinResult13_capnpPrivate6schemaE@Base 0.5.3
 _ZN5capnp3rpc8twoparty11JoinKeyPart13_capnpPrivate12dataWordSizeE@Base 0.5.3
 _ZN5capnp3rpc8twoparty11JoinKeyPart13_capnpPrivate12pointerCountE@Base 0.5.3
 _ZN5capnp3rpc8twoparty11JoinKeyPart13_capnpPrivate4kindE@Base 0.5.3
 _ZN5capnp3rpc8twoparty11JoinKeyPart13_capnpPrivate5brandE@Base 0.5.3
 _ZN5capnp3rpc8twoparty11JoinKeyPart13_capnpPrivate6schemaE@Base 0.5.3
 _ZN5capnp3rpc8twoparty11ProvisionId13_capnpPrivate12dataWordSizeE@Base 0.5.3
 _ZN5capnp3rpc8twoparty11ProvisionId13_capnpPrivate12pointerCountE@Base 0.5.3
 _ZN5capnp3rpc8twoparty11ProvisionId13_capnpPrivate4kindE@Base 0.5.3
 _ZN5capnp3rpc8twoparty11ProvisionId13_capnpPrivate5brandE@Base 0.5.3
 _ZN5capnp3rpc8twoparty11ProvisionId13_capnpPrivate6schemaE@Base 0.5.3
 _ZN5capnp3rpc8twoparty11RecipientId13_capnpPrivate12dataWordSizeE@Base 0.5.3
 _ZN5capnp3rpc8twoparty11RecipientId13_capnpPrivate12pointerCountE@Base 0.5.3
 _ZN5capnp3rpc8twoparty11RecipientId13_capnpPrivate4kindE@Base 0.5.3
 _ZN5capnp3rpc8twoparty11RecipientId13_capnpPrivate5brandE@Base 0.5.3
 _ZN5capnp3rpc8twoparty11RecipientId13_capnpPrivate6schemaE@Base 0.5.3
 _ZN5capnp3rpc8twoparty15ThirdPartyCapId13_capnpPrivate12dataWordSizeE@Base 0.5.3
 _ZN5capnp3rpc8twoparty15ThirdPartyCapId13_capnpPrivate12pointerCountE@Base 0.5.3
 _ZN5capnp3rpc8twoparty15ThirdPartyCapId13_capnpPrivate4kindE@Base 0.5.3
 _ZN5capnp3rpc8twoparty15ThirdPartyCapId13_capnpPrivate5brandE@Base 0.5.3
 _ZN5capnp3rpc8twoparty15ThirdPartyCapId13_capnpPrivate6schemaE@Base 0.5.3
 _ZN5capnp3rpc8twoparty5VatId13_capnpPrivate12dataWordSizeE@Base 0.5.3
 _ZN5capnp3rpc8twoparty5VatId13_capnpPrivate12pointerCountE@Base 0.5.3
 _ZN5capnp3rpc8twoparty5VatId13_capnpPrivate4kindE@Base 0.5.3
 _ZN5capnp3rpc8twoparty5VatId13_capnpPrivate5brandE@Base 0.5.3
 _ZN5capnp3rpc8twoparty5VatId13_capnpPrivate6schemaE@Base 0.5.3
 _ZN5capnp3rpc9Bootstrap13_capnpPrivate12dataWordSizeE@Base 0.5.3
 _ZN5capnp3rpc9Bootstrap13_capnpPrivate12pointerCountE@Base 0.5.3
 _ZN5capnp3rpc9Bootstrap13_capnpPrivate4kindE@Base 0.5.3
 _ZN5capnp3rpc9Bootstrap13_capnpPrivate5brandE@Base 0.5.3
 _ZN5capnp3rpc9Bootstrap13_capnpPrivate6schemaE@Base 0.5.3
 _ZN5capnp3rpc9Exception13_capnpPrivate12dataWordSizeE@Base 0.5.3
 _ZN5capnp3rpc9Exception13_capnpPrivate12pointerCountE@Base 0.5.3
 _ZN5capnp3rpc9Exception13_capnpPrivate4kindE@Base 0.5.3
 _ZN5capnp3rpc9Exception13_capnpPrivate5brandE@Base 0.5.3
 _ZN5capnp3rpc9Exception13_capnpPrivate6schemaE@Base 0.5.3
 (optional=templinst)_ZN5capnp7RequestINS_13DynamicStructES1_E4sendEv@Base 0.5.3
 _ZN5capnp7schemas18s_836a53ce789d4cd4E@Base 0.5.3
 _ZN5capnp7schemas18s_84ff286cd00a3ed4E@Base 0.5.3
 _ZN5capnp7schemas18s_8523ddc40b86b8b0E@Base 0.5.3
 _ZN5capnp7schemas18s_89f389b6fd4082c1E@Base 0.5.3
 _ZN5capnp7schemas18s_91b79f1f808db032E@Base 0.5.3
 _ZN5capnp7schemas18s_95b29059097fca83E@Base 0.5.3
 _ZN5capnp7schemas18s_95bc14545813fbc1E@Base 0.5.3
 _ZN5capnp7schemas18s_9a0e61223d96743bE@Base 0.5.3
 _ZN5capnp7schemas18s_9c6a046bfbc1ac5aE@Base 0.5.3
 _ZN5capnp7schemas18s_9d263a3630b7ebeeE@Base 0.5.3
 _ZN5capnp7schemas18s_9e19b28d3db3573aE@Base 0.5.3
 _ZN5capnp7schemas18s_9fd69ebc87b9719cE@Base 0.5.3
 _ZN5capnp7schemas18s_ad1a6c0d7dd07497E@Base 0.5.3
 _ZN5capnp7schemas18s_b28c96e23f4cbd58E@Base 0.5.3
 _ZN5capnp7schemas18s_b47f4979672cb59dE@Base 0.5.3
 _ZN5capnp7schemas18s_b76848c18c40efbfE@Base 0.5.3
 _ZN5capnp7schemas18s_b88d09a9c5f39817E@Base 0.5.3
 _ZN5capnp7schemas18s_bbc29655fa89086eE@Base 0.5.3
 _ZN5capnp7schemas18s_c8cb212fcd9f5691E@Base 0.5.3
 _ZN5capnp7schemas18s_d20b909fee733a8eE@Base 0.5.3
 _ZN5capnp7schemas18s_d37007fde1f0027dE@Base 0.5.3
 _ZN5capnp7schemas18s_d37d2eb2c2f80e63E@Base 0.5.3
 _ZN5capnp7schemas18s_d4c9b56290554016E@Base 0.5.3
 _ZN5capnp7schemas18s_d562b4df655bdd4dE@Base 0.5.3
 _ZN5capnp7schemas18s_d625b7063acf691aE@Base 0.5.3
 _ZN5capnp7schemas18s_d800b1d6cd6f1ca0E@Base 0.5.3
 _ZN5capnp7schemas18s_dae8b0f61aab5f99E@Base 0.5.3
 _ZN5capnp7schemas18s_e94ccf8031176ec4E@Base 0.5.3
 _ZN5capnp7schemas18s_ecafa18b482da3aaE@Base 0.5.3
 _ZN5capnp7schemas18s_f0c2cc1d3909574dE@Base 0.5.3
 _ZN5capnp7schemas18s_f316944415569081E@Base 0.5.3
 _ZN5capnp7schemas18s_f622595091cafb67E@Base 0.5.3
 _ZN5capnp7schemas18s_f76fba59183073a5E@Base 0.5.3
 _ZN5capnp7schemas18s_f964368b0fbd3711E@Base 0.5.3
 _ZN5capnp7schemas18s_fbe1980490e001afE@Base 0.5.3
 _ZN5capnp7schemas19bp_836a53ce789d4cd4E@Base 0.5.3
 _ZN5capnp7schemas19bp_84ff286cd00a3ed4E@Base 0.5.3
 _ZN5capnp7schemas19bp_8523ddc40b86b8b0E@Base 0.5.3
 _ZN5capnp7schemas19bp_89f389b6fd4082c1E@Base 0.5.3
 _ZN5capnp7schemas19bp_91b79f1f808db032E@Base 0.5.3
 _ZN5capnp7schemas19bp_95b29059097fca83E@Base 0.5.3
 _ZN5capnp7schemas19bp_95bc14545813fbc1E@Base 0.5.3
 _ZN5capnp7schemas19bp_9a0e61223d96743bE@Base 0.5.3
 _ZN5capnp7schemas19bp_9c6a046bfbc1ac5aE@Base 0.5.3
 _ZN5capnp7schemas19bp_9d263a3630b7ebeeE@Base 0.5.3
 _ZN5capnp7schemas19bp_9e19b28d3db3573aE@Base 0.5.3
 _ZN5capnp7schemas19bp_9fd69ebc87b9719cE@Base 0.5.3
 _ZN5capnp7schemas19bp_ad1a6c0d7dd07497E@Base 0.5.3
 _ZN5capnp7schemas19bp_b28c96e23f4cbd58E@Base 0.5.3
 _ZN5capnp7schemas19bp_b47f4979672cb59dE@Base 0.5.3
 _ZN5capnp7schemas19bp_b76848c18c40efbfE@Base 0.5.3
 _ZN5capnp7schemas19bp_b88d09a9c5f39817E@Base 0.5.3
 _ZN5capnp7schemas19bp_bbc29655fa89086eE@Base 0.5.3
 _ZN5capnp7schemas19bp_c8cb212fcd9f5691E@Base 0.5.3
 _ZN5capnp7schemas19bp_d20b909fee733a8eE@Base 0.5.3
 _ZN5capnp7schemas19bp_d37007fde1f0027dE@Base 0.5.3
 _ZN5capnp7schemas19bp_d37d2eb2c2f80e63E@Base 0.5.3
 _ZN5capnp7schemas19bp_d4c9b56290554016E@Base 0.5.3
 _ZN5capnp7schemas19bp_d562b4df655bdd4dE@Base 0.5.3
 _ZN5capnp7schemas19bp_d625b7063acf691aE@Base 0.5.3
 _ZN5capnp7schemas19bp_d800b1d6cd6f1ca0E@Base 0.5.3
 _ZN5capnp7schemas19bp_dae8b0f61aab5f99E@Base 0.5.3
 _ZN5capnp7schemas19bp_e94ccf8031176ec4E@Base 0.5.3
 _ZN5capnp7schemas19bp_ecafa18b482da3aaE@Base 0.5.3
 _ZN5capnp7schemas19bp_f0c2cc1d3909574dE@Base 0.5.3
 _ZN5capnp7schemas19bp_f316944415569081E@Base 0.5.3
 _ZN5capnp7schemas19bp_f622595091cafb67E@Base 0.5.3
 _ZN5capnp7schemas19bp_f76fba59183073a5E@Base 0.5.3
 _ZN5capnp7schemas19bp_f964368b0fbd3711E@Base 0.5.3
 _ZN5capnp7schemas19bp_fbe1980490e001afE@Base 0.5.3
 _ZN5capnp7schemas8EnumInfoINS0_21Side_9fd69ebc87b9719cEE6schemaE@Base 0.5.3
 _ZN5capnp7schemas8EnumInfoINS0_21Side_9fd69ebc87b9719cEE6typeIdE@Base 0.5.3
 _ZN5capnp7schemas8EnumInfoINS0_21Type_b28c96e23f4cbd58EE6schemaE@Base 0.5.3
 _ZN5capnp7schemas8EnumInfoINS0_21Type_b28c96e23f4cbd58EE6typeIdE@Base 0.5.3
 (optional=templinst)_ZN5capnp9RpcSystemINS_3rpc8twoparty5VatIdEEC1INS2_11ProvisionIdENS2_11RecipientIdENS2_15ThirdPartyCapIdENS2_10JoinResultEEERNS_10VatNetworkIS3_T_T0_T1_T2_EEN2kj5MaybeINS_10Capability6ClientEEENSI_INS_12RealmGatewayINS_10AnyPointerESN_SN_SN_E6ClientEEE@Base 0.5.3
 (optional=templinst)_ZN5capnp9RpcSystemINS_3rpc8twoparty5VatIdEEC2INS2_11ProvisionIdENS2_11RecipientIdENS2_15ThirdPartyCapIdENS2_10JoinResultEEERNS_10VatNetworkIS3_T_T0_T1_T2_EEN2kj5MaybeINS_10Capability6ClientEEENSI_INS_12RealmGatewayINS_10AnyPointerESN_SN_SN_E6ClientEEE@Base 0.5.3
 (optional=templinst)_ZNK2kj1_12HeapDisposerIN5capnp11EzRpcClient4Impl13ClientContextEE11disposeImplEPv@Base 0.5.3
 (optional=templinst)_ZNK2kj1_12HeapDisposerIN5capnp11EzRpcClient4ImplEE11disposeImplEPv@Base 0.5.3
 (optional=templinst)_ZNK2kj1_12HeapDisposerIN5capnp11EzRpcServer4Impl13ServerContextEE11disposeImplEPv@Base 0.5.3
 (optional=templinst)_ZNK2kj1_12HeapDisposerIN5capnp11EzRpcServer4ImplEE11disposeImplEPv@Base 0.5.3
 (optional=templinst)_ZNK2kj1_12HeapDisposerIN5capnp12LocalRequestEE11disposeImplEPv@Base 0.5.3
 (optional=templinst)_ZNK2kj1_12HeapDisposerIN5capnp14TwoPartyServer18AcceptedConnectionEE11disposeImplEPv@Base 0.5.3
 (optional=templinst)_ZNK2kj1_12HeapDisposerIN5capnp18TwoPartyVatNetwork19IncomingMessageImplEE11disposeImplEPv@Base 0.5.3
 (optional=templinst)_ZNK2kj1_12HeapDisposerIN5capnp1_13RpcSystemBase4ImplEE11disposeImplEPv@Base 0.5.3
 (optional=templinst)_ZNK2kj1_12HeapDisposerIN5capnp20MallocMessageBuilderEE11disposeImplEPv@Base 0.5.3
 (optional=templinst)_ZNK2kj1_12HeapDisposerINS0_10ForkBranchINS0_4VoidEEEE11disposeImplEPv@Base 0.5.3
 (optional=templinst)_ZNK2kj1_12HeapDisposerINS0_10ForkBranchINS_3OwnIN5capnp10ClientHookEEEEEE11disposeImplEPv@Base 0.5.3
 (optional=templinst)_ZNK2kj1_12HeapDisposerINS0_10ForkBranchINS_3OwnIN5capnp12PipelineHookEEEEEE11disposeImplEPv@Base 0.5.3
 (optional=templinst)_ZNK2kj1_12HeapDisposerINS0_10ForkBranchINS_3OwnIZN5capnp12QueuedClient4callEmtONS3_INS4_15CallContextHookEEEE16CallResultHolderEEEEE11disposeImplEPv@Base 0.5.3
 (optional=templinst)_ZNK2kj1_12HeapDisposerINS0_10ForkBranchIjEEE11disposeImplEPv@Base 0.5.3
 (optional=templinst)_ZNK2kj1_12HeapDisposerINS0_16ChainPromiseNodeEE11disposeImplEPv@Base 0.5.3
 (optional=templinst)_ZNK2kj1_12HeapDisposerINS0_16EagerPromiseNodeINS0_4VoidEEEE11disposeImplEPv@Base 0.5.3
 (optional=templinst)_ZNK2kj1_12HeapDisposerINS0_18AdapterPromiseNodeIN5capnp10AnyPointer8PipelineENS0_26PromiseAndFulfillerAdapterIS5_EEEEE11disposeImplEPv@Base 0.5.3
 (optional=templinst)_ZNK2kj1_12HeapDisposerINS0_18AdapterPromiseNodeINS0_4VoidENS0_26PromiseAndFulfillerAdapterIvEEEEE11disposeImplEPv@Base 0.5.3
 (optional=templinst)_ZNK2kj1_12HeapDisposerINS0_18AdapterPromiseNodeINS_3OwnIN5capnp10ClientHookEEENS0_26PromiseAndFulfillerAdapterIS6_EEEEE11disposeImplEPv@Base 0.5.3
 (optional=templinst)_ZNK2kj1_12HeapDisposerINS0_18AdapterPromiseNodeINS_3OwnIN5capnp10VatNetworkINS4_3rpc8twoparty5VatIdENS7_11ProvisionIdENS7_11RecipientIdENS7_15ThirdPartyCapIdENS7_10JoinResultEE10ConnectionEEENS0_26PromiseAndFulfillerAdapterISF_EEEEE11disposeImplEPv@Base 0.5.3
 (optional=templinst)_ZNK2kj1_12HeapDisposerINS0_18AdapterPromiseNodeIjNS0_26PromiseAndFulfillerAdapterIjEEEEE11disposeImplEPv@Base 0.5.3
 (optional=templinst)_ZNK2kj1_12HeapDisposerINS0_20ImmediatePromiseNodeINS0_4VoidEEEE11disposeImplEPv@Base 0.5.3
 (optional=templinst)_ZNK2kj1_12HeapDisposerINS0_20ImmediatePromiseNodeINS_3OwnIN5capnp10VatNetworkINS4_3rpc8twoparty5VatIdENS7_11ProvisionIdENS7_11RecipientIdENS7_15ThirdPartyCapIdENS7_10JoinResultEE10ConnectionEEEEEE11disposeImplEPv@Base 0.5.3
 (optional=templinst)_ZNK2kj1_12HeapDisposerINS0_20ImmediatePromiseNodeIPvEEE11disposeImplES3_@Base 0.5.3
 (optional=templinst)_ZNK2kj1_12HeapDisposerINS0_20ImmediatePromiseNodeIbEEE11disposeImplEPv@Base 0.5.3
 (optional=templinst)_ZNK2kj1_12HeapDisposerINS0_20ImmediatePromiseNodeIjEEE11disposeImplEPv@Base 0.5.3
 (optional=templinst)_ZNK2kj1_12HeapDisposerINS0_20TransformPromiseNodeIN5capnp8ResponseINS3_10AnyPointerEEENS0_4VoidENS_13CaptureByMoveIZNS3_12LocalRequest4sendEvEUlONS_3OwnINS3_16LocalCallContextEEEE0_SC_EENS0_18PropagateExceptionEEEE11disposeImplEPv@Base 0.5.3
 (optional=templinst)_ZNK2kj1_12HeapDisposerINS0_20TransformPromiseNodeIN5capnp8ResponseINS3_10AnyPointerEEES6_ZNS3_7RequestIS5_S5_E4sendEvEUlOS6_E_NS0_18PropagateExceptionEEEE11disposeImplEPv@Base 0.5.3
 (optional=templinst)_ZNK2kj1_12HeapDisposerINS0_20TransformPromiseNodeINS0_4VoidEN5capnp8ResponseINS4_10AnyPointerEEEZNS4_16LocalCallContext14directTailCallEONS_3OwnINS4_11RequestHookEEEEUlOS7_E_NS0_18PropagateExceptionEEEE11disposeImplEPv@Base 0.5.3
 (optional=templinst)_ZNK2kj1_12HeapDisposerINS0_20TransformPromiseNodeINS0_4VoidENS_3OwnIN5capnp10ClientHookEEEZNS5_12QueuedClientC4EONS_7PromiseIS7_EEEUlOS7_E_ZNS8_C4ESB_EUlONS_9ExceptionEE0_EEE11disposeImplEPv@Base 0.5.3
 (optional=templinst)_ZNK2kj1_12HeapDisposerINS0_20TransformPromiseNodeINS0_4VoidENS_3OwnIN5capnp12PipelineHookEEEZNS5_14QueuedPipelineC4EONS_7PromiseIS7_EEEUlOS7_E_ZNS8_C4ESB_EUlONS_9ExceptionEE0_EEE11disposeImplEPv@Base 0.5.3
 (optional=templinst)_ZNK2kj1_12HeapDisposerINS0_20TransformPromiseNodeINS0_4VoidENS_3OwnIN5capnp1_14VatNetworkBase10ConnectionEEEZNS6_13RpcSystemBase4Impl10acceptLoopEvEUlOS9_E_NS0_18PropagateExceptionEEEE11disposeImplEPv@Base 0.5.3
 (optional=templinst)_ZNK2kj1_12HeapDisposerINS0_20TransformPromiseNodeINS0_4VoidENS_3OwnINS_13AsyncIoStreamEEENS_13CaptureByMoveIZN5capnp11EzRpcServer4Impl10acceptLoopEONS4_INS_18ConnectionReceiverEEENS8_13ReaderOptionsEEUlSD_OS6_E_SC_EENS0_18PropagateExceptionEEEE11disposeImplEPv@Base 0.5.3
 (optional=templinst)_ZNK2kj1_12HeapDisposerINS0_20TransformPromiseNodeINS0_4VoidENS_3OwnINS_13AsyncIoStreamEEEZN5capnp11EzRpcClient4ImplC4ENS_9StringPtrEjNS7_13ReaderOptionsEEUlOS6_E0_NS0_18PropagateExceptionEEEE11disposeImplEPv@Base 0.5.3
 (optional=templinst)_ZNK2kj1_12HeapDisposerINS0_20TransformPromiseNodeINS0_4VoidENS_3OwnINS_13AsyncIoStreamEEEZN5capnp11EzRpcClient4ImplC4EPK8sockaddrjNS7_13ReaderOptionsEEUlOS6_E_NS0_18PropagateExceptionEEEE11disposeImplEPv@Base 0.5.3
 (optional=templinst)_ZNK2kj1_12HeapDisposerINS0_20TransformPromiseNodeINS0_4VoidENS_3OwnINS_14NetworkAddressEEENS_13CaptureByMoveIZN5capnp11EzRpcServer4ImplC4ENS8_10Capability6ClientENS_9StringPtrEjNS8_13ReaderOptionsEEUlONS4_INS_16PromiseFulfillerIjEEEEOS6_E_SH_EENS0_18PropagateExceptionEEEE11disposeImplEPv@Base 0.5.3
 (optional=templinst)_ZNK2kj1_12HeapDisposerINS0_20TransformPromiseNodeINS0_4VoidES3_ZN5capnp1_13RpcSystemBase4Impl10acceptLoopEvEUlvE0_NS0_18PropagateExceptionEEEE11disposeImplEPv@Base 0.5.3
 (optional=templinst)_ZNK2kj1_12HeapDisposerINS0_20TransformPromiseNodeINS0_4VoidES3_ZNS_7PromiseIvE6detachIZN5capnp12LocalRequest4sendEvEUlONS_9ExceptionEE_EEvOT_EUlvE_SB_EEE11disposeImplEPv@Base 0.5.3
 (optional=templinst)_ZNK2kj1_12HeapDisposerINS0_20TransformPromiseNodeINS_3OwnIN5capnp10ClientHookEEENS4_10Capability6ClientEZNS8_C4IS8_vEEONS_7PromiseIT_EEEUlOS8_E_NS0_18PropagateExceptionEEEE11disposeImplEPv@Base 0.5.3
 (optional=templinst)_ZNK2kj1_12HeapDisposerINS0_20TransformPromiseNodeINS_3OwnIN5capnp12PipelineHookEEENS0_4VoidENS_13CaptureByMoveIZNS4_11LocalClient4callEmtONS3_INS4_15CallContextHookEEEEUlSC_E0_SB_EENS0_18PropagateExceptionEEEE11disposeImplEPv@Base 0.5.3
 (optional=templinst)_ZNK2kj1_12HeapDisposerINS0_20TransformPromiseNodeINS_3OwnIN5capnp12PipelineHookEEENS3_IZNS4_12QueuedClient4callEmtONS3_INS4_15CallContextHookEEEE16CallResultHolderEEZNS7_4callEmtSA_EUlOSC_E0_NS0_18PropagateExceptionEEEE11disposeImplEPv@Base 0.5.3
 (optional=templinst)_ZNK2kj1_12HeapDisposerINS0_20TransformPromiseNodeINS_3OwnIN5capnp12PipelineHookEEENS4_10AnyPointer8PipelineEZNS4_11LocalClient4callEmtONS3_INS4_15CallContextHookEEEEUlOS8_E1_NS0_18PropagateExceptionEEEE11disposeImplEPv@Base 0.5.3
 (optional=templinst)_ZNK2kj1_12HeapDisposerINS0_20TransformPromiseNodeINS_3OwnIN5capnp1_14VatNetworkBase10ConnectionEEENS3_INS4_10VatNetworkINS4_3rpc8twoparty5VatIdENSB_11ProvisionIdENSB_11RecipientIdENSB_15ThirdPartyCapIdENSB_10JoinResultEE10ConnectionEEEZNSH_10baseAcceptEvEUlOSJ_E_NS0_18PropagateExceptionEEEE11disposeImplEPv@Base 0.5.3
 (optional=templinst)_ZNK2kj1_12HeapDisposerINS0_20TransformPromiseNodeINS_3OwnIZN5capnp12QueuedClient4callEmtONS3_INS4_15CallContextHookEEEE16CallResultHolderEENS3_INS4_10ClientHookEEENS_13CaptureByMoveIZNS5_4callEmtS8_EUlS8_OSC_E_S7_EENS0_18PropagateExceptionEEEE11disposeImplEPv@Base 0.5.3
 (optional=templinst)_ZNK2kj1_12HeapDisposerINS0_20TransformPromiseNodeINS_7PromiseINS_3OwnINS_13AsyncIoStreamEEEEENS4_INS_14NetworkAddressEEEZN5capnp11EzRpcClient4ImplC4ENS_9StringPtrEjNSA_13ReaderOptionsEEUlOS9_E_NS0_18PropagateExceptionEEEE11disposeImplEPv@Base 0.5.3
 (optional=templinst)_ZNK2kj1_12HeapDisposerINS0_20TransformPromiseNodeINS_7PromiseIvEENS0_4VoidEZN5capnp11LocalClient4callEmtONS_3OwnINS6_15CallContextHookEEEEUlvE_NS0_18PropagateExceptionEEEE11disposeImplEPv@Base 0.5.3
 (optional=templinst)_ZNK2kj1_12HeapDisposerINS0_20TransformPromiseNodeINS_7PromiseIvEENS0_4VoidEZN5capnp18TwoPartyVatNetwork19OutgoingMessageImpl4sendEvEUlvE_NS0_18PropagateExceptionEEEE11disposeImplEPv@Base 0.5.3
 (optional=templinst)_ZNK2kj1_12HeapDisposerINS0_20TransformPromiseNodeINS_7PromiseIvEENS_3OwnIZN5capnp12QueuedClient4callEmtONS5_INS6_15CallContextHookEEEE16CallResultHolderEEZNS7_4callEmtSA_EUlOSC_E1_NS0_18PropagateExceptionEEEE11disposeImplEPv@Base 0.5.3
 (optional=templinst)_ZNK2kj1_12HeapDisposerINS0_21AttachmentPromiseNodeINS_3OwnIN5capnp10ClientHookEEEEEE11disposeImplEPv@Base 0.5.3
 (optional=templinst)_ZNK2kj1_12HeapDisposerINS0_21AttachmentPromiseNodeINS_3OwnIN5capnp11EzRpcServer4Impl13ServerContextEEEEEE11disposeImplEPv@Base 0.5.3
 (optional=templinst)_ZNK2kj1_12HeapDisposerINS0_21AttachmentPromiseNodeINS_3OwnIN5capnp11LocalClientEEEEEE11disposeImplEPv@Base 0.5.3
 (optional=templinst)_ZNK2kj1_12HeapDisposerINS0_21AttachmentPromiseNodeINS_3OwnIN5capnp14TwoPartyServer18AcceptedConnectionEEEEEE11disposeImplEPv@Base 0.5.3
 (optional=templinst)_ZNK2kj1_12HeapDisposerINS0_21AttachmentPromiseNodeINS_3OwnIN5capnp15CallContextHookEEEEEE11disposeImplEPv@Base 0.5.3
 (optional=templinst)_ZNK2kj1_12HeapDisposerINS0_21AttachmentPromiseNodeINS_3OwnIN5capnp16LocalCallContextEEEEEE11disposeImplEPv@Base 0.5.3
 (optional=templinst)_ZNK2kj1_12HeapDisposerINS0_21AttachmentPromiseNodeINS_3OwnIN5capnp18TwoPartyVatNetwork19OutgoingMessageImplEEEEEE11disposeImplEPv@Base 0.5.3
 (optional=templinst)_ZNK2kj1_12HeapDisposerINS0_21AttachmentPromiseNodeINS_3OwnIN5capnp1_14VatNetworkBase10ConnectionEEEEEE11disposeImplEPv@Base 0.5.3
 (optional=templinst)_ZNK2kj1_12HeapDisposerINS0_21AttachmentPromiseNodeINS_3OwnINS_14NetworkAddressEEEEEE11disposeImplEPv@Base 0.5.3
 (optional=templinst)_ZNK2kj1_12HeapDisposerINS0_24ExclusiveJoinPromiseNodeEE11disposeImplEPv@Base 0.5.3
 (optional=templinst)_ZNK2kj1_12HeapDisposerINS0_26ImmediateBrokenPromiseNodeEE11disposeImplEPv@Base 0.5.3
 (optional=templinst)_ZNK2kj1_13WeakFulfillerIN5capnp10AnyPointer8PipelineEE11disposeImplEPv@Base 0.5.3
 (optional=templinst)_ZNK2kj1_13WeakFulfillerINS_3OwnIN5capnp10ClientHookEEEE11disposeImplEPv@Base 0.5.3
 (optional=templinst)_ZNK2kj1_13WeakFulfillerINS_3OwnIN5capnp10VatNetworkINS3_3rpc8twoparty5VatIdENS6_11ProvisionIdENS6_11RecipientIdENS6_15ThirdPartyCapIdENS6_10JoinResultEE10ConnectionEEEE11disposeImplEPv@Base 0.5.3
 (optional=templinst)_ZNK2kj1_13WeakFulfillerIjE11disposeImplEPv@Base 0.5.3
 (optional=templinst)_ZNK2kj1_13WeakFulfillerIvE11disposeImplEPv@Base 0.5.3
 _ZNK5capnp18TwoPartyVatNetwork17FulfillerDisposer11disposeImplEPv@Base 0.5.3
 (optional=templinst)_ZNSt10_HashtableIPN5capnp10ClientHookESt4pairIKS2_jESaIS5_ENSt8__detail10_Select1stESt8equal_toIS2_ESt4hashIS2_ENS7_18_Mod_range_hashingENS7_20_Default_ranged_hashENS7_20_Prime_rehash_policyENS7_17_Hashtable_traitsILb0ELb0ELb1EEEE21_M_insert_unique_nodeEmmPNS7_10_Hash_nodeIS5_Lb0EEE@Base 0.5.3
 (optional=templinst)_ZNSt10_HashtableIPN5capnp10ClientHookESt4pairIKS2_jESaIS5_ENSt8__detail10_Select1stESt8equal_toIS2_ESt4hashIS2_ENS7_18_Mod_range_hashingENS7_20_Default_ranged_hashENS7_20_Prime_rehash_policyENS7_17_Hashtable_traitsILb0ELb0ELb1EEEE9_M_rehashEmRKm@Base 0.5.3
 (optional=templinst)_ZNSt10_HashtableIPN5capnp10ClientHookESt4pairIKS2_jESaIS5_ENSt8__detail10_Select1stESt8equal_toIS2_ESt4hashIS2_ENS7_18_Mod_range_hashingENS7_20_Default_ranged_hashENS7_20_Prime_rehash_policyENS7_17_Hashtable_traitsILb0ELb0ELb1EEEED1Ev@Base 0.5.3
 (optional=templinst)_ZNSt10_HashtableIPN5capnp10ClientHookESt4pairIKS2_jESaIS5_ENSt8__detail10_Select1stESt8equal_toIS2_ESt4hashIS2_ENS7_18_Mod_range_hashingENS7_20_Default_ranged_hashENS7_20_Prime_rehash_policyENS7_17_Hashtable_traitsILb0ELb0ELb1EEEED2Ev@Base 0.5.3
 (optional=templinst)_ZNSt6vectorIjSaIjEE19_M_emplace_back_auxIIRKjEEEvDpOT_@Base 0.5.3
 (optional=templinst)_ZNSt6vectorIjSaIjEE19_M_emplace_back_auxIJRKjEEEvDpOT_@Base 0.5.3
 (optional=templinst)_ZNSt8_Rb_treeIN2kj9StringPtrESt4pairIKS1_N5capnp11EzRpcServer4Impl11ExportedCapEESt10_Select1stIS8_ESt4lessIS1_ESaIS8_EE22_M_emplace_hint_uniqueIIRKSt21piecewise_construct_tSt5tupleIIOS1_EESJ_IIEEEEESt17_Rb_tree_iteratorIS8_ESt23_Rb_tree_const_iteratorIS8_EDpOT_@Base 0.5.3
 (optional=templinst)_ZNSt8_Rb_treeIN2kj9StringPtrESt4pairIKS1_N5capnp11EzRpcServer4Impl11ExportedCapEESt10_Select1stIS8_ESt4lessIS1_ESaIS8_EE22_M_emplace_hint_uniqueIJRKSt21piecewise_construct_tSt5tupleIJOS1_EESJ_IJEEEEESt17_Rb_tree_iteratorIS8_ESt23_Rb_tree_const_iteratorIS8_EDpOT_@Base 0.5.3
 (optional=templinst)_ZNSt8_Rb_treeIN2kj9StringPtrESt4pairIKS1_N5capnp11EzRpcServer4Impl11ExportedCapEESt10_Select1stIS8_ESt4lessIS1_ESaIS8_EE24_M_get_insert_unique_posERS3_@Base 0.5.3
 (optional=templinst)_ZNSt8_Rb_treeIN2kj9StringPtrESt4pairIKS1_N5capnp11EzRpcServer4Impl11ExportedCapEESt10_Select1stIS8_ESt4lessIS1_ESaIS8_EE29_M_get_insert_hint_unique_posESt23_Rb_tree_const_iteratorIS8_ERS3_@Base 0.5.3
 (optional=templinst)_ZNSt8_Rb_treeIN2kj9StringPtrESt4pairIKS1_N5capnp11EzRpcServer4Impl11ExportedCapEESt10_Select1stIS8_ESt4lessIS1_ESaIS8_EE8_M_eraseEPSt13_Rb_tree_nodeIS8_E@Base 0.5.3
 (optional=templinst)_ZSt13__adjust_heapIN9__gnu_cxx17__normal_iteratorIPjSt6vectorIjSaIjEEEEljNS0_5__ops15_Iter_comp_iterISt7greaterIjEEEEvT_T0_SD_T1_T2_@Base 0.5.3
 _ZTIN2kj16PromiseFulfillerIN5capnp10AnyPointer8PipelineEEE@Base 0.5.3
 _ZTIN2kj16PromiseFulfillerINS_3OwnIN5capnp10ClientHookEEEEE@Base 0.5.3
 _ZTIN2kj16PromiseFulfillerINS_3OwnIN5capnp10VatNetworkINS2_3rpc8twoparty5VatIdENS5_11ProvisionIdENS5_11RecipientIdENS5_15ThirdPartyCapIdENS5_10JoinResultEE10ConnectionEEEEE@Base 0.5.3
 _ZTIN2kj16PromiseFulfillerIjEE@Base 0.5.3
 _ZTIN2kj16PromiseFulfillerIvEE@Base 0.5.3
 _ZTIN2kj1_10ForkBranchINS0_4VoidEEE@Base 0.5.3
 _ZTIN2kj1_10ForkBranchINS_3OwnIN5capnp10ClientHookEEEEE@Base 0.5.3
 _ZTIN2kj1_10ForkBranchINS_3OwnIN5capnp12PipelineHookEEEEE@Base 0.5.3
 _ZTIN2kj1_10ForkBranchINS_3OwnIZN5capnp12QueuedClient4callEmtONS2_INS3_15CallContextHookEEEE16CallResultHolderEEEE@Base 0.5.3
 _ZTIN2kj1_10ForkBranchIjEE@Base 0.5.3
 _ZTIN2kj1_12HeapDisposerIN5capnp11EzRpcClient4Impl13ClientContextEEE@Base 0.5.3
 _ZTIN2kj1_12HeapDisposerIN5capnp11EzRpcClient4ImplEEE@Base 0.5.3
 _ZTIN2kj1_12HeapDisposerIN5capnp11EzRpcServer4Impl13ServerContextEEE@Base 0.5.3
 _ZTIN2kj1_12HeapDisposerIN5capnp11EzRpcServer4ImplEEE@Base 0.5.3
 _ZTIN2kj1_12HeapDisposerIN5capnp12LocalRequestEEE@Base 0.5.3
 _ZTIN2kj1_12HeapDisposerIN5capnp14TwoPartyServer18AcceptedConnectionEEE@Base 0.5.3
 _ZTIN2kj1_12HeapDisposerIN5capnp18TwoPartyVatNetwork19IncomingMessageImplEEE@Base 0.5.3
 _ZTIN2kj1_12HeapDisposerIN5capnp1_13RpcSystemBase4ImplEEE@Base 0.5.3
 _ZTIN2kj1_12HeapDisposerIN5capnp20MallocMessageBuilderEEE@Base 0.5.3
 _ZTIN2kj1_12HeapDisposerINS0_10ForkBranchINS0_4VoidEEEEE@Base 0.5.3
 _ZTIN2kj1_12HeapDisposerINS0_10ForkBranchINS_3OwnIN5capnp10ClientHookEEEEEEE@Base 0.5.3
 _ZTIN2kj1_12HeapDisposerINS0_10ForkBranchINS_3OwnIN5capnp12PipelineHookEEEEEEE@Base 0.5.3
 _ZTIN2kj1_12HeapDisposerINS0_10ForkBranchINS_3OwnIZN5capnp12QueuedClient4callEmtONS3_INS4_15CallContextHookEEEE16CallResultHolderEEEEEE@Base 0.5.3
 _ZTIN2kj1_12HeapDisposerINS0_10ForkBranchIjEEEE@Base 0.5.3
 _ZTIN2kj1_12HeapDisposerINS0_16ChainPromiseNodeEEE@Base 0.5.3
 _ZTIN2kj1_12HeapDisposerINS0_16EagerPromiseNodeINS0_4VoidEEEEE@Base 0.5.3
 _ZTIN2kj1_12HeapDisposerINS0_18AdapterPromiseNodeIN5capnp10AnyPointer8PipelineENS0_26PromiseAndFulfillerAdapterIS5_EEEEEE@Base 0.5.3
 _ZTIN2kj1_12HeapDisposerINS0_18AdapterPromiseNodeINS0_4VoidENS0_26PromiseAndFulfillerAdapterIvEEEEEE@Base 0.5.3
 _ZTIN2kj1_12HeapDisposerINS0_18AdapterPromiseNodeINS_3OwnIN5capnp10ClientHookEEENS0_26PromiseAndFulfillerAdapterIS6_EEEEEE@Base 0.5.3
 _ZTIN2kj1_12HeapDisposerINS0_18AdapterPromiseNodeINS_3OwnIN5capnp10VatNetworkINS4_3rpc8twoparty5VatIdENS7_11ProvisionIdENS7_11RecipientIdENS7_15ThirdPartyCapIdENS7_10JoinResultEE10ConnectionEEENS0_26PromiseAndFulfillerAdapterISF_EEEEEE@Base 0.5.3
 _ZTIN2kj1_12HeapDisposerINS0_18AdapterPromiseNodeIjNS0_26PromiseAndFulfillerAdapterIjEEEEEE@Base 0.5.3
 _ZTIN2kj1_12HeapDisposerINS0_20ImmediatePromiseNodeINS0_4VoidEEEEE@Base 0.5.3
 _ZTIN2kj1_12HeapDisposerINS0_20ImmediatePromiseNodeINS_3OwnIN5capnp10VatNetworkINS4_3rpc8twoparty5VatIdENS7_11ProvisionIdENS7_11RecipientIdENS7_15ThirdPartyCapIdENS7_10JoinResultEE10ConnectionEEEEEEE@Base 0.5.3
 _ZTIN2kj1_12HeapDisposerINS0_20ImmediatePromiseNodeIPvEEEE@Base 0.5.3
 _ZTIN2kj1_12HeapDisposerINS0_20ImmediatePromiseNodeIbEEEE@Base 0.5.3
 _ZTIN2kj1_12HeapDisposerINS0_20ImmediatePromiseNodeIjEEEE@Base 0.5.3
 _ZTIN2kj1_12HeapDisposerINS0_20TransformPromiseNodeIN5capnp8ResponseINS3_10AnyPointerEEENS0_4VoidENS_13CaptureByMoveIZNS3_12LocalRequest4sendEvEUlONS_3OwnINS3_16LocalCallContextEEEE0_SC_EENS0_18PropagateExceptionEEEEE@Base 0.5.3
 _ZTIN2kj1_12HeapDisposerINS0_20TransformPromiseNodeIN5capnp8ResponseINS3_10AnyPointerEEES6_ZNS3_7RequestIS5_S5_E4sendEvEUlOS6_E_NS0_18PropagateExceptionEEEEE@Base 0.5.3
 _ZTIN2kj1_12HeapDisposerINS0_20TransformPromiseNodeINS0_4VoidEN5capnp8ResponseINS4_10AnyPointerEEEZNS4_16LocalCallContext14directTailCallEONS_3OwnINS4_11RequestHookEEEEUlOS7_E_NS0_18PropagateExceptionEEEEE@Base 0.5.3
 _ZTIN2kj1_12HeapDisposerINS0_20TransformPromiseNodeINS0_4VoidENS_3OwnIN5capnp10ClientHookEEEZNS5_12QueuedClientC4EONS_7PromiseIS7_EEEUlOS7_E_ZNS8_C4ESB_EUlONS_9ExceptionEE0_EEEE@Base 0.5.3
 _ZTIN2kj1_12HeapDisposerINS0_20TransformPromiseNodeINS0_4VoidENS_3OwnIN5capnp12PipelineHookEEEZNS5_14QueuedPipelineC4EONS_7PromiseIS7_EEEUlOS7_E_ZNS8_C4ESB_EUlONS_9ExceptionEE0_EEEE@Base 0.5.3
 _ZTIN2kj1_12HeapDisposerINS0_20TransformPromiseNodeINS0_4VoidENS_3OwnIN5capnp1_14VatNetworkBase10ConnectionEEEZNS6_13RpcSystemBase4Impl10acceptLoopEvEUlOS9_E_NS0_18PropagateExceptionEEEEE@Base 0.5.3
 _ZTIN2kj1_12HeapDisposerINS0_20TransformPromiseNodeINS0_4VoidENS_3OwnINS_13AsyncIoStreamEEENS_13CaptureByMoveIZN5capnp11EzRpcServer4Impl10acceptLoopEONS4_INS_18ConnectionReceiverEEENS8_13ReaderOptionsEEUlSD_OS6_E_SC_EENS0_18PropagateExceptionEEEEE@Base 0.5.3
 _ZTIN2kj1_12HeapDisposerINS0_20TransformPromiseNodeINS0_4VoidENS_3OwnINS_13AsyncIoStreamEEEZN5capnp11EzRpcClient4ImplC4ENS_9StringPtrEjNS7_13ReaderOptionsEEUlOS6_E0_NS0_18PropagateExceptionEEEEE@Base 0.5.3
 _ZTIN2kj1_12HeapDisposerINS0_20TransformPromiseNodeINS0_4VoidENS_3OwnINS_13AsyncIoStreamEEEZN5capnp11EzRpcClient4ImplC4EPK8sockaddrjNS7_13ReaderOptionsEEUlOS6_E_NS0_18PropagateExceptionEEEEE@Base 0.5.3
 _ZTIN2kj1_12HeapDisposerINS0_20TransformPromiseNodeINS0_4VoidENS_3OwnINS_14NetworkAddressEEENS_13CaptureByMoveIZN5capnp11EzRpcServer4ImplC4ENS8_10Capability6ClientENS_9StringPtrEjNS8_13ReaderOptionsEEUlONS4_INS_16PromiseFulfillerIjEEEEOS6_E_SH_EENS0_18PropagateExceptionEEEEE@Base 0.5.3
 _ZTIN2kj1_12HeapDisposerINS0_20TransformPromiseNodeINS0_4VoidES3_ZN5capnp1_13RpcSystemBase4Impl10acceptLoopEvEUlvE0_NS0_18PropagateExceptionEEEEE@Base 0.5.3
 _ZTIN2kj1_12HeapDisposerINS0_20TransformPromiseNodeINS0_4VoidES3_ZNS_7PromiseIvE6detachIZN5capnp12LocalRequest4sendEvEUlONS_9ExceptionEE_EEvOT_EUlvE_SB_EEEE@Base 0.5.3
 _ZTIN2kj1_12HeapDisposerINS0_20TransformPromiseNodeINS_3OwnIN5capnp10ClientHookEEENS4_10Capability6ClientEZNS8_C4IS8_vEEONS_7PromiseIT_EEEUlOS8_E_NS0_18PropagateExceptionEEEEE@Base 0.5.3
 _ZTIN2kj1_12HeapDisposerINS0_20TransformPromiseNodeINS_3OwnIN5capnp12PipelineHookEEENS0_4VoidENS_13CaptureByMoveIZNS4_11LocalClient4callEmtONS3_INS4_15CallContextHookEEEEUlSC_E0_SB_EENS0_18PropagateExceptionEEEEE@Base 0.5.3
 _ZTIN2kj1_12HeapDisposerINS0_20TransformPromiseNodeINS_3OwnIN5capnp12PipelineHookEEENS3_IZNS4_12QueuedClient4callEmtONS3_INS4_15CallContextHookEEEE16CallResultHolderEEZNS7_4callEmtSA_EUlOSC_E0_NS0_18PropagateExceptionEEEEE@Base 0.5.3
 _ZTIN2kj1_12HeapDisposerINS0_20TransformPromiseNodeINS_3OwnIN5capnp12PipelineHookEEENS4_10AnyPointer8PipelineEZNS4_11LocalClient4callEmtONS3_INS4_15CallContextHookEEEEUlOS8_E1_NS0_18PropagateExceptionEEEEE@Base 0.5.3
 _ZTIN2kj1_12HeapDisposerINS0_20TransformPromiseNodeINS_3OwnIN5capnp1_14VatNetworkBase10ConnectionEEENS3_INS4_10VatNetworkINS4_3rpc8twoparty5VatIdENSB_11ProvisionIdENSB_11RecipientIdENSB_15ThirdPartyCapIdENSB_10JoinResultEE10ConnectionEEEZNSH_10baseAcceptEvEUlOSJ_E_NS0_18PropagateExceptionEEEEE@Base 0.5.3
 _ZTIN2kj1_12HeapDisposerINS0_20TransformPromiseNodeINS_3OwnIZN5capnp12QueuedClient4callEmtONS3_INS4_15CallContextHookEEEE16CallResultHolderEENS3_INS4_10ClientHookEEENS_13CaptureByMoveIZNS5_4callEmtS8_EUlS8_OSC_E_S7_EENS0_18PropagateExceptionEEEEE@Base 0.5.3
 _ZTIN2kj1_12HeapDisposerINS0_20TransformPromiseNodeINS_7PromiseINS_3OwnINS_13AsyncIoStreamEEEEENS4_INS_14NetworkAddressEEEZN5capnp11EzRpcClient4ImplC4ENS_9StringPtrEjNSA_13ReaderOptionsEEUlOS9_E_NS0_18PropagateExceptionEEEEE@Base 0.5.3
 _ZTIN2kj1_12HeapDisposerINS0_20TransformPromiseNodeINS_7PromiseIvEENS0_4VoidEZN5capnp11LocalClient4callEmtONS_3OwnINS6_15CallContextHookEEEEUlvE_NS0_18PropagateExceptionEEEEE@Base 0.5.3
 _ZTIN2kj1_12HeapDisposerINS0_20TransformPromiseNodeINS_7PromiseIvEENS0_4VoidEZN5capnp18TwoPartyVatNetwork19OutgoingMessageImpl4sendEvEUlvE_NS0_18PropagateExceptionEEEEE@Base 0.5.3
 _ZTIN2kj1_12HeapDisposerINS0_20TransformPromiseNodeINS_7PromiseIvEENS_3OwnIZN5capnp12QueuedClient4callEmtONS5_INS6_15CallContextHookEEEE16CallResultHolderEEZNS7_4callEmtSA_EUlOSC_E1_NS0_18PropagateExceptionEEEEE@Base 0.5.3
 _ZTIN2kj1_12HeapDisposerINS0_21AttachmentPromiseNodeINS_3OwnIN5capnp10ClientHookEEEEEEE@Base 0.5.3
 _ZTIN2kj1_12HeapDisposerINS0_21AttachmentPromiseNodeINS_3OwnIN5capnp11EzRpcServer4Impl13ServerContextEEEEEEE@Base 0.5.3
 _ZTIN2kj1_12HeapDisposerINS0_21AttachmentPromiseNodeINS_3OwnIN5capnp11LocalClientEEEEEEE@Base 0.5.3
 _ZTIN2kj1_12HeapDisposerINS0_21AttachmentPromiseNodeINS_3OwnIN5capnp14TwoPartyServer18AcceptedConnectionEEEEEEE@Base 0.5.3
 _ZTIN2kj1_12HeapDisposerINS0_21AttachmentPromiseNodeINS_3OwnIN5capnp15CallContextHookEEEEEEE@Base 0.5.3
 _ZTIN2kj1_12HeapDisposerINS0_21AttachmentPromiseNodeINS_3OwnIN5capnp16LocalCallContextEEEEEEE@Base 0.5.3
 _ZTIN2kj1_12HeapDisposerINS0_21AttachmentPromiseNodeINS_3OwnIN5capnp18TwoPartyVatNetwork19OutgoingMessageImplEEEEEEE@Base 0.5.3
 _ZTIN2kj1_12HeapDisposerINS0_21AttachmentPromiseNodeINS_3OwnIN5capnp1_14VatNetworkBase10ConnectionEEEEEEE@Base 0.5.3
 _ZTIN2kj1_12HeapDisposerINS0_21AttachmentPromiseNodeINS_3OwnINS_14NetworkAddressEEEEEEE@Base 0.5.3
 _ZTIN2kj1_12HeapDisposerINS0_24ExclusiveJoinPromiseNodeEEE@Base 0.5.3
 _ZTIN2kj1_12HeapDisposerINS0_26ImmediateBrokenPromiseNodeEEE@Base 0.5.3
 _ZTIN2kj1_12RunnableImplIZN5capnp1_13RpcSystemBase4ImplD4EvEUlvE_EE@Base 0.5.3
 _ZTIN2kj1_13WeakFulfillerIN5capnp10AnyPointer8PipelineEEE@Base 0.5.3
 _ZTIN2kj1_13WeakFulfillerINS_3OwnIN5capnp10ClientHookEEEEE@Base 0.5.3
 _ZTIN2kj1_13WeakFulfillerINS_3OwnIN5capnp10VatNetworkINS3_3rpc8twoparty5VatIdENS6_11ProvisionIdENS6_11RecipientIdENS6_15ThirdPartyCapIdENS6_10JoinResultEE10ConnectionEEEEE@Base 0.5.3
 _ZTIN2kj1_13WeakFulfillerIjEE@Base 0.5.3
 _ZTIN2kj1_13WeakFulfillerIvEE@Base 0.5.3
 _ZTIN2kj1_16EagerPromiseNodeINS0_4VoidEEE@Base 0.5.3
 _ZTIN2kj1_18AdapterPromiseNodeIN5capnp10AnyPointer8PipelineENS0_26PromiseAndFulfillerAdapterIS4_EEEE@Base 0.5.3
 _ZTIN2kj1_18AdapterPromiseNodeINS0_4VoidENS0_26PromiseAndFulfillerAdapterIvEEEE@Base 0.5.3
 _ZTIN2kj1_18AdapterPromiseNodeINS_3OwnIN5capnp10ClientHookEEENS0_26PromiseAndFulfillerAdapterIS5_EEEE@Base 0.5.3
 _ZTIN2kj1_18AdapterPromiseNodeINS_3OwnIN5capnp10VatNetworkINS3_3rpc8twoparty5VatIdENS6_11ProvisionIdENS6_11RecipientIdENS6_15ThirdPartyCapIdENS6_10JoinResultEE10ConnectionEEENS0_26PromiseAndFulfillerAdapterISE_EEEE@Base 0.5.3
 _ZTIN2kj1_18AdapterPromiseNodeIjNS0_26PromiseAndFulfillerAdapterIjEEEE@Base 0.5.3
 _ZTIN2kj1_20ImmediatePromiseNodeINS0_4VoidEEE@Base 0.5.3
 _ZTIN2kj1_20ImmediatePromiseNodeINS_3OwnIN5capnp10VatNetworkINS3_3rpc8twoparty5VatIdENS6_11ProvisionIdENS6_11RecipientIdENS6_15ThirdPartyCapIdENS6_10JoinResultEE10ConnectionEEEEE@Base 0.5.3
 _ZTIN2kj1_20ImmediatePromiseNodeIPvEE@Base 0.5.3
 _ZTIN2kj1_20ImmediatePromiseNodeIbEE@Base 0.5.3
 _ZTIN2kj1_20ImmediatePromiseNodeIjEE@Base 0.5.3
 _ZTIN2kj1_20TransformPromiseNodeIN5capnp8ResponseINS2_10AnyPointerEEENS0_4VoidENS_13CaptureByMoveIZNS2_12LocalRequest4sendEvEUlONS_3OwnINS2_16LocalCallContextEEEE0_SB_EENS0_18PropagateExceptionEEE@Base 0.5.3
 _ZTIN2kj1_20TransformPromiseNodeIN5capnp8ResponseINS2_10AnyPointerEEES5_ZNS2_7RequestIS4_S4_E4sendEvEUlOS5_E_NS0_18PropagateExceptionEEE@Base 0.5.3
 _ZTIN2kj1_20TransformPromiseNodeINS0_4VoidEN5capnp8ResponseINS3_10AnyPointerEEEZNS3_16LocalCallContext14directTailCallEONS_3OwnINS3_11RequestHookEEEEUlOS6_E_NS0_18PropagateExceptionEEE@Base 0.5.3
 _ZTIN2kj1_20TransformPromiseNodeINS0_4VoidENS_3OwnIN5capnp10ClientHookEEEZNS4_12QueuedClientC4EONS_7PromiseIS6_EEEUlOS6_E_ZNS7_C4ESA_EUlONS_9ExceptionEE0_EE@Base 0.5.3
 _ZTIN2kj1_20TransformPromiseNodeINS0_4VoidENS_3OwnIN5capnp12PipelineHookEEEZNS4_14QueuedPipelineC4EONS_7PromiseIS6_EEEUlOS6_E_ZNS7_C4ESA_EUlONS_9ExceptionEE0_EE@Base 0.5.3
 _ZTIN2kj1_20TransformPromiseNodeINS0_4VoidENS_3OwnIN5capnp1_14VatNetworkBase10ConnectionEEEZNS5_13RpcSystemBase4Impl10acceptLoopEvEUlOS8_E_NS0_18PropagateExceptionEEE@Base 0.5.3
 _ZTIN2kj1_20TransformPromiseNodeINS0_4VoidENS_3OwnINS_13AsyncIoStreamEEENS_13CaptureByMoveIZN5capnp11EzRpcServer4Impl10acceptLoopEONS3_INS_18ConnectionReceiverEEENS7_13ReaderOptionsEEUlSC_OS5_E_SB_EENS0_18PropagateExceptionEEE@Base 0.5.3
 _ZTIN2kj1_20TransformPromiseNodeINS0_4VoidENS_3OwnINS_13AsyncIoStreamEEEZN5capnp11EzRpcClient4ImplC4ENS_9StringPtrEjNS6_13ReaderOptionsEEUlOS5_E0_NS0_18PropagateExceptionEEE@Base 0.5.3
 _ZTIN2kj1_20TransformPromiseNodeINS0_4VoidENS_3OwnINS_13AsyncIoStreamEEEZN5capnp11EzRpcClient4ImplC4EPK8sockaddrjNS6_13ReaderOptionsEEUlOS5_E_NS0_18PropagateExceptionEEE@Base 0.5.3
 _ZTIN2kj1_20TransformPromiseNodeINS0_4VoidENS_3OwnINS_14NetworkAddressEEENS_13CaptureByMoveIZN5capnp11EzRpcServer4ImplC4ENS7_10Capability6ClientENS_9StringPtrEjNS7_13ReaderOptionsEEUlONS3_INS_16PromiseFulfillerIjEEEEOS5_E_SG_EENS0_18PropagateExceptionEEE@Base 0.5.3
 _ZTIN2kj1_20TransformPromiseNodeINS0_4VoidES2_ZN5capnp1_13RpcSystemBase4Impl10acceptLoopEvEUlvE0_NS0_18PropagateExceptionEEE@Base 0.5.3
 _ZTIN2kj1_20TransformPromiseNodeINS0_4VoidES2_ZNS_7PromiseIvE6detachIZN5capnp12LocalRequest4sendEvEUlONS_9ExceptionEE_EEvOT_EUlvE_SA_EE@Base 0.5.3
 _ZTIN2kj1_20TransformPromiseNodeINS_3OwnIN5capnp10ClientHookEEENS3_10Capability6ClientEZNS7_C4IS7_vEEONS_7PromiseIT_EEEUlOS7_E_NS0_18PropagateExceptionEEE@Base 0.5.3
 _ZTIN2kj1_20TransformPromiseNodeINS_3OwnIN5capnp12PipelineHookEEENS0_4VoidENS_13CaptureByMoveIZNS3_11LocalClient4callEmtONS2_INS3_15CallContextHookEEEEUlSB_E0_SA_EENS0_18PropagateExceptionEEE@Base 0.5.3
 _ZTIN2kj1_20TransformPromiseNodeINS_3OwnIN5capnp12PipelineHookEEENS2_IZNS3_12QueuedClient4callEmtONS2_INS3_15CallContextHookEEEE16CallResultHolderEEZNS6_4callEmtS9_EUlOSB_E0_NS0_18PropagateExceptionEEE@Base 0.5.3
 _ZTIN2kj1_20TransformPromiseNodeINS_3OwnIN5capnp12PipelineHookEEENS3_10AnyPointer8PipelineEZNS3_11LocalClient4callEmtONS2_INS3_15CallContextHookEEEEUlOS7_E1_NS0_18PropagateExceptionEEE@Base 0.5.3
 _ZTIN2kj1_20TransformPromiseNodeINS_3OwnIN5capnp1_14VatNetworkBase10ConnectionEEENS2_INS3_10VatNetworkINS3_3rpc8twoparty5VatIdENSA_11ProvisionIdENSA_11RecipientIdENSA_15ThirdPartyCapIdENSA_10JoinResultEE10ConnectionEEEZNSG_10baseAcceptEvEUlOSI_E_NS0_18PropagateExceptionEEE@Base 0.5.3
 _ZTIN2kj1_20TransformPromiseNodeINS_3OwnIZN5capnp12QueuedClient4callEmtONS2_INS3_15CallContextHookEEEE16CallResultHolderEENS2_INS3_10ClientHookEEENS_13CaptureByMoveIZNS4_4callEmtS7_EUlS7_OSB_E_S6_EENS0_18PropagateExceptionEEE@Base 0.5.3
 _ZTIN2kj1_20TransformPromiseNodeINS_7PromiseINS_3OwnINS_13AsyncIoStreamEEEEENS3_INS_14NetworkAddressEEEZN5capnp11EzRpcClient4ImplC4ENS_9StringPtrEjNS9_13ReaderOptionsEEUlOS8_E_NS0_18PropagateExceptionEEE@Base 0.5.3
 _ZTIN2kj1_20TransformPromiseNodeINS_7PromiseIvEENS0_4VoidEZN5capnp11LocalClient4callEmtONS_3OwnINS5_15CallContextHookEEEEUlvE_NS0_18PropagateExceptionEEE@Base 0.5.3
 _ZTIN2kj1_20TransformPromiseNodeINS_7PromiseIvEENS0_4VoidEZN5capnp18TwoPartyVatNetwork19OutgoingMessageImpl4sendEvEUlvE_NS0_18PropagateExceptionEEE@Base 0.5.3
 _ZTIN2kj1_20TransformPromiseNodeINS_7PromiseIvEENS_3OwnIZN5capnp12QueuedClient4callEmtONS4_INS5_15CallContextHookEEEE16CallResultHolderEEZNS6_4callEmtS9_EUlOSB_E1_NS0_18PropagateExceptionEEE@Base 0.5.3
 _ZTIN2kj1_21AttachmentPromiseNodeINS_3OwnIN5capnp10ClientHookEEEEE@Base 0.5.3
 _ZTIN2kj1_21AttachmentPromiseNodeINS_3OwnIN5capnp11EzRpcServer4Impl13ServerContextEEEEE@Base 0.5.3
 _ZTIN2kj1_21AttachmentPromiseNodeINS_3OwnIN5capnp11LocalClientEEEEE@Base 0.5.3
 _ZTIN2kj1_21AttachmentPromiseNodeINS_3OwnIN5capnp14TwoPartyServer18AcceptedConnectionEEEEE@Base 0.5.3
 _ZTIN2kj1_21AttachmentPromiseNodeINS_3OwnIN5capnp15CallContextHookEEEEE@Base 0.5.3
 _ZTIN2kj1_21AttachmentPromiseNodeINS_3OwnIN5capnp16LocalCallContextEEEEE@Base 0.5.3
 _ZTIN2kj1_21AttachmentPromiseNodeINS_3OwnIN5capnp18TwoPartyVatNetwork19OutgoingMessageImplEEEEE@Base 0.5.3
 _ZTIN2kj1_21AttachmentPromiseNodeINS_3OwnIN5capnp1_14VatNetworkBase10ConnectionEEEEE@Base 0.5.3
 _ZTIN2kj1_21AttachmentPromiseNodeINS_3OwnINS_14NetworkAddressEEEEE@Base 0.5.3
 _ZTIN2kj1_7ForkHubINS0_4VoidEEE@Base 0.5.3
 _ZTIN2kj1_7ForkHubINS_3OwnIN5capnp10ClientHookEEEEE@Base 0.5.3
 _ZTIN2kj1_7ForkHubINS_3OwnIN5capnp12PipelineHookEEEEE@Base 0.5.3
 _ZTIN2kj1_7ForkHubINS_3OwnIZN5capnp12QueuedClient4callEmtONS2_INS3_15CallContextHookEEEE16CallResultHolderEEEE@Base 0.5.3
 _ZTIN2kj1_7ForkHubIjEE@Base 0.5.3
 _ZTIN2kj1_8RunnableE@Base 0.5.3
 _ZTIN2kj7TaskSet12ErrorHandlerE@Base 0.5.3
 _ZTIN2kj8DisposerE@Base 0.5.3
 _ZTIN5capnp10Capability6ClientE@Base 0.5.3
 _ZTIN5capnp10Capability6ServerE@Base 0.5.3
 _ZTIN5capnp10ClientHookE@Base 0.5.3
 _ZTIN5capnp10PersistentINS_10AnyPointerES1_E6ClientE@Base 0.5.3
 _ZTIN5capnp10VatNetworkINS_3rpc8twoparty5VatIdENS2_11ProvisionIdENS2_11RecipientIdENS2_15ThirdPartyCapIdENS2_10JoinResultEE10ConnectionE@Base 0.5.3
 _ZTIN5capnp10VatNetworkINS_3rpc8twoparty5VatIdENS2_11ProvisionIdENS2_11RecipientIdENS2_15ThirdPartyCapIdENS2_10JoinResultEEE@Base 0.5.3
 _ZTIN5capnp11EzRpcServer4ImplE@Base 0.5.3
 _ZTIN5capnp11LocalClientE@Base 0.5.3
 _ZTIN5capnp11RequestHookE@Base 0.5.3
 _ZTIN5capnp12EzRpcContextE@Base 0.5.3
 _ZTIN5capnp12LocalRequestE@Base 0.5.3
 _ZTIN5capnp12QueuedClientE@Base 0.5.3
 _ZTIN5capnp12RealmGatewayINS_10AnyPointerES1_S1_S1_E6ClientE@Base 0.5.3
 _ZTIN5capnp12ResponseHookE@Base 0.5.3
 _ZTIN5capnp13LocalPipelineE@Base 0.5.3
 _ZTIN5capnp13LocalResponseE@Base 0.5.3
 _ZTIN5capnp14QueuedPipelineE@Base 0.5.3
 _ZTIN5capnp14TwoPartyServerE@Base 0.5.3
 _ZTIN5capnp15CallContextHookE@Base 0.5.3
 _ZTIN5capnp16LocalCallContextE@Base 0.5.3
 _ZTIN5capnp17DynamicCapability6ServerE@Base 0.5.3
 _ZTIN5capnp17SturdyRefRestorerINS_10AnyPointerEEE@Base 0.5.3
 _ZTIN5capnp18IncomingRpcMessageE@Base 0.5.3
 _ZTIN5capnp18OutgoingRpcMessageE@Base 0.5.3
 _ZTIN5capnp18TwoPartyVatNetwork17FulfillerDisposerE@Base 0.5.3
 _ZTIN5capnp18TwoPartyVatNetwork19IncomingMessageImplE@Base 0.5.3
 _ZTIN5capnp18TwoPartyVatNetwork19OutgoingMessageImplE@Base 0.5.3
 _ZTIN5capnp18TwoPartyVatNetworkE@Base 0.5.3
 _ZTIN5capnp1_13RpcSystemBase4ImplE@Base 0.5.3
 _ZTIN5capnp1_14VatNetworkBase10ConnectionE@Base 0.5.3
 _ZTIN5capnp1_14VatNetworkBaseE@Base 0.5.3
 _ZTIN5capnp1_16BrokenCapFactoryE@Base 0.5.3
 _ZTIN5capnp1_21SturdyRefRestorerBaseE@Base 0.5.3
 _ZTIZN5capnp12QueuedClient4callEmtON2kj3OwnINS_15CallContextHookEEEE16CallResultHolder@Base 0.5.3
 _ZTSN2kj16PromiseFulfillerIN5capnp10AnyPointer8PipelineEEE@Base 0.5.3
 _ZTSN2kj16PromiseFulfillerINS_3OwnIN5capnp10ClientHookEEEEE@Base 0.5.3
 _ZTSN2kj16PromiseFulfillerINS_3OwnIN5capnp10VatNetworkINS2_3rpc8twoparty5VatIdENS5_11ProvisionIdENS5_11RecipientIdENS5_15ThirdPartyCapIdENS5_10JoinResultEE10ConnectionEEEEE@Base 0.5.3
 _ZTSN2kj16PromiseFulfillerIjEE@Base 0.5.3
 _ZTSN2kj16PromiseFulfillerIvEE@Base 0.5.3
 _ZTSN2kj1_10ForkBranchINS0_4VoidEEE@Base 0.5.3
 _ZTSN2kj1_10ForkBranchINS_3OwnIN5capnp10ClientHookEEEEE@Base 0.5.3
 _ZTSN2kj1_10ForkBranchINS_3OwnIN5capnp12PipelineHookEEEEE@Base 0.5.3
 _ZTSN2kj1_10ForkBranchINS_3OwnIZN5capnp12QueuedClient4callEmtONS2_INS3_15CallContextHookEEEE16CallResultHolderEEEE@Base 0.5.3
 _ZTSN2kj1_10ForkBranchIjEE@Base 0.5.3
 _ZTSN2kj1_12HeapDisposerIN5capnp11EzRpcClient4Impl13ClientContextEEE@Base 0.5.3
 _ZTSN2kj1_12HeapDisposerIN5capnp11EzRpcClient4ImplEEE@Base 0.5.3
 _ZTSN2kj1_12HeapDisposerIN5capnp11EzRpcServer4Impl13ServerContextEEE@Base 0.5.3
 _ZTSN2kj1_12HeapDisposerIN5capnp11EzRpcServer4ImplEEE@Base 0.5.3
 _ZTSN2kj1_12HeapDisposerIN5capnp12LocalRequestEEE@Base 0.5.3
 _ZTSN2kj1_12HeapDisposerIN5capnp14TwoPartyServer18AcceptedConnectionEEE@Base 0.5.3
 _ZTSN2kj1_12HeapDisposerIN5capnp18TwoPartyVatNetwork19IncomingMessageImplEEE@Base 0.5.3
 _ZTSN2kj1_12HeapDisposerIN5capnp1_13RpcSystemBase4ImplEEE@Base 0.5.3
 _ZTSN2kj1_12HeapDisposerIN5capnp20MallocMessageBuilderEEE@Base 0.5.3
 _ZTSN2kj1_12HeapDisposerINS0_10ForkBranchINS0_4VoidEEEEE@Base 0.5.3
 _ZTSN2kj1_12HeapDisposerINS0_10ForkBranchINS_3OwnIN5capnp10ClientHookEEEEEEE@Base 0.5.3
 _ZTSN2kj1_12HeapDisposerINS0_10ForkBranchINS_3OwnIN5capnp12PipelineHookEEEEEEE@Base 0.5.3
 _ZTSN2kj1_12HeapDisposerINS0_10ForkBranchINS_3OwnIZN5capnp12QueuedClient4callEmtONS3_INS4_15CallContextHookEEEE16CallResultHolderEEEEEE@Base 0.5.3
 _ZTSN2kj1_12HeapDisposerINS0_10ForkBranchIjEEEE@Base 0.5.3
 _ZTSN2kj1_12HeapDisposerINS0_16ChainPromiseNodeEEE@Base 0.5.3
 _ZTSN2kj1_12HeapDisposerINS0_16EagerPromiseNodeINS0_4VoidEEEEE@Base 0.5.3
 _ZTSN2kj1_12HeapDisposerINS0_18AdapterPromiseNodeIN5capnp10AnyPointer8PipelineENS0_26PromiseAndFulfillerAdapterIS5_EEEEEE@Base 0.5.3
 _ZTSN2kj1_12HeapDisposerINS0_18AdapterPromiseNodeINS0_4VoidENS0_26PromiseAndFulfillerAdapterIvEEEEEE@Base 0.5.3
 _ZTSN2kj1_12HeapDisposerINS0_18AdapterPromiseNodeINS_3OwnIN5capnp10ClientHookEEENS0_26PromiseAndFulfillerAdapterIS6_EEEEEE@Base 0.5.3
 _ZTSN2kj1_12HeapDisposerINS0_18AdapterPromiseNodeINS_3OwnIN5capnp10VatNetworkINS4_3rpc8twoparty5VatIdENS7_11ProvisionIdENS7_11RecipientIdENS7_15ThirdPartyCapIdENS7_10JoinResultEE10ConnectionEEENS0_26PromiseAndFulfillerAdapterISF_EEEEEE@Base 0.5.3
 _ZTSN2kj1_12HeapDisposerINS0_18AdapterPromiseNodeIjNS0_26PromiseAndFulfillerAdapterIjEEEEEE@Base 0.5.3
 _ZTSN2kj1_12HeapDisposerINS0_20ImmediatePromiseNodeINS0_4VoidEEEEE@Base 0.5.3
 _ZTSN2kj1_12HeapDisposerINS0_20ImmediatePromiseNodeINS_3OwnIN5capnp10VatNetworkINS4_3rpc8twoparty5VatIdENS7_11ProvisionIdENS7_11RecipientIdENS7_15ThirdPartyCapIdENS7_10JoinResultEE10ConnectionEEEEEEE@Base 0.5.3
 _ZTSN2kj1_12HeapDisposerINS0_20ImmediatePromiseNodeIPvEEEE@Base 0.5.3
 _ZTSN2kj1_12HeapDisposerINS0_20ImmediatePromiseNodeIbEEEE@Base 0.5.3
 _ZTSN2kj1_12HeapDisposerINS0_20ImmediatePromiseNodeIjEEEE@Base 0.5.3
 _ZTSN2kj1_12HeapDisposerINS0_20TransformPromiseNodeIN5capnp8ResponseINS3_10AnyPointerEEENS0_4VoidENS_13CaptureByMoveIZNS3_12LocalRequest4sendEvEUlONS_3OwnINS3_16LocalCallContextEEEE0_SC_EENS0_18PropagateExceptionEEEEE@Base 0.5.3
 _ZTSN2kj1_12HeapDisposerINS0_20TransformPromiseNodeIN5capnp8ResponseINS3_10AnyPointerEEES6_ZNS3_7RequestIS5_S5_E4sendEvEUlOS6_E_NS0_18PropagateExceptionEEEEE@Base 0.5.3
 _ZTSN2kj1_12HeapDisposerINS0_20TransformPromiseNodeINS0_4VoidEN5capnp8ResponseINS4_10AnyPointerEEEZNS4_16LocalCallContext14directTailCallEONS_3OwnINS4_11RequestHookEEEEUlOS7_E_NS0_18PropagateExceptionEEEEE@Base 0.5.3
 _ZTSN2kj1_12HeapDisposerINS0_20TransformPromiseNodeINS0_4VoidENS_3OwnIN5capnp10ClientHookEEEZNS5_12QueuedClientC4EONS_7PromiseIS7_EEEUlOS7_E_ZNS8_C4ESB_EUlONS_9ExceptionEE0_EEEE@Base 0.5.3
 _ZTSN2kj1_12HeapDisposerINS0_20TransformPromiseNodeINS0_4VoidENS_3OwnIN5capnp12PipelineHookEEEZNS5_14QueuedPipelineC4EONS_7PromiseIS7_EEEUlOS7_E_ZNS8_C4ESB_EUlONS_9ExceptionEE0_EEEE@Base 0.5.3
 _ZTSN2kj1_12HeapDisposerINS0_20TransformPromiseNodeINS0_4VoidENS_3OwnIN5capnp1_14VatNetworkBase10ConnectionEEEZNS6_13RpcSystemBase4Impl10acceptLoopEvEUlOS9_E_NS0_18PropagateExceptionEEEEE@Base 0.5.3
 _ZTSN2kj1_12HeapDisposerINS0_20TransformPromiseNodeINS0_4VoidENS_3OwnINS_13AsyncIoStreamEEENS_13CaptureByMoveIZN5capnp11EzRpcServer4Impl10acceptLoopEONS4_INS_18ConnectionReceiverEEENS8_13ReaderOptionsEEUlSD_OS6_E_SC_EENS0_18PropagateExceptionEEEEE@Base 0.5.3
 _ZTSN2kj1_12HeapDisposerINS0_20TransformPromiseNodeINS0_4VoidENS_3OwnINS_13AsyncIoStreamEEEZN5capnp11EzRpcClient4ImplC4ENS_9StringPtrEjNS7_13ReaderOptionsEEUlOS6_E0_NS0_18PropagateExceptionEEEEE@Base 0.5.3
 _ZTSN2kj1_12HeapDisposerINS0_20TransformPromiseNodeINS0_4VoidENS_3OwnINS_13AsyncIoStreamEEEZN5capnp11EzRpcClient4ImplC4EPK8sockaddrjNS7_13ReaderOptionsEEUlOS6_E_NS0_18PropagateExceptionEEEEE@Base 0.5.3
 _ZTSN2kj1_12HeapDisposerINS0_20TransformPromiseNodeINS0_4VoidENS_3OwnINS_14NetworkAddressEEENS_13CaptureByMoveIZN5capnp11EzRpcServer4ImplC4ENS8_10Capability6ClientENS_9StringPtrEjNS8_13ReaderOptionsEEUlONS4_INS_16PromiseFulfillerIjEEEEOS6_E_SH_EENS0_18PropagateExceptionEEEEE@Base 0.5.3
 _ZTSN2kj1_12HeapDisposerINS0_20TransformPromiseNodeINS0_4VoidES3_ZN5capnp1_13RpcSystemBase4Impl10acceptLoopEvEUlvE0_NS0_18PropagateExceptionEEEEE@Base 0.5.3
 _ZTSN2kj1_12HeapDisposerINS0_20TransformPromiseNodeINS0_4VoidES3_ZNS_7PromiseIvE6detachIZN5capnp12LocalRequest4sendEvEUlONS_9ExceptionEE_EEvOT_EUlvE_SB_EEEE@Base 0.5.3
 _ZTSN2kj1_12HeapDisposerINS0_20TransformPromiseNodeINS_3OwnIN5capnp10ClientHookEEENS4_10Capability6ClientEZNS8_C4IS8_vEEONS_7PromiseIT_EEEUlOS8_E_NS0_18PropagateExceptionEEEEE@Base 0.5.3
 _ZTSN2kj1_12HeapDisposerINS0_20TransformPromiseNodeINS_3OwnIN5capnp12PipelineHookEEENS0_4VoidENS_13CaptureByMoveIZNS4_11LocalClient4callEmtONS3_INS4_15CallContextHookEEEEUlSC_E0_SB_EENS0_18PropagateExceptionEEEEE@Base 0.5.3
 _ZTSN2kj1_12HeapDisposerINS0_20TransformPromiseNodeINS_3OwnIN5capnp12PipelineHookEEENS3_IZNS4_12QueuedClient4callEmtONS3_INS4_15CallContextHookEEEE16CallResultHolderEEZNS7_4callEmtSA_EUlOSC_E0_NS0_18PropagateExceptionEEEEE@Base 0.5.3
 _ZTSN2kj1_12HeapDisposerINS0_20TransformPromiseNodeINS_3OwnIN5capnp12PipelineHookEEENS4_10AnyPointer8PipelineEZNS4_11LocalClient4callEmtONS3_INS4_15CallContextHookEEEEUlOS8_E1_NS0_18PropagateExceptionEEEEE@Base 0.5.3
 _ZTSN2kj1_12HeapDisposerINS0_20TransformPromiseNodeINS_3OwnIN5capnp1_14VatNetworkBase10ConnectionEEENS3_INS4_10VatNetworkINS4_3rpc8twoparty5VatIdENSB_11ProvisionIdENSB_11RecipientIdENSB_15ThirdPartyCapIdENSB_10JoinResultEE10ConnectionEEEZNSH_10baseAcceptEvEUlOSJ_E_NS0_18PropagateExceptionEEEEE@Base 0.5.3
 _ZTSN2kj1_12HeapDisposerINS0_20TransformPromiseNodeINS_3OwnIZN5capnp12QueuedClient4callEmtONS3_INS4_15CallContextHookEEEE16CallResultHolderEENS3_INS4_10ClientHookEEENS_13CaptureByMoveIZNS5_4callEmtS8_EUlS8_OSC_E_S7_EENS0_18PropagateExceptionEEEEE@Base 0.5.3
 _ZTSN2kj1_12HeapDisposerINS0_20TransformPromiseNodeINS_7PromiseINS_3OwnINS_13AsyncIoStreamEEEEENS4_INS_14NetworkAddressEEEZN5capnp11EzRpcClient4ImplC4ENS_9StringPtrEjNSA_13ReaderOptionsEEUlOS9_E_NS0_18PropagateExceptionEEEEE@Base 0.5.3
 _ZTSN2kj1_12HeapDisposerINS0_20TransformPromiseNodeINS_7PromiseIvEENS0_4VoidEZN5capnp11LocalClient4callEmtONS_3OwnINS6_15CallContextHookEEEEUlvE_NS0_18PropagateExceptionEEEEE@Base 0.5.3
 _ZTSN2kj1_12HeapDisposerINS0_20TransformPromiseNodeINS_7PromiseIvEENS0_4VoidEZN5capnp18TwoPartyVatNetwork19OutgoingMessageImpl4sendEvEUlvE_NS0_18PropagateExceptionEEEEE@Base 0.5.3
 _ZTSN2kj1_12HeapDisposerINS0_20TransformPromiseNodeINS_7PromiseIvEENS_3OwnIZN5capnp12QueuedClient4callEmtONS5_INS6_15CallContextHookEEEE16CallResultHolderEEZNS7_4callEmtSA_EUlOSC_E1_NS0_18PropagateExceptionEEEEE@Base 0.5.3
 _ZTSN2kj1_12HeapDisposerINS0_21AttachmentPromiseNodeINS_3OwnIN5capnp10ClientHookEEEEEEE@Base 0.5.3
 _ZTSN2kj1_12HeapDisposerINS0_21AttachmentPromiseNodeINS_3OwnIN5capnp11EzRpcServer4Impl13ServerContextEEEEEEE@Base 0.5.3
 _ZTSN2kj1_12HeapDisposerINS0_21AttachmentPromiseNodeINS_3OwnIN5capnp11LocalClientEEEEEEE@Base 0.5.3
 _ZTSN2kj1_12HeapDisposerINS0_21AttachmentPromiseNodeINS_3OwnIN5capnp14TwoPartyServer18AcceptedConnectionEEEEEEE@Base 0.5.3
 _ZTSN2kj1_12HeapDisposerINS0_21AttachmentPromiseNodeINS_3OwnIN5capnp15CallContextHookEEEEEEE@Base 0.5.3
 _ZTSN2kj1_12HeapDisposerINS0_21AttachmentPromiseNodeINS_3OwnIN5capnp16LocalCallContextEEEEEEE@Base 0.5.3
 _ZTSN2kj1_12HeapDisposerINS0_21AttachmentPromiseNodeINS_3OwnIN5capnp18TwoPartyVatNetwork19OutgoingMessageImplEEEEEEE@Base 0.5.3
 _ZTSN2kj1_12HeapDisposerINS0_21AttachmentPromiseNodeINS_3OwnIN5capnp1_14VatNetworkBase10ConnectionEEEEEEE@Base 0.5.3
 _ZTSN2kj1_12HeapDisposerINS0_21AttachmentPromiseNodeINS_3OwnINS_14NetworkAddressEEEEEEE@Base 0.5.3
 _ZTSN2kj1_12HeapDisposerINS0_24ExclusiveJoinPromiseNodeEEE@Base 0.5.3
 _ZTSN2kj1_12HeapDisposerINS0_26ImmediateBrokenPromiseNodeEEE@Base 0.5.3
 _ZTSN2kj1_12RunnableImplIZN5capnp1_13RpcSystemBase4ImplD4EvEUlvE_EE@Base 0.5.3
 _ZTSN2kj1_13WeakFulfillerIN5capnp10AnyPointer8PipelineEEE@Base 0.5.3
 _ZTSN2kj1_13WeakFulfillerINS_3OwnIN5capnp10ClientHookEEEEE@Base 0.5.3
 _ZTSN2kj1_13WeakFulfillerINS_3OwnIN5capnp10VatNetworkINS3_3rpc8twoparty5VatIdENS6_11ProvisionIdENS6_11RecipientIdENS6_15ThirdPartyCapIdENS6_10JoinResultEE10ConnectionEEEEE@Base 0.5.3
 _ZTSN2kj1_13WeakFulfillerIjEE@Base 0.5.3
 _ZTSN2kj1_13WeakFulfillerIvEE@Base 0.5.3
 _ZTSN2kj1_16EagerPromiseNodeINS0_4VoidEEE@Base 0.5.3
 _ZTSN2kj1_18AdapterPromiseNodeIN5capnp10AnyPointer8PipelineENS0_26PromiseAndFulfillerAdapterIS4_EEEE@Base 0.5.3
 _ZTSN2kj1_18AdapterPromiseNodeINS0_4VoidENS0_26PromiseAndFulfillerAdapterIvEEEE@Base 0.5.3
 _ZTSN2kj1_18AdapterPromiseNodeINS_3OwnIN5capnp10ClientHookEEENS0_26PromiseAndFulfillerAdapterIS5_EEEE@Base 0.5.3
 _ZTSN2kj1_18AdapterPromiseNodeINS_3OwnIN5capnp10VatNetworkINS3_3rpc8twoparty5VatIdENS6_11ProvisionIdENS6_11RecipientIdENS6_15ThirdPartyCapIdENS6_10JoinResultEE10ConnectionEEENS0_26PromiseAndFulfillerAdapterISE_EEEE@Base 0.5.3
 _ZTSN2kj1_18AdapterPromiseNodeIjNS0_26PromiseAndFulfillerAdapterIjEEEE@Base 0.5.3
 _ZTSN2kj1_20ImmediatePromiseNodeINS0_4VoidEEE@Base 0.5.3
 _ZTSN2kj1_20ImmediatePromiseNodeINS_3OwnIN5capnp10VatNetworkINS3_3rpc8twoparty5VatIdENS6_11ProvisionIdENS6_11RecipientIdENS6_15ThirdPartyCapIdENS6_10JoinResultEE10ConnectionEEEEE@Base 0.5.3
 _ZTSN2kj1_20ImmediatePromiseNodeIPvEE@Base 0.5.3
 _ZTSN2kj1_20ImmediatePromiseNodeIbEE@Base 0.5.3
 _ZTSN2kj1_20ImmediatePromiseNodeIjEE@Base 0.5.3
 _ZTSN2kj1_20TransformPromiseNodeIN5capnp8ResponseINS2_10AnyPointerEEENS0_4VoidENS_13CaptureByMoveIZNS2_12LocalRequest4sendEvEUlONS_3OwnINS2_16LocalCallContextEEEE0_SB_EENS0_18PropagateExceptionEEE@Base 0.5.3
 _ZTSN2kj1_20TransformPromiseNodeIN5capnp8ResponseINS2_10AnyPointerEEES5_ZNS2_7RequestIS4_S4_E4sendEvEUlOS5_E_NS0_18PropagateExceptionEEE@Base 0.5.3
 _ZTSN2kj1_20TransformPromiseNodeINS0_4VoidEN5capnp8ResponseINS3_10AnyPointerEEEZNS3_16LocalCallContext14directTailCallEONS_3OwnINS3_11RequestHookEEEEUlOS6_E_NS0_18PropagateExceptionEEE@Base 0.5.3
 _ZTSN2kj1_20TransformPromiseNodeINS0_4VoidENS_3OwnIN5capnp10ClientHookEEEZNS4_12QueuedClientC4EONS_7PromiseIS6_EEEUlOS6_E_ZNS7_C4ESA_EUlONS_9ExceptionEE0_EE@Base 0.5.3
 _ZTSN2kj1_20TransformPromiseNodeINS0_4VoidENS_3OwnIN5capnp12PipelineHookEEEZNS4_14QueuedPipelineC4EONS_7PromiseIS6_EEEUlOS6_E_ZNS7_C4ESA_EUlONS_9ExceptionEE0_EE@Base 0.5.3
 _ZTSN2kj1_20TransformPromiseNodeINS0_4VoidENS_3OwnIN5capnp1_14VatNetworkBase10ConnectionEEEZNS5_13RpcSystemBase4Impl10acceptLoopEvEUlOS8_E_NS0_18PropagateExceptionEEE@Base 0.5.3
 _ZTSN2kj1_20TransformPromiseNodeINS0_4VoidENS_3OwnINS_13AsyncIoStreamEEENS_13CaptureByMoveIZN5capnp11EzRpcServer4Impl10acceptLoopEONS3_INS_18ConnectionReceiverEEENS7_13ReaderOptionsEEUlSC_OS5_E_SB_EENS0_18PropagateExceptionEEE@Base 0.5.3
 _ZTSN2kj1_20TransformPromiseNodeINS0_4VoidENS_3OwnINS_13AsyncIoStreamEEEZN5capnp11EzRpcClient4ImplC4ENS_9StringPtrEjNS6_13ReaderOptionsEEUlOS5_E0_NS0_18PropagateExceptionEEE@Base 0.5.3
 _ZTSN2kj1_20TransformPromiseNodeINS0_4VoidENS_3OwnINS_13AsyncIoStreamEEEZN5capnp11EzRpcClient4ImplC4EPK8sockaddrjNS6_13ReaderOptionsEEUlOS5_E_NS0_18PropagateExceptionEEE@Base 0.5.3
 _ZTSN2kj1_20TransformPromiseNodeINS0_4VoidENS_3OwnINS_14NetworkAddressEEENS_13CaptureByMoveIZN5capnp11EzRpcServer4ImplC4ENS7_10Capability6ClientENS_9StringPtrEjNS7_13ReaderOptionsEEUlONS3_INS_16PromiseFulfillerIjEEEEOS5_E_SG_EENS0_18PropagateExceptionEEE@Base 0.5.3
 _ZTSN2kj1_20TransformPromiseNodeINS0_4VoidES2_ZN5capnp1_13RpcSystemBase4Impl10acceptLoopEvEUlvE0_NS0_18PropagateExceptionEEE@Base 0.5.3
 _ZTSN2kj1_20TransformPromiseNodeINS0_4VoidES2_ZNS_7PromiseIvE6detachIZN5capnp12LocalRequest4sendEvEUlONS_9ExceptionEE_EEvOT_EUlvE_SA_EE@Base 0.5.3
 _ZTSN2kj1_20TransformPromiseNodeINS_3OwnIN5capnp10ClientHookEEENS3_10Capability6ClientEZNS7_C4IS7_vEEONS_7PromiseIT_EEEUlOS7_E_NS0_18PropagateExceptionEEE@Base 0.5.3
 _ZTSN2kj1_20TransformPromiseNodeINS_3OwnIN5capnp12PipelineHookEEENS0_4VoidENS_13CaptureByMoveIZNS3_11LocalClient4callEmtONS2_INS3_15CallContextHookEEEEUlSB_E0_SA_EENS0_18PropagateExceptionEEE@Base 0.5.3
 _ZTSN2kj1_20TransformPromiseNodeINS_3OwnIN5capnp12PipelineHookEEENS2_IZNS3_12QueuedClient4callEmtONS2_INS3_15CallContextHookEEEE16CallResultHolderEEZNS6_4callEmtS9_EUlOSB_E0_NS0_18PropagateExceptionEEE@Base 0.5.3
 _ZTSN2kj1_20TransformPromiseNodeINS_3OwnIN5capnp12PipelineHookEEENS3_10AnyPointer8PipelineEZNS3_11LocalClient4callEmtONS2_INS3_15CallContextHookEEEEUlOS7_E1_NS0_18PropagateExceptionEEE@Base 0.5.3
 _ZTSN2kj1_20TransformPromiseNodeINS_3OwnIN5capnp1_14VatNetworkBase10ConnectionEEENS2_INS3_10VatNetworkINS3_3rpc8twoparty5VatIdENSA_11ProvisionIdENSA_11RecipientIdENSA_15ThirdPartyCapIdENSA_10JoinResultEE10ConnectionEEEZNSG_10baseAcceptEvEUlOSI_E_NS0_18PropagateExceptionEEE@Base 0.5.3
 _ZTSN2kj1_20TransformPromiseNodeINS_3OwnIZN5capnp12QueuedClient4callEmtONS2_INS3_15CallContextHookEEEE16CallResultHolderEENS2_INS3_10ClientHookEEENS_13CaptureByMoveIZNS4_4callEmtS7_EUlS7_OSB_E_S6_EENS0_18PropagateExceptionEEE@Base 0.5.3
 _ZTSN2kj1_20TransformPromiseNodeINS_7PromiseINS_3OwnINS_13AsyncIoStreamEEEEENS3_INS_14NetworkAddressEEEZN5capnp11EzRpcClient4ImplC4ENS_9StringPtrEjNS9_13ReaderOptionsEEUlOS8_E_NS0_18PropagateExceptionEEE@Base 0.5.3
 _ZTSN2kj1_20TransformPromiseNodeINS_7PromiseIvEENS0_4VoidEZN5capnp11LocalClient4callEmtONS_3OwnINS5_15CallContextHookEEEEUlvE_NS0_18PropagateExceptionEEE@Base 0.5.3
 _ZTSN2kj1_20TransformPromiseNodeINS_7PromiseIvEENS0_4VoidEZN5capnp18TwoPartyVatNetwork19OutgoingMessageImpl4sendEvEUlvE_NS0_18PropagateExceptionEEE@Base 0.5.3
 _ZTSN2kj1_20TransformPromiseNodeINS_7PromiseIvEENS_3OwnIZN5capnp12QueuedClient4callEmtONS4_INS5_15CallContextHookEEEE16CallResultHolderEEZNS6_4callEmtS9_EUlOSB_E1_NS0_18PropagateExceptionEEE@Base 0.5.3
 _ZTSN2kj1_21AttachmentPromiseNodeINS_3OwnIN5capnp10ClientHookEEEEE@Base 0.5.3
 _ZTSN2kj1_21AttachmentPromiseNodeINS_3OwnIN5capnp11EzRpcServer4Impl13ServerContextEEEEE@Base 0.5.3
 _ZTSN2kj1_21AttachmentPromiseNodeINS_3OwnIN5capnp11LocalClientEEEEE@Base 0.5.3
 _ZTSN2kj1_21AttachmentPromiseNodeINS_3OwnIN5capnp14TwoPartyServer18AcceptedConnectionEEEEE@Base 0.5.3
 _ZTSN2kj1_21AttachmentPromiseNodeINS_3OwnIN5capnp15CallContextHookEEEEE@Base 0.5.3
 _ZTSN2kj1_21AttachmentPromiseNodeINS_3OwnIN5capnp16LocalCallContextEEEEE@Base 0.5.3
 _ZTSN2kj1_21AttachmentPromiseNodeINS_3OwnIN5capnp18TwoPartyVatNetwork19OutgoingMessageImplEEEEE@Base 0.5.3
 _ZTSN2kj1_21AttachmentPromiseNodeINS_3OwnIN5capnp1_14VatNetworkBase10ConnectionEEEEE@Base 0.5.3
 _ZTSN2kj1_21AttachmentPromiseNodeINS_3OwnINS_14NetworkAddressEEEEE@Base 0.5.3
 _ZTSN2kj1_7ForkHubINS0_4VoidEEE@Base 0.5.3
 _ZTSN2kj1_7ForkHubINS_3OwnIN5capnp10ClientHookEEEEE@Base 0.5.3
 _ZTSN2kj1_7ForkHubINS_3OwnIN5capnp12PipelineHookEEEEE@Base 0.5.3
 _ZTSN2kj1_7ForkHubINS_3OwnIZN5capnp12QueuedClient4callEmtONS2_INS3_15CallContextHookEEEE16CallResultHolderEEEE@Base 0.5.3
 _ZTSN2kj1_7ForkHubIjEE@Base 0.5.3
 _ZTSN2kj1_8RunnableE@Base 0.5.3
 _ZTSN2kj7TaskSet12ErrorHandlerE@Base 0.5.3
 _ZTSN2kj8DisposerE@Base 0.5.3
 _ZTSN5capnp10Capability6ClientE@Base 0.5.3
 _ZTSN5capnp10Capability6ServerE@Base 0.5.3
 _ZTSN5capnp10ClientHookE@Base 0.5.3
 _ZTSN5capnp10PersistentINS_10AnyPointerES1_E6ClientE@Base 0.5.3
 _ZTSN5capnp10VatNetworkINS_3rpc8twoparty5VatIdENS2_11ProvisionIdENS2_11RecipientIdENS2_15ThirdPartyCapIdENS2_10JoinResultEE10ConnectionE@Base 0.5.3
 _ZTSN5capnp10VatNetworkINS_3rpc8twoparty5VatIdENS2_11ProvisionIdENS2_11RecipientIdENS2_15ThirdPartyCapIdENS2_10JoinResultEEE@Base 0.5.3
 _ZTSN5capnp11EzRpcServer4ImplE@Base 0.5.3
 _ZTSN5capnp11LocalClientE@Base 0.5.3
 _ZTSN5capnp11RequestHookE@Base 0.5.3
 _ZTSN5capnp12EzRpcContextE@Base 0.5.3
 _ZTSN5capnp12LocalRequestE@Base 0.5.3
 _ZTSN5capnp12QueuedClientE@Base 0.5.3
 _ZTSN5capnp12RealmGatewayINS_10AnyPointerES1_S1_S1_E6ClientE@Base 0.5.3
 _ZTSN5capnp12ResponseHookE@Base 0.5.3
 _ZTSN5capnp13LocalPipelineE@Base 0.5.3
 _ZTSN5capnp13LocalResponseE@Base 0.5.3
 _ZTSN5capnp14QueuedPipelineE@Base 0.5.3
 _ZTSN5capnp14TwoPartyServerE@Base 0.5.3
 _ZTSN5capnp15CallContextHookE@Base 0.5.3
 _ZTSN5capnp16LocalCallContextE@Base 0.5.3
 _ZTSN5capnp17DynamicCapability6ServerE@Base 0.5.3
 _ZTSN5capnp17SturdyRefRestorerINS_10AnyPointerEEE@Base 0.5.3
 _ZTSN5capnp18IncomingRpcMessageE@Base 0.5.3
 _ZTSN5capnp18OutgoingRpcMessageE@Base 0.5.3
 _ZTSN5capnp18TwoPartyVatNetwork17FulfillerDisposerE@Base 0.5.3
 _ZTSN5capnp18TwoPartyVatNetwork19IncomingMessageImplE@Base 0.5.3
 _ZTSN5capnp18TwoPartyVatNetwork19OutgoingMessageImplE@Base 0.5.3
 _ZTSN5capnp18TwoPartyVatNetworkE@Base 0.5.3
 _ZTSN5capnp1_13RpcSystemBase4ImplE@Base 0.5.3
 _ZTSN5capnp1_14VatNetworkBase10ConnectionE@Base 0.5.3
 _ZTSN5capnp1_14VatNetworkBaseE@Base 0.5.3
 _ZTSN5capnp1_16BrokenCapFactoryE@Base 0.5.3
 _ZTSN5capnp1_21SturdyRefRestorerBaseE@Base 0.5.3
 _ZTSZN5capnp12QueuedClient4callEmtON2kj3OwnINS_15CallContextHookEEEE16CallResultHolder@Base 0.5.3
 _ZTTN5capnp10PersistentINS_10AnyPointerES1_E6ClientE@Base 0.5.3
 _ZTTN5capnp12RealmGatewayINS_10AnyPointerES1_S1_S1_E6ClientE@Base 0.5.3
 _ZTVN2kj1_10ForkBranchINS0_4VoidEEE@Base 0.5.3
 _ZTVN2kj1_10ForkBranchINS_3OwnIN5capnp10ClientHookEEEEE@Base 0.5.3
 _ZTVN2kj1_10ForkBranchINS_3OwnIN5capnp12PipelineHookEEEEE@Base 0.5.3
 _ZTVN2kj1_10ForkBranchINS_3OwnIZN5capnp12QueuedClient4callEmtONS2_INS3_15CallContextHookEEEE16CallResultHolderEEEE@Base 0.5.3
 _ZTVN2kj1_10ForkBranchIjEE@Base 0.5.3
 _ZTVN2kj1_12HeapDisposerIN5capnp11EzRpcClient4Impl13ClientContextEEE@Base 0.5.3
 _ZTVN2kj1_12HeapDisposerIN5capnp11EzRpcClient4ImplEEE@Base 0.5.3
 _ZTVN2kj1_12HeapDisposerIN5capnp11EzRpcServer4Impl13ServerContextEEE@Base 0.5.3
 _ZTVN2kj1_12HeapDisposerIN5capnp11EzRpcServer4ImplEEE@Base 0.5.3
 _ZTVN2kj1_12HeapDisposerIN5capnp12LocalRequestEEE@Base 0.5.3
 _ZTVN2kj1_12HeapDisposerIN5capnp14TwoPartyServer18AcceptedConnectionEEE@Base 0.5.3
 _ZTVN2kj1_12HeapDisposerIN5capnp18TwoPartyVatNetwork19IncomingMessageImplEEE@Base 0.5.3
 _ZTVN2kj1_12HeapDisposerIN5capnp1_13RpcSystemBase4ImplEEE@Base 0.5.3
 _ZTVN2kj1_12HeapDisposerIN5capnp20MallocMessageBuilderEEE@Base 0.5.3
 _ZTVN2kj1_12HeapDisposerINS0_10ForkBranchINS0_4VoidEEEEE@Base 0.5.3
 _ZTVN2kj1_12HeapDisposerINS0_10ForkBranchINS_3OwnIN5capnp10ClientHookEEEEEEE@Base 0.5.3
 _ZTVN2kj1_12HeapDisposerINS0_10ForkBranchINS_3OwnIN5capnp12PipelineHookEEEEEEE@Base 0.5.3
 _ZTVN2kj1_12HeapDisposerINS0_10ForkBranchINS_3OwnIZN5capnp12QueuedClient4callEmtONS3_INS4_15CallContextHookEEEE16CallResultHolderEEEEEE@Base 0.5.3
 _ZTVN2kj1_12HeapDisposerINS0_10ForkBranchIjEEEE@Base 0.5.3
 _ZTVN2kj1_12HeapDisposerINS0_16ChainPromiseNodeEEE@Base 0.5.3
 _ZTVN2kj1_12HeapDisposerINS0_16EagerPromiseNodeINS0_4VoidEEEEE@Base 0.5.3
 _ZTVN2kj1_12HeapDisposerINS0_18AdapterPromiseNodeIN5capnp10AnyPointer8PipelineENS0_26PromiseAndFulfillerAdapterIS5_EEEEEE@Base 0.5.3
 _ZTVN2kj1_12HeapDisposerINS0_18AdapterPromiseNodeINS0_4VoidENS0_26PromiseAndFulfillerAdapterIvEEEEEE@Base 0.5.3
 _ZTVN2kj1_12HeapDisposerINS0_18AdapterPromiseNodeINS_3OwnIN5capnp10ClientHookEEENS0_26PromiseAndFulfillerAdapterIS6_EEEEEE@Base 0.5.3
 _ZTVN2kj1_12HeapDisposerINS0_18AdapterPromiseNodeINS_3OwnIN5capnp10VatNetworkINS4_3rpc8twoparty5VatIdENS7_11ProvisionIdENS7_11RecipientIdENS7_15ThirdPartyCapIdENS7_10JoinResultEE10ConnectionEEENS0_26PromiseAndFulfillerAdapterISF_EEEEEE@Base 0.5.3
 _ZTVN2kj1_12HeapDisposerINS0_18AdapterPromiseNodeIjNS0_26PromiseAndFulfillerAdapterIjEEEEEE@Base 0.5.3
 _ZTVN2kj1_12HeapDisposerINS0_20ImmediatePromiseNodeINS0_4VoidEEEEE@Base 0.5.3
 _ZTVN2kj1_12HeapDisposerINS0_20ImmediatePromiseNodeINS_3OwnIN5capnp10VatNetworkINS4_3rpc8twoparty5VatIdENS7_11ProvisionIdENS7_11RecipientIdENS7_15ThirdPartyCapIdENS7_10JoinResultEE10ConnectionEEEEEEE@Base 0.5.3
 _ZTVN2kj1_12HeapDisposerINS0_20ImmediatePromiseNodeIPvEEEE@Base 0.5.3
 _ZTVN2kj1_12HeapDisposerINS0_20ImmediatePromiseNodeIbEEEE@Base 0.5.3
 _ZTVN2kj1_12HeapDisposerINS0_20ImmediatePromiseNodeIjEEEE@Base 0.5.3
 _ZTVN2kj1_12HeapDisposerINS0_20TransformPromiseNodeIN5capnp8ResponseINS3_10AnyPointerEEENS0_4VoidENS_13CaptureByMoveIZNS3_12LocalRequest4sendEvEUlONS_3OwnINS3_16LocalCallContextEEEE0_SC_EENS0_18PropagateExceptionEEEEE@Base 0.5.3
 _ZTVN2kj1_12HeapDisposerINS0_20TransformPromiseNodeIN5capnp8ResponseINS3_10AnyPointerEEES6_ZNS3_7RequestIS5_S5_E4sendEvEUlOS6_E_NS0_18PropagateExceptionEEEEE@Base 0.5.3
 _ZTVN2kj1_12HeapDisposerINS0_20TransformPromiseNodeINS0_4VoidEN5capnp8ResponseINS4_10AnyPointerEEEZNS4_16LocalCallContext14directTailCallEONS_3OwnINS4_11RequestHookEEEEUlOS7_E_NS0_18PropagateExceptionEEEEE@Base 0.5.3
 _ZTVN2kj1_12HeapDisposerINS0_20TransformPromiseNodeINS0_4VoidENS_3OwnIN5capnp10ClientHookEEEZNS5_12QueuedClientC4EONS_7PromiseIS7_EEEUlOS7_E_ZNS8_C4ESB_EUlONS_9ExceptionEE0_EEEE@Base 0.5.3
 _ZTVN2kj1_12HeapDisposerINS0_20TransformPromiseNodeINS0_4VoidENS_3OwnIN5capnp12PipelineHookEEEZNS5_14QueuedPipelineC4EONS_7PromiseIS7_EEEUlOS7_E_ZNS8_C4ESB_EUlONS_9ExceptionEE0_EEEE@Base 0.5.3
 _ZTVN2kj1_12HeapDisposerINS0_20TransformPromiseNodeINS0_4VoidENS_3OwnIN5capnp1_14VatNetworkBase10ConnectionEEEZNS6_13RpcSystemBase4Impl10acceptLoopEvEUlOS9_E_NS0_18PropagateExceptionEEEEE@Base 0.5.3
 _ZTVN2kj1_12HeapDisposerINS0_20TransformPromiseNodeINS0_4VoidENS_3OwnINS_13AsyncIoStreamEEENS_13CaptureByMoveIZN5capnp11EzRpcServer4Impl10acceptLoopEONS4_INS_18ConnectionReceiverEEENS8_13ReaderOptionsEEUlSD_OS6_E_SC_EENS0_18PropagateExceptionEEEEE@Base 0.5.3
 _ZTVN2kj1_12HeapDisposerINS0_20TransformPromiseNodeINS0_4VoidENS_3OwnINS_13AsyncIoStreamEEEZN5capnp11EzRpcClient4ImplC4ENS_9StringPtrEjNS7_13ReaderOptionsEEUlOS6_E0_NS0_18PropagateExceptionEEEEE@Base 0.5.3
 _ZTVN2kj1_12HeapDisposerINS0_20TransformPromiseNodeINS0_4VoidENS_3OwnINS_13AsyncIoStreamEEEZN5capnp11EzRpcClient4ImplC4EPK8sockaddrjNS7_13ReaderOptionsEEUlOS6_E_NS0_18PropagateExceptionEEEEE@Base 0.5.3
 _ZTVN2kj1_12HeapDisposerINS0_20TransformPromiseNodeINS0_4VoidENS_3OwnINS_14NetworkAddressEEENS_13CaptureByMoveIZN5capnp11EzRpcServer4ImplC4ENS8_10Capability6ClientENS_9StringPtrEjNS8_13ReaderOptionsEEUlONS4_INS_16PromiseFulfillerIjEEEEOS6_E_SH_EENS0_18PropagateExceptionEEEEE@Base 0.5.3
 _ZTVN2kj1_12HeapDisposerINS0_20TransformPromiseNodeINS0_4VoidES3_ZN5capnp1_13RpcSystemBase4Impl10acceptLoopEvEUlvE0_NS0_18PropagateExceptionEEEEE@Base 0.5.3
 _ZTVN2kj1_12HeapDisposerINS0_20TransformPromiseNodeINS0_4VoidES3_ZNS_7PromiseIvE6detachIZN5capnp12LocalRequest4sendEvEUlONS_9ExceptionEE_EEvOT_EUlvE_SB_EEEE@Base 0.5.3
 _ZTVN2kj1_12HeapDisposerINS0_20TransformPromiseNodeINS_3OwnIN5capnp10ClientHookEEENS4_10Capability6ClientEZNS8_C4IS8_vEEONS_7PromiseIT_EEEUlOS8_E_NS0_18PropagateExceptionEEEEE@Base 0.5.3
 _ZTVN2kj1_12HeapDisposerINS0_20TransformPromiseNodeINS_3OwnIN5capnp12PipelineHookEEENS0_4VoidENS_13CaptureByMoveIZNS4_11LocalClient4callEmtONS3_INS4_15CallContextHookEEEEUlSC_E0_SB_EENS0_18PropagateExceptionEEEEE@Base 0.5.3
 _ZTVN2kj1_12HeapDisposerINS0_20TransformPromiseNodeINS_3OwnIN5capnp12PipelineHookEEENS3_IZNS4_12QueuedClient4callEmtONS3_INS4_15CallContextHookEEEE16CallResultHolderEEZNS7_4callEmtSA_EUlOSC_E0_NS0_18PropagateExceptionEEEEE@Base 0.5.3
 _ZTVN2kj1_12HeapDisposerINS0_20TransformPromiseNodeINS_3OwnIN5capnp12PipelineHookEEENS4_10AnyPointer8PipelineEZNS4_11LocalClient4callEmtONS3_INS4_15CallContextHookEEEEUlOS8_E1_NS0_18PropagateExceptionEEEEE@Base 0.5.3
 _ZTVN2kj1_12HeapDisposerINS0_20TransformPromiseNodeINS_3OwnIN5capnp1_14VatNetworkBase10ConnectionEEENS3_INS4_10VatNetworkINS4_3rpc8twoparty5VatIdENSB_11ProvisionIdENSB_11RecipientIdENSB_15ThirdPartyCapIdENSB_10JoinResultEE10ConnectionEEEZNSH_10baseAcceptEvEUlOSJ_E_NS0_18PropagateExceptionEEEEE@Base 0.5.3
 _ZTVN2kj1_12HeapDisposerINS0_20TransformPromiseNodeINS_3OwnIZN5capnp12QueuedClient4callEmtONS3_INS4_15CallContextHookEEEE16CallResultHolderEENS3_INS4_10ClientHookEEENS_13CaptureByMoveIZNS5_4callEmtS8_EUlS8_OSC_E_S7_EENS0_18PropagateExceptionEEEEE@Base 0.5.3
 _ZTVN2kj1_12HeapDisposerINS0_20TransformPromiseNodeINS_7PromiseINS_3OwnINS_13AsyncIoStreamEEEEENS4_INS_14NetworkAddressEEEZN5capnp11EzRpcClient4ImplC4ENS_9StringPtrEjNSA_13ReaderOptionsEEUlOS9_E_NS0_18PropagateExceptionEEEEE@Base 0.5.3
 _ZTVN2kj1_12HeapDisposerINS0_20TransformPromiseNodeINS_7PromiseIvEENS0_4VoidEZN5capnp11LocalClient4callEmtONS_3OwnINS6_15CallContextHookEEEEUlvE_NS0_18PropagateExceptionEEEEE@Base 0.5.3
 _ZTVN2kj1_12HeapDisposerINS0_20TransformPromiseNodeINS_7PromiseIvEENS0_4VoidEZN5capnp18TwoPartyVatNetwork19OutgoingMessageImpl4sendEvEUlvE_NS0_18PropagateExceptionEEEEE@Base 0.5.3
 _ZTVN2kj1_12HeapDisposerINS0_20TransformPromiseNodeINS_7PromiseIvEENS_3OwnIZN5capnp12QueuedClient4callEmtONS5_INS6_15CallContextHookEEEE16CallResultHolderEEZNS7_4callEmtSA_EUlOSC_E1_NS0_18PropagateExceptionEEEEE@Base 0.5.3
 _ZTVN2kj1_12HeapDisposerINS0_21AttachmentPromiseNodeINS_3OwnIN5capnp10ClientHookEEEEEEE@Base 0.5.3
 _ZTVN2kj1_12HeapDisposerINS0_21AttachmentPromiseNodeINS_3OwnIN5capnp11EzRpcServer4Impl13ServerContextEEEEEEE@Base 0.5.3
 _ZTVN2kj1_12HeapDisposerINS0_21AttachmentPromiseNodeINS_3OwnIN5capnp11LocalClientEEEEEEE@Base 0.5.3
 _ZTVN2kj1_12HeapDisposerINS0_21AttachmentPromiseNodeINS_3OwnIN5capnp14TwoPartyServer18AcceptedConnectionEEEEEEE@Base 0.5.3
 _ZTVN2kj1_12HeapDisposerINS0_21AttachmentPromiseNodeINS_3OwnIN5capnp15CallContextHookEEEEEEE@Base 0.5.3
 _ZTVN2kj1_12HeapDisposerINS0_21AttachmentPromiseNodeINS_3OwnIN5capnp16LocalCallContextEEEEEEE@Base 0.5.3
 _ZTVN2kj1_12HeapDisposerINS0_21AttachmentPromiseNodeINS_3OwnIN5capnp18TwoPartyVatNetwork19OutgoingMessageImplEEEEEEE@Base 0.5.3
 _ZTVN2kj1_12HeapDisposerINS0_21AttachmentPromiseNodeINS_3OwnIN5capnp1_14VatNetworkBase10ConnectionEEEEEEE@Base 0.5.3
 _ZTVN2kj1_12HeapDisposerINS0_21AttachmentPromiseNodeINS_3OwnINS_14NetworkAddressEEEEEEE@Base 0.5.3
 _ZTVN2kj1_12HeapDisposerINS0_24ExclusiveJoinPromiseNodeEEE@Base 0.5.3
 _ZTVN2kj1_12HeapDisposerINS0_26ImmediateBrokenPromiseNodeEEE@Base 0.5.3
 _ZTVN2kj1_12RunnableImplIZN5capnp1_13RpcSystemBase4ImplD4EvEUlvE_EE@Base 0.5.3
 _ZTVN2kj1_13WeakFulfillerIN5capnp10AnyPointer8PipelineEEE@Base 0.5.3
 _ZTVN2kj1_13WeakFulfillerINS_3OwnIN5capnp10ClientHookEEEEE@Base 0.5.3
 _ZTVN2kj1_13WeakFulfillerINS_3OwnIN5capnp10VatNetworkINS3_3rpc8twoparty5VatIdENS6_11ProvisionIdENS6_11RecipientIdENS6_15ThirdPartyCapIdENS6_10JoinResultEE10ConnectionEEEEE@Base 0.5.3
 _ZTVN2kj1_13WeakFulfillerIjEE@Base 0.5.3
 _ZTVN2kj1_13WeakFulfillerIvEE@Base 0.5.3
 _ZTVN2kj1_16EagerPromiseNodeINS0_4VoidEEE@Base 0.5.3
 _ZTVN2kj1_18AdapterPromiseNodeIN5capnp10AnyPointer8PipelineENS0_26PromiseAndFulfillerAdapterIS4_EEEE@Base 0.5.3
 _ZTVN2kj1_18AdapterPromiseNodeINS0_4VoidENS0_26PromiseAndFulfillerAdapterIvEEEE@Base 0.5.3
 _ZTVN2kj1_18AdapterPromiseNodeINS_3OwnIN5capnp10ClientHookEEENS0_26PromiseAndFulfillerAdapterIS5_EEEE@Base 0.5.3
 _ZTVN2kj1_18AdapterPromiseNodeINS_3OwnIN5capnp10VatNetworkINS3_3rpc8twoparty5VatIdENS6_11ProvisionIdENS6_11RecipientIdENS6_15ThirdPartyCapIdENS6_10JoinResultEE10ConnectionEEENS0_26PromiseAndFulfillerAdapterISE_EEEE@Base 0.5.3
 _ZTVN2kj1_18AdapterPromiseNodeIjNS0_26PromiseAndFulfillerAdapterIjEEEE@Base 0.5.3
 _ZTVN2kj1_20ImmediatePromiseNodeINS0_4VoidEEE@Base 0.5.3
 _ZTVN2kj1_20ImmediatePromiseNodeINS_3OwnIN5capnp10VatNetworkINS3_3rpc8twoparty5VatIdENS6_11ProvisionIdENS6_11RecipientIdENS6_15ThirdPartyCapIdENS6_10JoinResultEE10ConnectionEEEEE@Base 0.5.3
 _ZTVN2kj1_20ImmediatePromiseNodeIPvEE@Base 0.5.3
 _ZTVN2kj1_20ImmediatePromiseNodeIbEE@Base 0.5.3
 _ZTVN2kj1_20ImmediatePromiseNodeIjEE@Base 0.5.3
 _ZTVN2kj1_20TransformPromiseNodeIN5capnp8ResponseINS2_10AnyPointerEEENS0_4VoidENS_13CaptureByMoveIZNS2_12LocalRequest4sendEvEUlONS_3OwnINS2_16LocalCallContextEEEE0_SB_EENS0_18PropagateExceptionEEE@Base 0.5.3
 _ZTVN2kj1_20TransformPromiseNodeIN5capnp8ResponseINS2_10AnyPointerEEES5_ZNS2_7RequestIS4_S4_E4sendEvEUlOS5_E_NS0_18PropagateExceptionEEE@Base 0.5.3
 _ZTVN2kj1_20TransformPromiseNodeINS0_4VoidEN5capnp8ResponseINS3_10AnyPointerEEEZNS3_16LocalCallContext14directTailCallEONS_3OwnINS3_11RequestHookEEEEUlOS6_E_NS0_18PropagateExceptionEEE@Base 0.5.3
 _ZTVN2kj1_20TransformPromiseNodeINS0_4VoidENS_3OwnIN5capnp10ClientHookEEEZNS4_12QueuedClientC4EONS_7PromiseIS6_EEEUlOS6_E_ZNS7_C4ESA_EUlONS_9ExceptionEE0_EE@Base 0.5.3
 _ZTVN2kj1_20TransformPromiseNodeINS0_4VoidENS_3OwnIN5capnp12PipelineHookEEEZNS4_14QueuedPipelineC4EONS_7PromiseIS6_EEEUlOS6_E_ZNS7_C4ESA_EUlONS_9ExceptionEE0_EE@Base 0.5.3
 _ZTVN2kj1_20TransformPromiseNodeINS0_4VoidENS_3OwnIN5capnp1_14VatNetworkBase10ConnectionEEEZNS5_13RpcSystemBase4Impl10acceptLoopEvEUlOS8_E_NS0_18PropagateExceptionEEE@Base 0.5.3
 _ZTVN2kj1_20TransformPromiseNodeINS0_4VoidENS_3OwnINS_13AsyncIoStreamEEENS_13CaptureByMoveIZN5capnp11EzRpcServer4Impl10acceptLoopEONS3_INS_18ConnectionReceiverEEENS7_13ReaderOptionsEEUlSC_OS5_E_SB_EENS0_18PropagateExceptionEEE@Base 0.5.3
 _ZTVN2kj1_20TransformPromiseNodeINS0_4VoidENS_3OwnINS_13AsyncIoStreamEEEZN5capnp11EzRpcClient4ImplC4ENS_9StringPtrEjNS6_13ReaderOptionsEEUlOS5_E0_NS0_18PropagateExceptionEEE@Base 0.5.3
 _ZTVN2kj1_20TransformPromiseNodeINS0_4VoidENS_3OwnINS_13AsyncIoStreamEEEZN5capnp11EzRpcClient4ImplC4EPK8sockaddrjNS6_13ReaderOptionsEEUlOS5_E_NS0_18PropagateExceptionEEE@Base 0.5.3
 _ZTVN2kj1_20TransformPromiseNodeINS0_4VoidENS_3OwnINS_14NetworkAddressEEENS_13CaptureByMoveIZN5capnp11EzRpcServer4ImplC4ENS7_10Capability6ClientENS_9StringPtrEjNS7_13ReaderOptionsEEUlONS3_INS_16PromiseFulfillerIjEEEEOS5_E_SG_EENS0_18PropagateExceptionEEE@Base 0.5.3
 _ZTVN2kj1_20TransformPromiseNodeINS0_4VoidES2_ZN5capnp1_13RpcSystemBase4Impl10acceptLoopEvEUlvE0_NS0_18PropagateExceptionEEE@Base 0.5.3
 _ZTVN2kj1_20TransformPromiseNodeINS0_4VoidES2_ZNS_7PromiseIvE6detachIZN5capnp12LocalRequest4sendEvEUlONS_9ExceptionEE_EEvOT_EUlvE_SA_EE@Base 0.5.3
 _ZTVN2kj1_20TransformPromiseNodeINS_3OwnIN5capnp10ClientHookEEENS3_10Capability6ClientEZNS7_C4IS7_vEEONS_7PromiseIT_EEEUlOS7_E_NS0_18PropagateExceptionEEE@Base 0.5.3
 _ZTVN2kj1_20TransformPromiseNodeINS_3OwnIN5capnp12PipelineHookEEENS0_4VoidENS_13CaptureByMoveIZNS3_11LocalClient4callEmtONS2_INS3_15CallContextHookEEEEUlSB_E0_SA_EENS0_18PropagateExceptionEEE@Base 0.5.3
 _ZTVN2kj1_20TransformPromiseNodeINS_3OwnIN5capnp12PipelineHookEEENS2_IZNS3_12QueuedClient4callEmtONS2_INS3_15CallContextHookEEEE16CallResultHolderEEZNS6_4callEmtS9_EUlOSB_E0_NS0_18PropagateExceptionEEE@Base 0.5.3
 _ZTVN2kj1_20TransformPromiseNodeINS_3OwnIN5capnp12PipelineHookEEENS3_10AnyPointer8PipelineEZNS3_11LocalClient4callEmtONS2_INS3_15CallContextHookEEEEUlOS7_E1_NS0_18PropagateExceptionEEE@Base 0.5.3
 _ZTVN2kj1_20TransformPromiseNodeINS_3OwnIN5capnp1_14VatNetworkBase10ConnectionEEENS2_INS3_10VatNetworkINS3_3rpc8twoparty5VatIdENSA_11ProvisionIdENSA_11RecipientIdENSA_15ThirdPartyCapIdENSA_10JoinResultEE10ConnectionEEEZNSG_10baseAcceptEvEUlOSI_E_NS0_18PropagateExceptionEEE@Base 0.5.3
 _ZTVN2kj1_20TransformPromiseNodeINS_3OwnIZN5capnp12QueuedClient4callEmtONS2_INS3_15CallContextHookEEEE16CallResultHolderEENS2_INS3_10ClientHookEEENS_13CaptureByMoveIZNS4_4callEmtS7_EUlS7_OSB_E_S6_EENS0_18PropagateExceptionEEE@Base 0.5.3
 _ZTVN2kj1_20TransformPromiseNodeINS_7PromiseINS_3OwnINS_13AsyncIoStreamEEEEENS3_INS_14NetworkAddressEEEZN5capnp11EzRpcClient4ImplC4ENS_9StringPtrEjNS9_13ReaderOptionsEEUlOS8_E_NS0_18PropagateExceptionEEE@Base 0.5.3
 _ZTVN2kj1_20TransformPromiseNodeINS_7PromiseIvEENS0_4VoidEZN5capnp11LocalClient4callEmtONS_3OwnINS5_15CallContextHookEEEEUlvE_NS0_18PropagateExceptionEEE@Base 0.5.3
 _ZTVN2kj1_20TransformPromiseNodeINS_7PromiseIvEENS0_4VoidEZN5capnp18TwoPartyVatNetwork19OutgoingMessageImpl4sendEvEUlvE_NS0_18PropagateExceptionEEE@Base 0.5.3
 _ZTVN2kj1_20TransformPromiseNodeINS_7PromiseIvEENS_3OwnIZN5capnp12QueuedClient4callEmtONS4_INS5_15CallContextHookEEEE16CallResultHolderEEZNS6_4callEmtS9_EUlOSB_E1_NS0_18PropagateExceptionEEE@Base 0.5.3
 _ZTVN2kj1_21AttachmentPromiseNodeINS_3OwnIN5capnp10ClientHookEEEEE@Base 0.5.3
 _ZTVN2kj1_21AttachmentPromiseNodeINS_3OwnIN5capnp11EzRpcServer4Impl13ServerContextEEEEE@Base 0.5.3
 _ZTVN2kj1_21AttachmentPromiseNodeINS_3OwnIN5capnp11LocalClientEEEEE@Base 0.5.3
 _ZTVN2kj1_21AttachmentPromiseNodeINS_3OwnIN5capnp14TwoPartyServer18AcceptedConnectionEEEEE@Base 0.5.3
 _ZTVN2kj1_21AttachmentPromiseNodeINS_3OwnIN5capnp15CallContextHookEEEEE@Base 0.5.3
 _ZTVN2kj1_21AttachmentPromiseNodeINS_3OwnIN5capnp16LocalCallContextEEEEE@Base 0.5.3
 _ZTVN2kj1_21AttachmentPromiseNodeINS_3OwnIN5capnp18TwoPartyVatNetwork19OutgoingMessageImplEEEEE@Base 0.5.3
 _ZTVN2kj1_21AttachmentPromiseNodeINS_3OwnIN5capnp1_14VatNetworkBase10ConnectionEEEEE@Base 0.5.3
 _ZTVN2kj1_21AttachmentPromiseNodeINS_3OwnINS_14NetworkAddressEEEEE@Base 0.5.3
 _ZTVN2kj1_7ForkHubINS0_4VoidEEE@Base 0.5.3
 _ZTVN2kj1_7ForkHubINS_3OwnIN5capnp10ClientHookEEEEE@Base 0.5.3
 _ZTVN2kj1_7ForkHubINS_3OwnIN5capnp12PipelineHookEEEEE@Base 0.5.3
 _ZTVN2kj1_7ForkHubINS_3OwnIZN5capnp12QueuedClient4callEmtONS2_INS3_15CallContextHookEEEE16CallResultHolderEEEE@Base 0.5.3
 _ZTVN2kj1_7ForkHubIjEE@Base 0.5.3
 _ZTVN5capnp10ClientHookE@Base 0.5.3
 _ZTVN5capnp10PersistentINS_10AnyPointerES1_E6ClientE@Base 0.5.3
 _ZTVN5capnp11EzRpcServer4ImplE@Base 0.5.3
 _ZTVN5capnp11LocalClientE@Base 0.5.3
 _ZTVN5capnp12EzRpcContextE@Base 0.5.3
 _ZTVN5capnp12LocalRequestE@Base 0.5.3
 _ZTVN5capnp12QueuedClientE@Base 0.5.3
 _ZTVN5capnp12RealmGatewayINS_10AnyPointerES1_S1_S1_E6ClientE@Base 0.5.3
 _ZTVN5capnp12ResponseHookE@Base 0.5.3
 _ZTVN5capnp13LocalPipelineE@Base 0.5.3
 _ZTVN5capnp13LocalResponseE@Base 0.5.3
 _ZTVN5capnp14QueuedPipelineE@Base 0.5.3
 _ZTVN5capnp14TwoPartyServerE@Base 0.5.3
 _ZTVN5capnp16LocalCallContextE@Base 0.5.3
 _ZTVN5capnp17DynamicCapability6ServerE@Base 0.5.3
 _ZTVN5capnp18TwoPartyVatNetwork17FulfillerDisposerE@Base 0.5.3
 _ZTVN5capnp18TwoPartyVatNetwork19IncomingMessageImplE@Base 0.5.3
 _ZTVN5capnp18TwoPartyVatNetwork19OutgoingMessageImplE@Base 0.5.3
 _ZTVN5capnp18TwoPartyVatNetworkE@Base 0.5.3
 _ZTVN5capnp1_13RpcSystemBase4ImplE@Base 0.5.3
 _ZTVZN5capnp12QueuedClient4callEmtON2kj3OwnINS_15CallContextHookEEEE16CallResultHolder@Base 0.5.3
 (optional=templinst)_ZZN5capnp12QueuedClient4callEmtON2kj3OwnINS_15CallContextHookEEEEN16CallResultHolderD0Ev@Base 0.5.3
 (optional=templinst)_ZZN5capnp12QueuedClient4callEmtON2kj3OwnINS_15CallContextHookEEEEN16CallResultHolderD1Ev@Base 0.5.3
 (optional=templinst)_ZZN5capnp12QueuedClient4callEmtON2kj3OwnINS_15CallContextHookEEEEN16CallResultHolderD2Ev@Base 0.5.3
 _ZZN5capnp1_13RpcSystemBase4ImplD4EvENKUlvE_clEv@Base 0.5.3
 (c++)"non-virtual thunk to capnp::EzRpcServer::Impl::taskFailed(kj::Exception&&)@Base" 0.5.3
 (c++)"non-virtual thunk to capnp::LocalCallContext::~LocalCallContext()@Base" 0.5.3
 (c++)"non-virtual thunk to capnp::LocalClient::~LocalClient()@Base" 0.5.3
 (c++)"non-virtual thunk to capnp::LocalPipeline::~LocalPipeline()@Base" 0.5.3
 (c++)"non-virtual thunk to capnp::LocalResponse::~LocalResponse()@Base" 0.5.3
 (c++)"non-virtual thunk to capnp::QueuedClient::~QueuedClient()@Base" 0.5.3
 (c++)"non-virtual thunk to capnp::QueuedPipeline::~QueuedPipeline()@Base" 0.5.3
 (c++)"non-virtual thunk to capnp::TwoPartyVatNetwork::OutgoingMessageImpl::~OutgoingMessageImpl()@Base" 0.5.3
 (c++)"non-virtual thunk to capnp::TwoPartyVatNetwork::newOutgoingMessage(unsigned int)@Base" 0.5.3
 (c++)"non-virtual thunk to capnp::TwoPartyVatNetwork::receiveIncomingMessage()@Base" 0.5.3
 (c++)"non-virtual thunk to capnp::TwoPartyVatNetwork::shutdown()@Base" 0.5.3
 (c++)"non-virtual thunk to kj::_::AdapterPromiseNode<capnp::AnyPointer::Pipeline, kj::_::PromiseAndFulfillerAdapter<capnp::AnyPointer::Pipeline> >::fulfill(capnp::AnyPointer::Pipeline&&)@Base" 0.5.3
 (c++)"non-virtual thunk to kj::_::AdapterPromiseNode<capnp::AnyPointer::Pipeline, kj::_::PromiseAndFulfillerAdapter<capnp::AnyPointer::Pipeline> >::isWaiting()@Base" 0.5.3
 (c++)"non-virtual thunk to kj::_::AdapterPromiseNode<capnp::AnyPointer::Pipeline, kj::_::PromiseAndFulfillerAdapter<capnp::AnyPointer::Pipeline> >::reject(kj::Exception&&)@Base" 0.5.3
 (c++)"non-virtual thunk to kj::_::AdapterPromiseNode<kj::Own<capnp::ClientHook>, kj::_::PromiseAndFulfillerAdapter<kj::Own<capnp::ClientHook> > >::fulfill(kj::Own<capnp::ClientHook>&&)@Base" 0.5.3
 (c++)"non-virtual thunk to kj::_::AdapterPromiseNode<kj::Own<capnp::ClientHook>, kj::_::PromiseAndFulfillerAdapter<kj::Own<capnp::ClientHook> > >::isWaiting()@Base" 0.5.3
 (c++)"non-virtual thunk to kj::_::AdapterPromiseNode<kj::Own<capnp::ClientHook>, kj::_::PromiseAndFulfillerAdapter<kj::Own<capnp::ClientHook> > >::reject(kj::Exception&&)@Base" 0.5.3
 (c++)"non-virtual thunk to kj::_::AdapterPromiseNode<kj::Own<capnp::VatNetwork<capnp::rpc::twoparty::VatId, capnp::rpc::twoparty::ProvisionId, capnp::rpc::twoparty::RecipientId, capnp::rpc::twoparty::ThirdPartyCapId, capnp::rpc::twoparty::JoinResult>::Connection>, kj::_::PromiseAndFulfillerAdapter<kj::Own<capnp::VatNetwork<capnp::rpc::twoparty::VatId, capnp::rpc::twoparty::ProvisionId, capnp::rpc::twoparty::RecipientId, capnp::rpc::twoparty::ThirdPartyCapId, capnp::rpc::twoparty::JoinResult>::Connection> > >::fulfill(kj::Own<capnp::VatNetwork<capnp::rpc::twoparty::VatId, capnp::rpc::twoparty::ProvisionId, capnp::rpc::twoparty::RecipientId, capnp::rpc::twoparty::ThirdPartyCapId, capnp::rpc::twoparty::JoinResult>::Connection>&&)@Base" 0.5.3
 (c++)"non-virtual thunk to kj::_::AdapterPromiseNode<kj::Own<capnp::VatNetwork<capnp::rpc::twoparty::VatId, capnp::rpc::twoparty::ProvisionId, capnp::rpc::twoparty::RecipientId, capnp::rpc::twoparty::ThirdPartyCapId, capnp::rpc::twoparty::JoinResult>::Connection>, kj::_::PromiseAndFulfillerAdapter<kj::Own<capnp::VatNetwork<capnp::rpc::twoparty::VatId, capnp::rpc::twoparty::ProvisionId, capnp::rpc::twoparty::RecipientId, capnp::rpc::twoparty::ThirdPartyCapId, capnp::rpc::twoparty::JoinResult>::Connection> > >::isWaiting()@Base" 0.5.3
 (c++)"non-virtual thunk to kj::_::AdapterPromiseNode<kj::Own<capnp::VatNetwork<capnp::rpc::twoparty::VatId, capnp::rpc::twoparty::ProvisionId, capnp::rpc::twoparty::RecipientId, capnp::rpc::twoparty::ThirdPartyCapId, capnp::rpc::twoparty::JoinResult>::Connection>, kj::_::PromiseAndFulfillerAdapter<kj::Own<capnp::VatNetwork<capnp::rpc::twoparty::VatId, capnp::rpc::twoparty::ProvisionId, capnp::rpc::twoparty::RecipientId, capnp::rpc::twoparty::ThirdPartyCapId, capnp::rpc::twoparty::JoinResult>::Connection> > >::reject(kj::Exception&&)@Base" 0.5.3
 (c++)"non-virtual thunk to kj::_::AdapterPromiseNode<kj::_::Void, kj::_::PromiseAndFulfillerAdapter<void> >::fulfill(kj::_::Void&&)@Base" 0.5.3
 (c++)"non-virtual thunk to kj::_::AdapterPromiseNode<kj::_::Void, kj::_::PromiseAndFulfillerAdapter<void> >::isWaiting()@Base" 0.5.3
 (c++)"non-virtual thunk to kj::_::AdapterPromiseNode<kj::_::Void, kj::_::PromiseAndFulfillerAdapter<void> >::reject(kj::Exception&&)@Base" 0.5.3
 (c++)"non-virtual thunk to kj::_::AdapterPromiseNode<unsigned int, kj::_::PromiseAndFulfillerAdapter<unsigned int> >::fulfill(unsigned int&&)@Base" 0.5.3
 (c++)"non-virtual thunk to kj::_::AdapterPromiseNode<unsigned int, kj::_::PromiseAndFulfillerAdapter<unsigned int> >::isWaiting()@Base" 0.5.3
 (c++)"non-virtual thunk to kj::_::AdapterPromiseNode<unsigned int, kj::_::PromiseAndFulfillerAdapter<unsigned int> >::reject(kj::Exception&&)@Base" 0.5.3
 (c++)"non-virtual thunk to kj::_::WeakFulfiller<capnp::AnyPointer::Pipeline>::disposeImpl(void*) const@Base" 0.5.3
 (c++)"non-virtual thunk to kj::_::WeakFulfiller<kj::Own<capnp::ClientHook> >::disposeImpl(void*) const@Base" 0.5.3
 (c++)"non-virtual thunk to kj::_::WeakFulfiller<kj::Own<capnp::VatNetwork<capnp::rpc::twoparty::VatId, capnp::rpc::twoparty::ProvisionId, capnp::rpc::twoparty::RecipientId, capnp::rpc::twoparty::ThirdPartyCapId, capnp::rpc::twoparty::JoinResult>::Connection> >::disposeImpl(void*) const@Base" 0.5.3
 (c++)"non-virtual thunk to kj::_::WeakFulfiller<unsigned int>::disposeImpl(void*) const@Base" 0.5.3
 (c++)"non-virtual thunk to kj::_::WeakFulfiller<void>::disposeImpl(void*) const@Base" 0.5.3
libcapnp.so.2 libcapnp2 #MINVER#
 (optional=templinst)_ZN2kj10StringTree4fillIINS_10FixedArrayIcLm1EEEEEEvPcmOS0_DpOT_@Base 0.5.3
 (optional=templinst)_ZN2kj10StringTree4fillIJNS_10FixedArrayIcLm1EEEEEEvPcmOS0_DpOT_@Base 0.5.3
 (optional=templinst)_ZN2kj10StringTree6concatIINS_10FixedArrayIcLm1EEENS_11CappedArrayIcLm8EEES3_EEES0_DpOT_@Base 0.5.3
 (optional=templinst)_ZN2kj10StringTree6concatIINS_10FixedArrayIcLm1EEENS_8ArrayPtrIKcEES3_EEES0_DpOT_@Base 0.5.3
 (optional=templinst)_ZN2kj10StringTree6concatIINS_10FixedArrayIcLm1EEES0_S3_EEES0_DpOT_@Base 0.5.3
 (optional=templinst)_ZN2kj10StringTree6concatIINS_11CappedArrayIcLm24EEEEEES0_DpOT_@Base 0.5.3
 (optional=templinst)_ZN2kj10StringTree6concatIINS_11CappedArrayIcLm26EEEEEES0_DpOT_@Base 0.5.3
 (optional=templinst)_ZN2kj10StringTree6concatIINS_11CappedArrayIcLm32EEEEEES0_DpOT_@Base 0.5.3
 (optional=templinst)_ZN2kj10StringTree6concatIINS_8ArrayPtrIKcEEEEES0_DpOT_@Base 0.5.3
 (optional=templinst)_ZN2kj10StringTree6concatIINS_8ArrayPtrIKcEES0_NS_10FixedArrayIcLm1EEEEEES0_DpOT_@Base 0.5.3
 (optional=templinst)_ZN2kj10StringTree6concatIINS_8ArrayPtrIKcEES4_S0_EEES0_DpOT_@Base 0.5.3
 (optional=templinst)_ZN2kj10StringTree6concatIJNS_10FixedArrayIcLm1EEENS_11CappedArrayIcLm8EEES3_EEES0_DpOT_@Base 0.5.3
 (optional=templinst)_ZN2kj10StringTree6concatIJNS_10FixedArrayIcLm1EEENS_8ArrayPtrIKcEES3_EEES0_DpOT_@Base 0.5.3
 (optional=templinst)_ZN2kj10StringTree6concatIJNS_10FixedArrayIcLm1EEES0_S3_EEES0_DpOT_@Base 0.5.3
 (optional=templinst)_ZN2kj10StringTree6concatIJNS_11CappedArrayIcLm24EEEEEES0_DpOT_@Base 0.5.3
 (optional=templinst)_ZN2kj10StringTree6concatIJNS_11CappedArrayIcLm26EEEEEES0_DpOT_@Base 0.5.3
 (optional=templinst)_ZN2kj10StringTree6concatIJNS_11CappedArrayIcLm32EEEEEES0_DpOT_@Base 0.5.3
 (optional=templinst)_ZN2kj10StringTree6concatIJNS_8ArrayPtrIKcEEEEES0_DpOT_@Base 0.5.3
 (optional=templinst)_ZN2kj10StringTree6concatIJNS_8ArrayPtrIKcEES0_NS_10FixedArrayIcLm1EEEEEES0_DpOT_@Base 0.5.3
 (optional=templinst)_ZN2kj10StringTree6concatIJNS_8ArrayPtrIKcEES4_S0_EEES0_DpOT_@Base 0.5.3
 _ZN2kj10StringTreeD1Ev@Base 0.5.3
 _ZN2kj10StringTreeD2Ev@Base 0.5.3
 (optional=templinst)_ZN2kj12ArrayBuilderIN5capnp1_16RawBrandedSchema10DependencyEE7disposeEv@Base 0.5.3
 (optional=templinst)_ZN2kj12ArrayBuilderINS_10StringTreeEE7disposeEv@Base 0.5.3
 (optional=templinst)_ZN2kj12ArrayBuilderINS_3OwnIN5capnp1_14SegmentBuilderEEEE7disposeEv@Base 0.5.3
 (optional=templinst)_ZN2kj12ArrayBuilderINS_5MaybeINS_3OwnIN5capnp10ClientHookEEEEEE7disposeEv@Base 0.5.3
 (optional=templinst)_ZN2kj12ArrayBuilderINS_8ArrayPtrIKN5capnp4wordEEEE7disposeEv@Base 0.5.3
 (optional=templinst)_ZN2kj12ArrayBuilderIcE7disposeEv@Base 0.5.3
 (optional=templinst)_ZN2kj12ArrayBuilderImE7disposeEv@Base 0.5.3
 (optional=templinst)_ZN2kj13ArrayDisposer8Dispose_INS_10StringTree6BranchELb0EE8destructEPv@Base 0.5.3
 (optional=templinst)_ZN2kj13ArrayDisposer8Dispose_INS_10StringTreeELb0EE8destructEPv@Base 0.5.3
 (optional=templinst)_ZN2kj13ArrayDisposer8Dispose_INS_3OwnIN5capnp1_14SegmentBuilderEEELb0EE8destructEPv@Base 0.5.3
 (optional=templinst)_ZN2kj13ArrayDisposer8Dispose_INS_5MaybeINS_3OwnIN5capnp10ClientHookEEEEELb0EE8destructEPv@Base 0.5.3
 _ZN2kj1_12HeapDisposerIN5capnp12SchemaLoader4ImplEE8instanceE@Base 0.5.3
 _ZN2kj1_12HeapDisposerIN5capnp1_12BuilderArena17MultiSegmentStateEE8instanceE@Base 0.5.3
 _ZN2kj1_12HeapDisposerIN5capnp1_13SegmentReaderEE8instanceE@Base 0.5.3
 _ZN2kj1_12HeapDisposerIN5capnp1_14SegmentBuilderEE8instanceE@Base 0.5.3
 _ZN2kj1_12HeapDisposerIN5capnp20MallocMessageBuilder12MoreSegmentsEE8instanceE@Base 0.5.3
 _ZN2kj1_12HeapDisposerISt13unordered_mapIjNS_3OwnIN5capnp1_13SegmentReaderEEESt4hashIjESt8equal_toIjESaISt4pairIKjS7_EEEE8instanceE@Base 0.5.3
 (optional=templinst)_ZN2kj1_17HeapArrayDisposer9Allocate_IN5capnp6SchemaELb0ELb0EE8destructEPv@Base 0.5.3
 (optional=templinst)_ZN2kj1_17HeapArrayDisposer9Allocate_IN5capnp6SchemaELb0ELb0EE9constructEPv@Base 0.5.3
 (optional=templinst)_ZN2kj1_17HeapArrayDisposer9Allocate_INS_10StringTree6BranchELb0ELb0EE8destructEPv@Base 0.5.3
 (optional=templinst)_ZN2kj1_17HeapArrayDisposer9Allocate_INS_10StringTree6BranchELb0ELb0EE9constructEPv@Base 0.5.3
 (optional=templinst)_ZN2kj1_17HeapArrayDisposer9Allocate_INS_8ArrayPtrIKN5capnp4wordEEELb0ELb0EE8destructEPv@Base 0.5.3
 (optional=templinst)_ZN2kj1_17HeapArrayDisposer9Allocate_INS_8ArrayPtrIKN5capnp4wordEEELb0ELb0EE9constructEPv@Base 0.5.3
 (optional=templinst)_ZN2kj1_17HeapArrayDisposer9Allocate_INS_8ArrayPtrIKhEELb0ELb0EE8destructEPv@Base 0.5.3
 (optional=templinst)_ZN2kj1_17HeapArrayDisposer9Allocate_INS_8ArrayPtrIKhEELb0ELb0EE9constructEPv@Base 0.5.3
 (optional=templinst)_ZN2kj1_5Debug11ContextImplIZN5capnp12SchemaLoader20CompatibilityChecker13shouldReplaceERKNS3_6schema4Node6ReaderESA_bEUlvE_E8evaluateEv@Base 0.5.3
 (optional=templinst)_ZN2kj1_5Debug11ContextImplIZN5capnp12SchemaLoader20CompatibilityChecker13shouldReplaceERKNS3_6schema4Node6ReaderESA_bEUlvE_ED0Ev@Base 0.5.3
 (optional=templinst)_ZN2kj1_5Debug11ContextImplIZN5capnp12SchemaLoader20CompatibilityChecker13shouldReplaceERKNS3_6schema4Node6ReaderESA_bEUlvE_ED1Ev@Base 0.5.3
 (optional=templinst)_ZN2kj1_5Debug11ContextImplIZN5capnp12SchemaLoader20CompatibilityChecker13shouldReplaceERKNS3_6schema4Node6ReaderESA_bEUlvE_ED2Ev@Base 0.5.3
 (optional=templinst)_ZN2kj1_5Debug11ContextImplIZN5capnp12SchemaLoader20CompatibilityChecker18checkCompatibilityERKNS3_6schema5Field6ReaderESA_EUlvE_E8evaluateEv@Base 0.5.3
 (optional=templinst)_ZN2kj1_5Debug11ContextImplIZN5capnp12SchemaLoader20CompatibilityChecker18checkCompatibilityERKNS3_6schema5Field6ReaderESA_EUlvE_ED0Ev@Base 0.5.3
 (optional=templinst)_ZN2kj1_5Debug11ContextImplIZN5capnp12SchemaLoader20CompatibilityChecker18checkCompatibilityERKNS3_6schema5Field6ReaderESA_EUlvE_ED1Ev@Base 0.5.3
 (optional=templinst)_ZN2kj1_5Debug11ContextImplIZN5capnp12SchemaLoader20CompatibilityChecker18checkCompatibilityERKNS3_6schema5Field6ReaderESA_EUlvE_ED2Ev@Base 0.5.3
 (optional=templinst)_ZN2kj1_5Debug11ContextImplIZN5capnp12SchemaLoader20CompatibilityChecker18checkCompatibilityERKNS3_6schema6Method6ReaderESA_EUlvE_E8evaluateEv@Base 0.5.3
 (optional=templinst)_ZN2kj1_5Debug11ContextImplIZN5capnp12SchemaLoader20CompatibilityChecker18checkCompatibilityERKNS3_6schema6Method6ReaderESA_EUlvE_ED0Ev@Base 0.5.3
 (optional=templinst)_ZN2kj1_5Debug11ContextImplIZN5capnp12SchemaLoader20CompatibilityChecker18checkCompatibilityERKNS3_6schema6Method6ReaderESA_EUlvE_ED1Ev@Base 0.5.3
 (optional=templinst)_ZN2kj1_5Debug11ContextImplIZN5capnp12SchemaLoader20CompatibilityChecker18checkCompatibilityERKNS3_6schema6Method6ReaderESA_EUlvE_ED2Ev@Base 0.5.3
 (optional=templinst)_ZN2kj1_5Debug11ContextImplIZN5capnp12SchemaLoader9Validator8validateERKNS3_6schema4Node6ReaderEEUlvE_E8evaluateEv@Base 0.5.3
 (optional=templinst)_ZN2kj1_5Debug11ContextImplIZN5capnp12SchemaLoader9Validator8validateERKNS3_6schema4Node6ReaderEEUlvE_ED0Ev@Base 0.5.3
 (optional=templinst)_ZN2kj1_5Debug11ContextImplIZN5capnp12SchemaLoader9Validator8validateERKNS3_6schema4Node6ReaderEEUlvE_ED1Ev@Base 0.5.3
 (optional=templinst)_ZN2kj1_5Debug11ContextImplIZN5capnp12SchemaLoader9Validator8validateERKNS3_6schema4Node6ReaderEEUlvE_ED2Ev@Base 0.5.3
 (optional=templinst)_ZN2kj1_5Debug11ContextImplIZN5capnp12SchemaLoader9Validator8validateERKNS3_6schema4Node6Struct6ReaderEmEUlvE_E8evaluateEv@Base 0.5.3
 (optional=templinst)_ZN2kj1_5Debug11ContextImplIZN5capnp12SchemaLoader9Validator8validateERKNS3_6schema4Node6Struct6ReaderEmEUlvE_ED0Ev@Base 0.5.3
 (optional=templinst)_ZN2kj1_5Debug11ContextImplIZN5capnp12SchemaLoader9Validator8validateERKNS3_6schema4Node6Struct6ReaderEmEUlvE_ED1Ev@Base 0.5.3
 (optional=templinst)_ZN2kj1_5Debug11ContextImplIZN5capnp12SchemaLoader9Validator8validateERKNS3_6schema4Node6Struct6ReaderEmEUlvE_ED2Ev@Base 0.5.3
 (optional=templinst)_ZN2kj1_5Debug11ContextImplIZN5capnp12SchemaLoader9Validator8validateERKNS3_6schema4Node9Interface6ReaderEEUlvE_E8evaluateEv@Base 0.5.3
 (optional=templinst)_ZN2kj1_5Debug11ContextImplIZN5capnp12SchemaLoader9Validator8validateERKNS3_6schema4Node9Interface6ReaderEEUlvE_ED0Ev@Base 0.5.3
 (optional=templinst)_ZN2kj1_5Debug11ContextImplIZN5capnp12SchemaLoader9Validator8validateERKNS3_6schema4Node9Interface6ReaderEEUlvE_ED1Ev@Base 0.5.3
 (optional=templinst)_ZN2kj1_5Debug11ContextImplIZN5capnp12SchemaLoader9Validator8validateERKNS3_6schema4Node9Interface6ReaderEEUlvE_ED2Ev@Base 0.5.3
 (optional=templinst)_ZN2kj1_5Debug15makeDescriptionIIRA17_KcN5capnp4Text6ReaderEEEENS_6StringEPS3_DpOT_@Base 0.5.3
 (optional=templinst)_ZN2kj1_5Debug15makeDescriptionIIRA23_KcRN5capnp4Text6ReaderEjEEENS_6StringEPS3_DpOT_@Base 0.5.3
 (optional=templinst)_ZN2kj1_5Debug15makeDescriptionIJRA17_KcN5capnp4Text6ReaderEEEENS_6StringEPS3_DpOT_@Base 0.5.3
 (optional=templinst)_ZN2kj1_5Debug15makeDescriptionIJRA23_KcRN5capnp4Text6ReaderEjEEENS_6StringEPS3_DpOT_@Base 0.5.3
 (optional=templinst)_ZN2kj1_5Debug3logIIRA26_KcjEEEvPS3_iNS_11LogSeverityES6_DpOT_@Base 0.5.3
 (optional=templinst)_ZN2kj1_5Debug3logIJRA26_KcjEEEvPS3_iNS_11LogSeverityES6_DpOT_@Base 0.5.3
 (optional=templinst)_ZN2kj1_5Debug5FaultC1IIRA100_KcEEEPS4_iNS_9Exception4TypeES7_S7_DpOT_@Base 0.5.3
 (optional=templinst)_ZN2kj1_5Debug5FaultC1IIRA106_KcEEEPS4_iNS_9Exception4TypeES7_S7_DpOT_@Base 0.5.3
 (optional=templinst)_ZN2kj1_5Debug5FaultC1IIRA107_KcEEEPS4_iNS_9Exception4TypeES7_S7_DpOT_@Base 0.5.3
 (optional=templinst)_ZN2kj1_5Debug5FaultC1IIRA12_KcEEEPS4_iNS_9Exception4TypeES7_S7_DpOT_@Base 0.5.3
 (optional=templinst)_ZN2kj1_5Debug5FaultC1IIRA144_KcEEEPS4_iNS_9Exception4TypeES7_S7_DpOT_@Base 0.5.3
 (optional=templinst)_ZN2kj1_5Debug5FaultC1IIRA15_KcRNS_9StringPtrEEEEPS4_iNS_9Exception4TypeES9_S9_DpOT_@Base 0.5.3
 (optional=templinst)_ZN2kj1_5Debug5FaultC1IIRA17_KcEEEPS4_iNS_9Exception4TypeES7_S7_DpOT_@Base 0.5.3
 (optional=templinst)_ZN2kj1_5Debug5FaultC1IIRA18_KcEEEPS4_iNS_9Exception4TypeES7_S7_DpOT_@Base 0.5.3
 (optional=templinst)_ZN2kj1_5Debug5FaultC1IIRA18_KcN5capnp4Text6ReaderEEEEPS4_iNS_9Exception4TypeESA_SA_DpOT_@Base 0.5.3
 (optional=templinst)_ZN2kj1_5Debug5FaultC1IIRA192_KcEEEPS4_iNS_9Exception4TypeES7_S7_DpOT_@Base 0.5.3
 (optional=templinst)_ZN2kj1_5Debug5FaultC1IIRA19_KcEEEPS4_iNS_9Exception4TypeES7_S7_DpOT_@Base 0.5.3
 (optional=templinst)_ZN2kj1_5Debug5FaultC1IIRA19_KcRjEEEPS4_iNS_9Exception4TypeES8_S8_DpOT_@Base 0.5.3
 (optional=templinst)_ZN2kj1_5Debug5FaultC1IIRA20_KcN5capnp4Text6ReaderEEEEPS4_iNS_9Exception4TypeESA_SA_DpOT_@Base 0.5.3
 (optional=templinst)_ZN2kj1_5Debug5FaultC1IIRA21_KcEEEPS4_iNS_9Exception4TypeES7_S7_DpOT_@Base 0.5.3
 (optional=templinst)_ZN2kj1_5Debug5FaultC1IIRA22_KcEEEPS4_iNS_9Exception4TypeES7_S7_DpOT_@Base 0.5.3
 (optional=templinst)_ZN2kj1_5Debug5FaultC1IIRA230_KcEEEPS4_iNS_9Exception4TypeES7_S7_DpOT_@Base 0.5.3
 (optional=templinst)_ZN2kj1_5Debug5FaultC1IIRA23_KcEEEPS4_iNS_9Exception4TypeES7_S7_DpOT_@Base 0.5.3
 (optional=templinst)_ZN2kj1_5Debug5FaultC1IIRA24_KcEEEPS4_iNS_9Exception4TypeES7_S7_DpOT_@Base 0.5.3
 (optional=templinst)_ZN2kj1_5Debug5FaultC1IIRA25_KcEEEPS4_iNS_9Exception4TypeES7_S7_DpOT_@Base 0.5.3
 (optional=templinst)_ZN2kj1_5Debug5FaultC1IIRA26_KcEEEPS4_iNS_9Exception4TypeES7_S7_DpOT_@Base 0.5.3
 (optional=templinst)_ZN2kj1_5Debug5FaultC1IIRA26_KcRNS_9StringPtrEEEEPS4_iNS_9Exception4TypeES9_S9_DpOT_@Base 0.5.3
 (optional=templinst)_ZN2kj1_5Debug5FaultC1IIRA26_KcjEEEPS4_iNS_9Exception4TypeES7_S7_DpOT_@Base 0.5.3
 (optional=templinst)_ZN2kj1_5Debug5FaultC1IIRA26_KcjjEEEPS4_iNS_9Exception4TypeES7_S7_DpOT_@Base 0.5.3
 (optional=templinst)_ZN2kj1_5Debug5FaultC1IIRA27_KcEEEPS4_iNS_9Exception4TypeES7_S7_DpOT_@Base 0.5.3
 (optional=templinst)_ZN2kj1_5Debug5FaultC1IIRA27_KcRNS_9StringPtrEEEEPS4_iNS_9Exception4TypeES9_S9_DpOT_@Base 0.5.3
 (optional=templinst)_ZN2kj1_5Debug5FaultC1IIRA27_KcjRjS7_EEEPS4_iNS_9Exception4TypeES8_S8_DpOT_@Base 0.5.3
 (optional=templinst)_ZN2kj1_5Debug5FaultC1IIRA28_KcEEEPS4_iNS_9Exception4TypeES7_S7_DpOT_@Base 0.5.3
 (optional=templinst)_ZN2kj1_5Debug5FaultC1IIRA29_KcEEEPS4_iNS_9Exception4TypeES7_S7_DpOT_@Base 0.5.3
 (optional=templinst)_ZN2kj1_5Debug5FaultC1IIRA29_KcNS_11CappedArrayIcLm17EEEEEEPS4_iNS_9Exception4TypeES9_S9_DpOT_@Base 0.5.3
 (optional=templinst)_ZN2kj1_5Debug5FaultC1IIRA29_KcRNS_9StringPtrEEEEPS4_iNS_9Exception4TypeES9_S9_DpOT_@Base 0.5.3
 (optional=templinst)_ZN2kj1_5Debug5FaultC1IIRA30_KcEEEPS4_iNS_9Exception4TypeES7_S7_DpOT_@Base 0.5.3
 (optional=templinst)_ZN2kj1_5Debug5FaultC1IIRA31_KcEEEPS4_iNS_9Exception4TypeES7_S7_DpOT_@Base 0.5.3
 (optional=templinst)_ZN2kj1_5Debug5FaultC1IIRA32_KcEEEPS4_iNS_9Exception4TypeES7_S7_DpOT_@Base 0.5.3
 (optional=templinst)_ZN2kj1_5Debug5FaultC1IIRA33_KcEEEPS4_iNS_9Exception4TypeES7_S7_DpOT_@Base 0.5.3
 (optional=templinst)_ZN2kj1_5Debug5FaultC1IIRA34_KcEEEPS4_iNS_9Exception4TypeES7_S7_DpOT_@Base 0.5.3
 (optional=templinst)_ZN2kj1_5Debug5FaultC1IIRA34_KcjEEEPS4_iNS_9Exception4TypeES7_S7_DpOT_@Base 0.5.3
 (optional=templinst)_ZN2kj1_5Debug5FaultC1IIRA35_KcEEEPS4_iNS_9Exception4TypeES7_S7_DpOT_@Base 0.5.3
 (optional=templinst)_ZN2kj1_5Debug5FaultC1IIRA36_KcEEEPS4_iNS_9Exception4TypeES7_S7_DpOT_@Base 0.5.3
 (optional=templinst)_ZN2kj1_5Debug5FaultC1IIRA37_KcEEEPS4_iNS_9Exception4TypeES7_S7_DpOT_@Base 0.5.3
 (optional=templinst)_ZN2kj1_5Debug5FaultC1IIRA38_KcEEEPS4_iNS_9Exception4TypeES7_S7_DpOT_@Base 0.5.3
 (optional=templinst)_ZN2kj1_5Debug5FaultC1IIRA39_KcEEEPS4_iNS_9Exception4TypeES7_S7_DpOT_@Base 0.5.3
 (optional=templinst)_ZN2kj1_5Debug5FaultC1IIRA39_KcRdEEEPS4_iNS_9Exception4TypeES8_S8_DpOT_@Base 0.5.3
 (optional=templinst)_ZN2kj1_5Debug5FaultC1IIRA39_KcRlEEEPS4_iNS_9Exception4TypeES8_S8_DpOT_@Base 0.5.3
 (optional=templinst)_ZN2kj1_5Debug5FaultC1IIRA39_KcRmEEEPS4_iNS_9Exception4TypeES8_S8_DpOT_@Base 0.5.3
 (optional=templinst)_ZN2kj1_5Debug5FaultC1IIRA39_KcRxEEEPS4_iNS_9Exception4TypeES8_S8_DpOT_@Base 0.5.3
 (optional=templinst)_ZN2kj1_5Debug5FaultC1IIRA39_KcRyEEEPS4_iNS_9Exception4TypeES8_S8_DpOT_@Base 0.5.3
 (optional=templinst)_ZN2kj1_5Debug5FaultC1IIRA40_KcEEEPS4_iNS_9Exception4TypeES7_S7_DpOT_@Base 0.5.3
 (optional=templinst)_ZN2kj1_5Debug5FaultC1IIRA41_KcEEEPS4_iNS_9Exception4TypeES7_S7_DpOT_@Base 0.5.3
 (optional=templinst)_ZN2kj1_5Debug5FaultC1IIRA41_KcN5capnp4Text6ReaderEEEEPS4_iNS_9Exception4TypeESA_SA_DpOT_@Base 0.5.3
 (optional=templinst)_ZN2kj1_5Debug5FaultC1IIRA42_KcEEEPS4_iNS_9Exception4TypeES7_S7_DpOT_@Base 0.5.3
 (optional=templinst)_ZN2kj1_5Debug5FaultC1IIRA43_KcEEEPS4_iNS_9Exception4TypeES7_S7_DpOT_@Base 0.5.3
 (optional=templinst)_ZN2kj1_5Debug5FaultC1IIRA44_KcEEEPS4_iNS_9Exception4TypeES7_S7_DpOT_@Base 0.5.3
 (optional=templinst)_ZN2kj1_5Debug5FaultC1IIRA44_KcN5capnp4Text6ReaderEEEEPS4_iNS_9Exception4TypeESA_SA_DpOT_@Base 0.5.3
 (optional=templinst)_ZN2kj1_5Debug5FaultC1IIRA44_KcNS_11CappedArrayIcLm17EEEEEEPS4_iNS_9Exception4TypeES9_S9_DpOT_@Base 0.5.3
 (optional=templinst)_ZN2kj1_5Debug5FaultC1IIRA45_KcEEEPS4_iNS_9Exception4TypeES7_S7_DpOT_@Base 0.5.3
 (optional=templinst)_ZN2kj1_5Debug5FaultC1IIRA46_KcEEEPS4_iNS_9Exception4TypeES7_S7_DpOT_@Base 0.5.3
 (optional=templinst)_ZN2kj1_5Debug5FaultC1IIRA46_KcRN5capnp6schema4Type6ReaderEEEEPS4_iNS_9Exception4TypeESC_SC_DpOT_@Base 0.5.3
 (optional=templinst)_ZN2kj1_5Debug5FaultC1IIRA46_KcRmjjN5capnp4Text6ReaderEEEEPS4_iNS_9Exception4TypeESB_SB_DpOT_@Base 0.5.3
 (optional=templinst)_ZN2kj1_5Debug5FaultC1IIRA47_KcEEEPS4_iNS_9Exception4TypeES7_S7_DpOT_@Base 0.5.3
 (optional=templinst)_ZN2kj1_5Debug5FaultC1IIRA48_KcEEEPS4_iNS_9Exception4TypeES7_S7_DpOT_@Base 0.5.3
 (optional=templinst)_ZN2kj1_5Debug5FaultC1IIRA48_KcN5capnp4Text6ReaderEEEEPS4_iNS_9Exception4TypeESA_SA_DpOT_@Base 0.5.3
 (optional=templinst)_ZN2kj1_5Debug5FaultC1IIRA49_KcEEEPS4_iNS_9Exception4TypeES7_S7_DpOT_@Base 0.5.3
 (optional=templinst)_ZN2kj1_5Debug5FaultC1IIRA50_KcEEEPS4_iNS_9Exception4TypeES7_S7_DpOT_@Base 0.5.3
 (optional=templinst)_ZN2kj1_5Debug5FaultC1IIRA51_KcN5capnp4Text6ReaderEEEEPS4_iNS_9Exception4TypeESA_SA_DpOT_@Base 0.5.3
 (optional=templinst)_ZN2kj1_5Debug5FaultC1IIRA52_KcEEEPS4_iNS_9Exception4TypeES7_S7_DpOT_@Base 0.5.3
 (optional=templinst)_ZN2kj1_5Debug5FaultC1IIRA53_KcEEEPS4_iNS_9Exception4TypeES7_S7_DpOT_@Base 0.5.3
 (optional=templinst)_ZN2kj1_5Debug5FaultC1IIRA53_KcRKmN5capnp4Text6ReaderESB_EEEPS4_iNS_9Exception4TypeESC_SC_DpOT_@Base 0.5.3
 (optional=templinst)_ZN2kj1_5Debug5FaultC1IIRA54_KcEEEPS4_iNS_9Exception4TypeES7_S7_DpOT_@Base 0.5.3
 (optional=templinst)_ZN2kj1_5Debug5FaultC1IIRA55_KcEEEPS4_iNS_9Exception4TypeES7_S7_DpOT_@Base 0.5.3
 (optional=templinst)_ZN2kj1_5Debug5FaultC1IIRA56_KcEEEPS4_iNS_9Exception4TypeES7_S7_DpOT_@Base 0.5.3
 (optional=templinst)_ZN2kj1_5Debug5FaultC1IIRA57_KcEEEPS4_iNS_9Exception4TypeES7_S7_DpOT_@Base 0.5.3
 (optional=templinst)_ZN2kj1_5Debug5FaultC1IIRA58_KcEEEPS4_iNS_9Exception4TypeES7_S7_DpOT_@Base 0.5.3
 (optional=templinst)_ZN2kj1_5Debug5FaultC1IIRA59_KcEEEPS4_iNS_9Exception4TypeES7_S7_DpOT_@Base 0.5.3
 (optional=templinst)_ZN2kj1_5Debug5FaultC1IIRA60_KcEEEPS4_iNS_9Exception4TypeES7_S7_DpOT_@Base 0.5.3
 (optional=templinst)_ZN2kj1_5Debug5FaultC1IIRA61_KcEEEPS4_iNS_9Exception4TypeES7_S7_DpOT_@Base 0.5.3
 (optional=templinst)_ZN2kj1_5Debug5FaultC1IIRA62_KcEEEPS4_iNS_9Exception4TypeES7_S7_DpOT_@Base 0.5.3
 (optional=templinst)_ZN2kj1_5Debug5FaultC1IIRA63_KcEEEPS4_iNS_9Exception4TypeES7_S7_DpOT_@Base 0.5.3
 (optional=templinst)_ZN2kj1_5Debug5FaultC1IIRA63_KcjEEEPS4_iNS_9Exception4TypeES7_S7_DpOT_@Base 0.5.3
 (optional=templinst)_ZN2kj1_5Debug5FaultC1IIRA66_KcEEEPS4_iNS_9Exception4TypeES7_S7_DpOT_@Base 0.5.3
 (optional=templinst)_ZN2kj1_5Debug5FaultC1IIRA66_KcN5capnp4Text6ReaderES9_EEEPS4_iNS_9Exception4TypeESA_SA_DpOT_@Base 0.5.3
 (optional=templinst)_ZN2kj1_5Debug5FaultC1IIRA67_KcEEEPS4_iNS_9Exception4TypeES7_S7_DpOT_@Base 0.5.3
 (optional=templinst)_ZN2kj1_5Debug5FaultC1IIRA68_KcEEEPS4_iNS_9Exception4TypeES7_S7_DpOT_@Base 0.5.3
 (optional=templinst)_ZN2kj1_5Debug5FaultC1IIRA69_KcEEEPS4_iNS_9Exception4TypeES7_S7_DpOT_@Base 0.5.3
 (optional=templinst)_ZN2kj1_5Debug5FaultC1IIRA70_KcEEEPS4_iNS_9Exception4TypeES7_S7_DpOT_@Base 0.5.3
 (optional=templinst)_ZN2kj1_5Debug5FaultC1IIRA71_KcEEEPS4_iNS_9Exception4TypeES7_S7_DpOT_@Base 0.5.3
 (optional=templinst)_ZN2kj1_5Debug5FaultC1IIRA72_KcEEEPS4_iNS_9Exception4TypeES7_S7_DpOT_@Base 0.5.3
 (optional=templinst)_ZN2kj1_5Debug5FaultC1IIRA73_KcEEEPS4_iNS_9Exception4TypeES7_S7_DpOT_@Base 0.5.3
 (optional=templinst)_ZN2kj1_5Debug5FaultC1IIRA76_KcEEEPS4_iNS_9Exception4TypeES7_S7_DpOT_@Base 0.5.3
 (optional=templinst)_ZN2kj1_5Debug5FaultC1IIRA77_KcEEEPS4_iNS_9Exception4TypeES7_S7_DpOT_@Base 0.5.3
 (optional=templinst)_ZN2kj1_5Debug5FaultC1IIRA79_KcEEEPS4_iNS_9Exception4TypeES7_S7_DpOT_@Base 0.5.3
 (optional=templinst)_ZN2kj1_5Debug5FaultC1IIRA90_KcEEEPS4_iNS_9Exception4TypeES7_S7_DpOT_@Base 0.5.3
 (optional=templinst)_ZN2kj1_5Debug5FaultC1IIRA93_KcEEEPS4_iNS_9Exception4TypeES7_S7_DpOT_@Base 0.5.3
 (optional=templinst)_ZN2kj1_5Debug5FaultC1IIRjEEEPKciiS6_S6_DpOT_@Base 0.5.3
 (optional=templinst)_ZN2kj1_5Debug5FaultC1IJRA100_KcEEEPS4_iNS_9Exception4TypeES7_S7_DpOT_@Base 0.5.3
 (optional=templinst)_ZN2kj1_5Debug5FaultC1IJRA106_KcEEEPS4_iNS_9Exception4TypeES7_S7_DpOT_@Base 0.5.3
 (optional=templinst)_ZN2kj1_5Debug5FaultC1IJRA107_KcEEEPS4_iNS_9Exception4TypeES7_S7_DpOT_@Base 0.5.3
 (optional=templinst)_ZN2kj1_5Debug5FaultC1IJRA12_KcEEEPS4_iNS_9Exception4TypeES7_S7_DpOT_@Base 0.5.3
 (optional=templinst)_ZN2kj1_5Debug5FaultC1IJRA144_KcEEEPS4_iNS_9Exception4TypeES7_S7_DpOT_@Base 0.5.3
 (optional=templinst)_ZN2kj1_5Debug5FaultC1IJRA15_KcRNS_9StringPtrEEEEPS4_iNS_9Exception4TypeES9_S9_DpOT_@Base 0.5.3
 (optional=templinst)_ZN2kj1_5Debug5FaultC1IJRA17_KcEEEPS4_iNS_9Exception4TypeES7_S7_DpOT_@Base 0.5.3
 (optional=templinst)_ZN2kj1_5Debug5FaultC1IJRA18_KcEEEPS4_iNS_9Exception4TypeES7_S7_DpOT_@Base 0.5.3
 (optional=templinst)_ZN2kj1_5Debug5FaultC1IJRA18_KcN5capnp4Text6ReaderEEEEPS4_iNS_9Exception4TypeESA_SA_DpOT_@Base 0.5.3
 (optional=templinst)_ZN2kj1_5Debug5FaultC1IJRA192_KcEEEPS4_iNS_9Exception4TypeES7_S7_DpOT_@Base 0.5.3
 (optional=templinst)_ZN2kj1_5Debug5FaultC1IJRA19_KcEEEPS4_iNS_9Exception4TypeES7_S7_DpOT_@Base 0.5.3
 (optional=templinst)_ZN2kj1_5Debug5FaultC1IJRA19_KcRjEEEPS4_iNS_9Exception4TypeES8_S8_DpOT_@Base 0.5.3
 (optional=templinst)_ZN2kj1_5Debug5FaultC1IJRA20_KcN5capnp4Text6ReaderEEEEPS4_iNS_9Exception4TypeESA_SA_DpOT_@Base 0.5.3
 (optional=templinst)_ZN2kj1_5Debug5FaultC1IJRA21_KcEEEPS4_iNS_9Exception4TypeES7_S7_DpOT_@Base 0.5.3
 (optional=templinst)_ZN2kj1_5Debug5FaultC1IJRA22_KcEEEPS4_iNS_9Exception4TypeES7_S7_DpOT_@Base 0.5.3
 (optional=templinst)_ZN2kj1_5Debug5FaultC1IJRA230_KcEEEPS4_iNS_9Exception4TypeES7_S7_DpOT_@Base 0.5.3
 (optional=templinst)_ZN2kj1_5Debug5FaultC1IJRA23_KcEEEPS4_iNS_9Exception4TypeES7_S7_DpOT_@Base 0.5.3
 (optional=templinst)_ZN2kj1_5Debug5FaultC1IJRA24_KcEEEPS4_iNS_9Exception4TypeES7_S7_DpOT_@Base 0.5.3
 (optional=templinst)_ZN2kj1_5Debug5FaultC1IJRA25_KcEEEPS4_iNS_9Exception4TypeES7_S7_DpOT_@Base 0.5.3
 (optional=templinst)_ZN2kj1_5Debug5FaultC1IJRA26_KcEEEPS4_iNS_9Exception4TypeES7_S7_DpOT_@Base 0.5.3
 (optional=templinst)_ZN2kj1_5Debug5FaultC1IJRA26_KcRNS_9StringPtrEEEEPS4_iNS_9Exception4TypeES9_S9_DpOT_@Base 0.5.3
 (optional=templinst)_ZN2kj1_5Debug5FaultC1IJRA26_KcjEEEPS4_iNS_9Exception4TypeES7_S7_DpOT_@Base 0.5.3
 (optional=templinst)_ZN2kj1_5Debug5FaultC1IJRA26_KcjjEEEPS4_iNS_9Exception4TypeES7_S7_DpOT_@Base 0.5.3
 (optional=templinst)_ZN2kj1_5Debug5FaultC1IJRA27_KcEEEPS4_iNS_9Exception4TypeES7_S7_DpOT_@Base 0.5.3
 (optional=templinst)_ZN2kj1_5Debug5FaultC1IJRA27_KcRNS_9StringPtrEEEEPS4_iNS_9Exception4TypeES9_S9_DpOT_@Base 0.5.3
 (optional=templinst)_ZN2kj1_5Debug5FaultC1IJRA27_KcjRjS7_EEEPS4_iNS_9Exception4TypeES8_S8_DpOT_@Base 0.5.3
 (optional=templinst)_ZN2kj1_5Debug5FaultC1IJRA28_KcEEEPS4_iNS_9Exception4TypeES7_S7_DpOT_@Base 0.5.3
 (optional=templinst)_ZN2kj1_5Debug5FaultC1IJRA29_KcEEEPS4_iNS_9Exception4TypeES7_S7_DpOT_@Base 0.5.3
 (optional=templinst)_ZN2kj1_5Debug5FaultC1IJRA29_KcNS_11CappedArrayIcLm17EEEEEEPS4_iNS_9Exception4TypeES9_S9_DpOT_@Base 0.5.3
 (optional=templinst)_ZN2kj1_5Debug5FaultC1IJRA29_KcRNS_9StringPtrEEEEPS4_iNS_9Exception4TypeES9_S9_DpOT_@Base 0.5.3
 (optional=templinst)_ZN2kj1_5Debug5FaultC1IJRA30_KcEEEPS4_iNS_9Exception4TypeES7_S7_DpOT_@Base 0.5.3
 (optional=templinst)_ZN2kj1_5Debug5FaultC1IJRA31_KcEEEPS4_iNS_9Exception4TypeES7_S7_DpOT_@Base 0.5.3
 (optional=templinst)_ZN2kj1_5Debug5FaultC1IJRA32_KcEEEPS4_iNS_9Exception4TypeES7_S7_DpOT_@Base 0.5.3
 (optional=templinst)_ZN2kj1_5Debug5FaultC1IJRA33_KcEEEPS4_iNS_9Exception4TypeES7_S7_DpOT_@Base 0.5.3
 (optional=templinst)_ZN2kj1_5Debug5FaultC1IJRA34_KcEEEPS4_iNS_9Exception4TypeES7_S7_DpOT_@Base 0.5.3
 (optional=templinst)_ZN2kj1_5Debug5FaultC1IJRA34_KcjEEEPS4_iNS_9Exception4TypeES7_S7_DpOT_@Base 0.5.3
 (optional=templinst)_ZN2kj1_5Debug5FaultC1IJRA35_KcEEEPS4_iNS_9Exception4TypeES7_S7_DpOT_@Base 0.5.3
 (optional=templinst)_ZN2kj1_5Debug5FaultC1IJRA36_KcEEEPS4_iNS_9Exception4TypeES7_S7_DpOT_@Base 0.5.3
 (optional=templinst)_ZN2kj1_5Debug5FaultC1IJRA37_KcEEEPS4_iNS_9Exception4TypeES7_S7_DpOT_@Base 0.5.3
 (optional=templinst)_ZN2kj1_5Debug5FaultC1IJRA38_KcEEEPS4_iNS_9Exception4TypeES7_S7_DpOT_@Base 0.5.3
 (optional=templinst)_ZN2kj1_5Debug5FaultC1IJRA39_KcEEEPS4_iNS_9Exception4TypeES7_S7_DpOT_@Base 0.5.3
 (optional=templinst)_ZN2kj1_5Debug5FaultC1IJRA39_KcRdEEEPS4_iNS_9Exception4TypeES8_S8_DpOT_@Base 0.5.3
 (optional=templinst)_ZN2kj1_5Debug5FaultC1IJRA39_KcRlEEEPS4_iNS_9Exception4TypeES8_S8_DpOT_@Base 0.5.3
 (optional=templinst)_ZN2kj1_5Debug5FaultC1IJRA39_KcRmEEEPS4_iNS_9Exception4TypeES8_S8_DpOT_@Base 0.5.3
 (optional=templinst)_ZN2kj1_5Debug5FaultC1IJRA39_KcRxEEEPS4_iNS_9Exception4TypeES8_S8_DpOT_@Base 0.5.3
 (optional=templinst)_ZN2kj1_5Debug5FaultC1IJRA39_KcRyEEEPS4_iNS_9Exception4TypeES8_S8_DpOT_@Base 0.5.3
 (optional=templinst)_ZN2kj1_5Debug5FaultC1IJRA40_KcEEEPS4_iNS_9Exception4TypeES7_S7_DpOT_@Base 0.5.3
 (optional=templinst)_ZN2kj1_5Debug5FaultC1IJRA41_KcEEEPS4_iNS_9Exception4TypeES7_S7_DpOT_@Base 0.5.3
 (optional=templinst)_ZN2kj1_5Debug5FaultC1IJRA41_KcN5capnp4Text6ReaderEEEEPS4_iNS_9Exception4TypeESA_SA_DpOT_@Base 0.5.3
 (optional=templinst)_ZN2kj1_5Debug5FaultC1IJRA42_KcEEEPS4_iNS_9Exception4TypeES7_S7_DpOT_@Base 0.5.3
 (optional=templinst)_ZN2kj1_5Debug5FaultC1IJRA43_KcEEEPS4_iNS_9Exception4TypeES7_S7_DpOT_@Base 0.5.3
 (optional=templinst)_ZN2kj1_5Debug5FaultC1IJRA44_KcEEEPS4_iNS_9Exception4TypeES7_S7_DpOT_@Base 0.5.3
 (optional=templinst)_ZN2kj1_5Debug5FaultC1IJRA44_KcN5capnp4Text6ReaderEEEEPS4_iNS_9Exception4TypeESA_SA_DpOT_@Base 0.5.3
 (optional=templinst)_ZN2kj1_5Debug5FaultC1IJRA44_KcNS_11CappedArrayIcLm17EEEEEEPS4_iNS_9Exception4TypeES9_S9_DpOT_@Base 0.5.3
 (optional=templinst)_ZN2kj1_5Debug5FaultC1IJRA45_KcEEEPS4_iNS_9Exception4TypeES7_S7_DpOT_@Base 0.5.3
 (optional=templinst)_ZN2kj1_5Debug5FaultC1IJRA46_KcEEEPS4_iNS_9Exception4TypeES7_S7_DpOT_@Base 0.5.3
 (optional=templinst)_ZN2kj1_5Debug5FaultC1IJRA46_KcRN5capnp6schema4Type6ReaderEEEEPS4_iNS_9Exception4TypeESC_SC_DpOT_@Base 0.5.3
 (optional=templinst)_ZN2kj1_5Debug5FaultC1IJRA46_KcRmjjN5capnp4Text6ReaderEEEEPS4_iNS_9Exception4TypeESB_SB_DpOT_@Base 0.5.3
 (optional=templinst)_ZN2kj1_5Debug5FaultC1IJRA47_KcEEEPS4_iNS_9Exception4TypeES7_S7_DpOT_@Base 0.5.3
 (optional=templinst)_ZN2kj1_5Debug5FaultC1IJRA48_KcEEEPS4_iNS_9Exception4TypeES7_S7_DpOT_@Base 0.5.3
 (optional=templinst)_ZN2kj1_5Debug5FaultC1IJRA48_KcN5capnp4Text6ReaderEEEEPS4_iNS_9Exception4TypeESA_SA_DpOT_@Base 0.5.3
 (optional=templinst)_ZN2kj1_5Debug5FaultC1IJRA49_KcEEEPS4_iNS_9Exception4TypeES7_S7_DpOT_@Base 0.5.3
 (optional=templinst)_ZN2kj1_5Debug5FaultC1IJRA50_KcEEEPS4_iNS_9Exception4TypeES7_S7_DpOT_@Base 0.5.3
 (optional=templinst)_ZN2kj1_5Debug5FaultC1IJRA51_KcN5capnp4Text6ReaderEEEEPS4_iNS_9Exception4TypeESA_SA_DpOT_@Base 0.5.3
 (optional=templinst)_ZN2kj1_5Debug5FaultC1IJRA52_KcEEEPS4_iNS_9Exception4TypeES7_S7_DpOT_@Base 0.5.3
 (optional=templinst)_ZN2kj1_5Debug5FaultC1IJRA53_KcEEEPS4_iNS_9Exception4TypeES7_S7_DpOT_@Base 0.5.3
 (optional=templinst)_ZN2kj1_5Debug5FaultC1IJRA53_KcRKmN5capnp4Text6ReaderESB_EEEPS4_iNS_9Exception4TypeESC_SC_DpOT_@Base 0.5.3
 (optional=templinst)_ZN2kj1_5Debug5FaultC1IJRA54_KcEEEPS4_iNS_9Exception4TypeES7_S7_DpOT_@Base 0.5.3
 (optional=templinst)_ZN2kj1_5Debug5FaultC1IJRA55_KcEEEPS4_iNS_9Exception4TypeES7_S7_DpOT_@Base 0.5.3
 (optional=templinst)_ZN2kj1_5Debug5FaultC1IJRA56_KcEEEPS4_iNS_9Exception4TypeES7_S7_DpOT_@Base 0.5.3
 (optional=templinst)_ZN2kj1_5Debug5FaultC1IJRA57_KcEEEPS4_iNS_9Exception4TypeES7_S7_DpOT_@Base 0.5.3
 (optional=templinst)_ZN2kj1_5Debug5FaultC1IJRA58_KcEEEPS4_iNS_9Exception4TypeES7_S7_DpOT_@Base 0.5.3
 (optional=templinst)_ZN2kj1_5Debug5FaultC1IJRA59_KcEEEPS4_iNS_9Exception4TypeES7_S7_DpOT_@Base 0.5.3
 (optional=templinst)_ZN2kj1_5Debug5FaultC1IJRA60_KcEEEPS4_iNS_9Exception4TypeES7_S7_DpOT_@Base 0.5.3
 (optional=templinst)_ZN2kj1_5Debug5FaultC1IJRA61_KcEEEPS4_iNS_9Exception4TypeES7_S7_DpOT_@Base 0.5.3
 (optional=templinst)_ZN2kj1_5Debug5FaultC1IJRA62_KcEEEPS4_iNS_9Exception4TypeES7_S7_DpOT_@Base 0.5.3
 (optional=templinst)_ZN2kj1_5Debug5FaultC1IJRA63_KcEEEPS4_iNS_9Exception4TypeES7_S7_DpOT_@Base 0.5.3
 (optional=templinst)_ZN2kj1_5Debug5FaultC1IJRA63_KcjEEEPS4_iNS_9Exception4TypeES7_S7_DpOT_@Base 0.5.3
 (optional=templinst)_ZN2kj1_5Debug5FaultC1IJRA66_KcEEEPS4_iNS_9Exception4TypeES7_S7_DpOT_@Base 0.5.3
 (optional=templinst)_ZN2kj1_5Debug5FaultC1IJRA66_KcN5capnp4Text6ReaderES9_EEEPS4_iNS_9Exception4TypeESA_SA_DpOT_@Base 0.5.3
 (optional=templinst)_ZN2kj1_5Debug5FaultC1IJRA67_KcEEEPS4_iNS_9Exception4TypeES7_S7_DpOT_@Base 0.5.3
 (optional=templinst)_ZN2kj1_5Debug5FaultC1IJRA68_KcEEEPS4_iNS_9Exception4TypeES7_S7_DpOT_@Base 0.5.3
 (optional=templinst)_ZN2kj1_5Debug5FaultC1IJRA69_KcEEEPS4_iNS_9Exception4TypeES7_S7_DpOT_@Base 0.5.3
 (optional=templinst)_ZN2kj1_5Debug5FaultC1IJRA70_KcEEEPS4_iNS_9Exception4TypeES7_S7_DpOT_@Base 0.5.3
 (optional=templinst)_ZN2kj1_5Debug5FaultC1IJRA71_KcEEEPS4_iNS_9Exception4TypeES7_S7_DpOT_@Base 0.5.3
 (optional=templinst)_ZN2kj1_5Debug5FaultC1IJRA72_KcEEEPS4_iNS_9Exception4TypeES7_S7_DpOT_@Base 0.5.3
 (optional=templinst)_ZN2kj1_5Debug5FaultC1IJRA73_KcEEEPS4_iNS_9Exception4TypeES7_S7_DpOT_@Base 0.5.3
 (optional=templinst)_ZN2kj1_5Debug5FaultC1IJRA76_KcEEEPS4_iNS_9Exception4TypeES7_S7_DpOT_@Base 0.5.3
 (optional=templinst)_ZN2kj1_5Debug5FaultC1IJRA77_KcEEEPS4_iNS_9Exception4TypeES7_S7_DpOT_@Base 0.5.3
 (optional=templinst)_ZN2kj1_5Debug5FaultC1IJRA79_KcEEEPS4_iNS_9Exception4TypeES7_S7_DpOT_@Base 0.5.3
 (optional=templinst)_ZN2kj1_5Debug5FaultC1IJRA90_KcEEEPS4_iNS_9Exception4TypeES7_S7_DpOT_@Base 0.5.3
 (optional=templinst)_ZN2kj1_5Debug5FaultC1IJRA93_KcEEEPS4_iNS_9Exception4TypeES7_S7_DpOT_@Base 0.5.3
 (optional=templinst)_ZN2kj1_5Debug5FaultC1IJRjEEEPKciiS6_S6_DpOT_@Base 0.5.3
 (optional=templinst)_ZN2kj1_5Debug5FaultC2IIRA100_KcEEEPS4_iNS_9Exception4TypeES7_S7_DpOT_@Base 0.5.3
 (optional=templinst)_ZN2kj1_5Debug5FaultC2IIRA107_KcEEEPS4_iNS_9Exception4TypeES7_S7_DpOT_@Base 0.5.3
 (optional=templinst)_ZN2kj1_5Debug5FaultC2IIRA18_KcN5capnp4Text6ReaderEEEEPS4_iNS_9Exception4TypeESA_SA_DpOT_@Base 0.5.3
 (optional=templinst)_ZN2kj1_5Debug5FaultC2IIRA19_KcRjEEEPS4_iNS_9Exception4TypeES8_S8_DpOT_@Base 0.5.3
 (optional=templinst)_ZN2kj1_5Debug5FaultC2IIRA25_KcEEEPS4_iNS_9Exception4TypeES7_S7_DpOT_@Base 0.5.3
 (optional=templinst)_ZN2kj1_5Debug5FaultC2IIRA26_KcjEEEPS4_iNS_9Exception4TypeES7_S7_DpOT_@Base 0.5.3
 (optional=templinst)_ZN2kj1_5Debug5FaultC2IIRA26_KcjjEEEPS4_iNS_9Exception4TypeES7_S7_DpOT_@Base 0.5.3
 (optional=templinst)_ZN2kj1_5Debug5FaultC2IIRA27_KcjRjS7_EEEPS4_iNS_9Exception4TypeES8_S8_DpOT_@Base 0.5.3
 (optional=templinst)_ZN2kj1_5Debug5FaultC2IIRA29_KcNS_11CappedArrayIcLm17EEEEEEPS4_iNS_9Exception4TypeES9_S9_DpOT_@Base 0.5.3
 (optional=templinst)_ZN2kj1_5Debug5FaultC2IIRA29_KcRNS_9StringPtrEEEEPS4_iNS_9Exception4TypeES9_S9_DpOT_@Base 0.5.3
 (optional=templinst)_ZN2kj1_5Debug5FaultC2IIRA39_KcRdEEEPS4_iNS_9Exception4TypeES8_S8_DpOT_@Base 0.5.3
 (optional=templinst)_ZN2kj1_5Debug5FaultC2IIRA39_KcRlEEEPS4_iNS_9Exception4TypeES8_S8_DpOT_@Base 0.5.3
 (optional=templinst)_ZN2kj1_5Debug5FaultC2IIRA39_KcRmEEEPS4_iNS_9Exception4TypeES8_S8_DpOT_@Base 0.5.3
 (optional=templinst)_ZN2kj1_5Debug5FaultC2IIRA39_KcRxEEEPS4_iNS_9Exception4TypeES8_S8_DpOT_@Base 0.5.3
 (optional=templinst)_ZN2kj1_5Debug5FaultC2IIRA39_KcRyEEEPS4_iNS_9Exception4TypeES8_S8_DpOT_@Base 0.5.3
 (optional=templinst)_ZN2kj1_5Debug5FaultC2IIRA44_KcNS_11CappedArrayIcLm17EEEEEEPS4_iNS_9Exception4TypeES9_S9_DpOT_@Base 0.5.3
 (optional=templinst)_ZN2kj1_5Debug5FaultC2IIRA46_KcRN5capnp6schema4Type6ReaderEEEEPS4_iNS_9Exception4TypeESC_SC_DpOT_@Base 0.5.3
 (optional=templinst)_ZN2kj1_5Debug5FaultC2IIRA46_KcRmjjN5capnp4Text6ReaderEEEEPS4_iNS_9Exception4TypeESB_SB_DpOT_@Base 0.5.3
 (optional=templinst)_ZN2kj1_5Debug5FaultC2IIRA53_KcRKmN5capnp4Text6ReaderESB_EEEPS4_iNS_9Exception4TypeESC_SC_DpOT_@Base 0.5.3
 (optional=templinst)_ZN2kj1_5Debug5FaultC2IIRA60_KcEEEPS4_iNS_9Exception4TypeES7_S7_DpOT_@Base 0.5.3
 (optional=templinst)_ZN2kj1_5Debug5FaultC2IIRA66_KcN5capnp4Text6ReaderES9_EEEPS4_iNS_9Exception4TypeESA_SA_DpOT_@Base 0.5.3
 (optional=templinst)_ZN2kj1_5Debug5FaultC2IIRA69_KcEEEPS4_iNS_9Exception4TypeES7_S7_DpOT_@Base 0.5.3
 (optional=templinst)_ZN2kj1_5Debug5FaultC2IIRA93_KcEEEPS4_iNS_9Exception4TypeES7_S7_DpOT_@Base 0.5.3
 (optional=templinst)_ZN2kj1_5Debug5FaultC2IIRjEEEPKciiS6_S6_DpOT_@Base 0.5.3
 (optional=templinst)_ZN2kj1_5Debug5FaultC2IJRA100_KcEEEPS4_iNS_9Exception4TypeES7_S7_DpOT_@Base 0.5.3
 (optional=templinst)_ZN2kj1_5Debug5FaultC2IJRA106_KcEEEPS4_iNS_9Exception4TypeES7_S7_DpOT_@Base 0.5.3
 (optional=templinst)_ZN2kj1_5Debug5FaultC2IJRA107_KcEEEPS4_iNS_9Exception4TypeES7_S7_DpOT_@Base 0.5.3
 (optional=templinst)_ZN2kj1_5Debug5FaultC2IJRA12_KcEEEPS4_iNS_9Exception4TypeES7_S7_DpOT_@Base 0.5.3
 (optional=templinst)_ZN2kj1_5Debug5FaultC2IJRA144_KcEEEPS4_iNS_9Exception4TypeES7_S7_DpOT_@Base 0.5.3
 (optional=templinst)_ZN2kj1_5Debug5FaultC2IJRA15_KcRNS_9StringPtrEEEEPS4_iNS_9Exception4TypeES9_S9_DpOT_@Base 0.5.3
 (optional=templinst)_ZN2kj1_5Debug5FaultC2IJRA17_KcEEEPS4_iNS_9Exception4TypeES7_S7_DpOT_@Base 0.5.3
 (optional=templinst)_ZN2kj1_5Debug5FaultC2IJRA18_KcEEEPS4_iNS_9Exception4TypeES7_S7_DpOT_@Base 0.5.3
 (optional=templinst)_ZN2kj1_5Debug5FaultC2IJRA18_KcN5capnp4Text6ReaderEEEEPS4_iNS_9Exception4TypeESA_SA_DpOT_@Base 0.5.3
 (optional=templinst)_ZN2kj1_5Debug5FaultC2IJRA192_KcEEEPS4_iNS_9Exception4TypeES7_S7_DpOT_@Base 0.5.3
 (optional=templinst)_ZN2kj1_5Debug5FaultC2IJRA19_KcEEEPS4_iNS_9Exception4TypeES7_S7_DpOT_@Base 0.5.3
 (optional=templinst)_ZN2kj1_5Debug5FaultC2IJRA19_KcRjEEEPS4_iNS_9Exception4TypeES8_S8_DpOT_@Base 0.5.3
 (optional=templinst)_ZN2kj1_5Debug5FaultC2IJRA20_KcN5capnp4Text6ReaderEEEEPS4_iNS_9Exception4TypeESA_SA_DpOT_@Base 0.5.3
 (optional=templinst)_ZN2kj1_5Debug5FaultC2IJRA21_KcEEEPS4_iNS_9Exception4TypeES7_S7_DpOT_@Base 0.5.3
 (optional=templinst)_ZN2kj1_5Debug5FaultC2IJRA22_KcEEEPS4_iNS_9Exception4TypeES7_S7_DpOT_@Base 0.5.3
 (optional=templinst)_ZN2kj1_5Debug5FaultC2IJRA230_KcEEEPS4_iNS_9Exception4TypeES7_S7_DpOT_@Base 0.5.3
 (optional=templinst)_ZN2kj1_5Debug5FaultC2IJRA23_KcEEEPS4_iNS_9Exception4TypeES7_S7_DpOT_@Base 0.5.3
 (optional=templinst)_ZN2kj1_5Debug5FaultC2IJRA24_KcEEEPS4_iNS_9Exception4TypeES7_S7_DpOT_@Base 0.5.3
 (optional=templinst)_ZN2kj1_5Debug5FaultC2IJRA25_KcEEEPS4_iNS_9Exception4TypeES7_S7_DpOT_@Base 0.5.3
 (optional=templinst)_ZN2kj1_5Debug5FaultC2IJRA26_KcEEEPS4_iNS_9Exception4TypeES7_S7_DpOT_@Base 0.5.3
 (optional=templinst)_ZN2kj1_5Debug5FaultC2IJRA26_KcRNS_9StringPtrEEEEPS4_iNS_9Exception4TypeES9_S9_DpOT_@Base 0.5.3
 (optional=templinst)_ZN2kj1_5Debug5FaultC2IJRA26_KcjEEEPS4_iNS_9Exception4TypeES7_S7_DpOT_@Base 0.5.3
 (optional=templinst)_ZN2kj1_5Debug5FaultC2IJRA26_KcjjEEEPS4_iNS_9Exception4TypeES7_S7_DpOT_@Base 0.5.3
 (optional=templinst)_ZN2kj1_5Debug5FaultC2IJRA27_KcEEEPS4_iNS_9Exception4TypeES7_S7_DpOT_@Base 0.5.3
 (optional=templinst)_ZN2kj1_5Debug5FaultC2IJRA27_KcRNS_9StringPtrEEEEPS4_iNS_9Exception4TypeES9_S9_DpOT_@Base 0.5.3
 (optional=templinst)_ZN2kj1_5Debug5FaultC2IJRA27_KcjRjS7_EEEPS4_iNS_9Exception4TypeES8_S8_DpOT_@Base 0.5.3
 (optional=templinst)_ZN2kj1_5Debug5FaultC2IJRA28_KcEEEPS4_iNS_9Exception4TypeES7_S7_DpOT_@Base 0.5.3
 (optional=templinst)_ZN2kj1_5Debug5FaultC2IJRA29_KcEEEPS4_iNS_9Exception4TypeES7_S7_DpOT_@Base 0.5.3
 (optional=templinst)_ZN2kj1_5Debug5FaultC2IJRA29_KcNS_11CappedArrayIcLm17EEEEEEPS4_iNS_9Exception4TypeES9_S9_DpOT_@Base 0.5.3
 (optional=templinst)_ZN2kj1_5Debug5FaultC2IJRA29_KcRNS_9StringPtrEEEEPS4_iNS_9Exception4TypeES9_S9_DpOT_@Base 0.5.3
 (optional=templinst)_ZN2kj1_5Debug5FaultC2IJRA30_KcEEEPS4_iNS_9Exception4TypeES7_S7_DpOT_@Base 0.5.3
 (optional=templinst)_ZN2kj1_5Debug5FaultC2IJRA31_KcEEEPS4_iNS_9Exception4TypeES7_S7_DpOT_@Base 0.5.3
 (optional=templinst)_ZN2kj1_5Debug5FaultC2IJRA32_KcEEEPS4_iNS_9Exception4TypeES7_S7_DpOT_@Base 0.5.3
 (optional=templinst)_ZN2kj1_5Debug5FaultC2IJRA33_KcEEEPS4_iNS_9Exception4TypeES7_S7_DpOT_@Base 0.5.3
 (optional=templinst)_ZN2kj1_5Debug5FaultC2IJRA34_KcEEEPS4_iNS_9Exception4TypeES7_S7_DpOT_@Base 0.5.3
 (optional=templinst)_ZN2kj1_5Debug5FaultC2IJRA34_KcjEEEPS4_iNS_9Exception4TypeES7_S7_DpOT_@Base 0.5.3
 (optional=templinst)_ZN2kj1_5Debug5FaultC2IJRA35_KcEEEPS4_iNS_9Exception4TypeES7_S7_DpOT_@Base 0.5.3
 (optional=templinst)_ZN2kj1_5Debug5FaultC2IJRA36_KcEEEPS4_iNS_9Exception4TypeES7_S7_DpOT_@Base 0.5.3
 (optional=templinst)_ZN2kj1_5Debug5FaultC2IJRA37_KcEEEPS4_iNS_9Exception4TypeES7_S7_DpOT_@Base 0.5.3
 (optional=templinst)_ZN2kj1_5Debug5FaultC2IJRA38_KcEEEPS4_iNS_9Exception4TypeES7_S7_DpOT_@Base 0.5.3
 (optional=templinst)_ZN2kj1_5Debug5FaultC2IJRA39_KcEEEPS4_iNS_9Exception4TypeES7_S7_DpOT_@Base 0.5.3
 (optional=templinst)_ZN2kj1_5Debug5FaultC2IJRA39_KcRdEEEPS4_iNS_9Exception4TypeES8_S8_DpOT_@Base 0.5.3
 (optional=templinst)_ZN2kj1_5Debug5FaultC2IJRA39_KcRlEEEPS4_iNS_9Exception4TypeES8_S8_DpOT_@Base 0.5.3
 (optional=templinst)_ZN2kj1_5Debug5FaultC2IJRA39_KcRmEEEPS4_iNS_9Exception4TypeES8_S8_DpOT_@Base 0.5.3
 (optional=templinst)_ZN2kj1_5Debug5FaultC2IJRA39_KcRxEEEPS4_iNS_9Exception4TypeES8_S8_DpOT_@Base 0.5.3
 (optional=templinst)_ZN2kj1_5Debug5FaultC2IJRA39_KcRyEEEPS4_iNS_9Exception4TypeES8_S8_DpOT_@Base 0.5.3
 (optional=templinst)_ZN2kj1_5Debug5FaultC2IJRA40_KcEEEPS4_iNS_9Exception4TypeES7_S7_DpOT_@Base 0.5.3
 (optional=templinst)_ZN2kj1_5Debug5FaultC2IJRA41_KcEEEPS4_iNS_9Exception4TypeES7_S7_DpOT_@Base 0.5.3
 (optional=templinst)_ZN2kj1_5Debug5FaultC2IJRA41_KcN5capnp4Text6ReaderEEEEPS4_iNS_9Exception4TypeESA_SA_DpOT_@Base 0.5.3
 (optional=templinst)_ZN2kj1_5Debug5FaultC2IJRA42_KcEEEPS4_iNS_9Exception4TypeES7_S7_DpOT_@Base 0.5.3
 (optional=templinst)_ZN2kj1_5Debug5FaultC2IJRA43_KcEEEPS4_iNS_9Exception4TypeES7_S7_DpOT_@Base 0.5.3
 (optional=templinst)_ZN2kj1_5Debug5FaultC2IJRA44_KcEEEPS4_iNS_9Exception4TypeES7_S7_DpOT_@Base 0.5.3
 (optional=templinst)_ZN2kj1_5Debug5FaultC2IJRA44_KcN5capnp4Text6ReaderEEEEPS4_iNS_9Exception4TypeESA_SA_DpOT_@Base 0.5.3
 (optional=templinst)_ZN2kj1_5Debug5FaultC2IJRA44_KcNS_11CappedArrayIcLm17EEEEEEPS4_iNS_9Exception4TypeES9_S9_DpOT_@Base 0.5.3
 (optional=templinst)_ZN2kj1_5Debug5FaultC2IJRA45_KcEEEPS4_iNS_9Exception4TypeES7_S7_DpOT_@Base 0.5.3
 (optional=templinst)_ZN2kj1_5Debug5FaultC2IJRA46_KcEEEPS4_iNS_9Exception4TypeES7_S7_DpOT_@Base 0.5.3
 (optional=templinst)_ZN2kj1_5Debug5FaultC2IJRA46_KcRN5capnp6schema4Type6ReaderEEEEPS4_iNS_9Exception4TypeESC_SC_DpOT_@Base 0.5.3
 (optional=templinst)_ZN2kj1_5Debug5FaultC2IJRA46_KcRmjjN5capnp4Text6ReaderEEEEPS4_iNS_9Exception4TypeESB_SB_DpOT_@Base 0.5.3
 (optional=templinst)_ZN2kj1_5Debug5FaultC2IJRA47_KcEEEPS4_iNS_9Exception4TypeES7_S7_DpOT_@Base 0.5.3
 (optional=templinst)_ZN2kj1_5Debug5FaultC2IJRA48_KcEEEPS4_iNS_9Exception4TypeES7_S7_DpOT_@Base 0.5.3
 (optional=templinst)_ZN2kj1_5Debug5FaultC2IJRA48_KcN5capnp4Text6ReaderEEEEPS4_iNS_9Exception4TypeESA_SA_DpOT_@Base 0.5.3
 (optional=templinst)_ZN2kj1_5Debug5FaultC2IJRA49_KcEEEPS4_iNS_9Exception4TypeES7_S7_DpOT_@Base 0.5.3
 (optional=templinst)_ZN2kj1_5Debug5FaultC2IJRA50_KcEEEPS4_iNS_9Exception4TypeES7_S7_DpOT_@Base 0.5.3
 (optional=templinst)_ZN2kj1_5Debug5FaultC2IJRA51_KcN5capnp4Text6ReaderEEEEPS4_iNS_9Exception4TypeESA_SA_DpOT_@Base 0.5.3
 (optional=templinst)_ZN2kj1_5Debug5FaultC2IJRA52_KcEEEPS4_iNS_9Exception4TypeES7_S7_DpOT_@Base 0.5.3
 (optional=templinst)_ZN2kj1_5Debug5FaultC2IJRA53_KcEEEPS4_iNS_9Exception4TypeES7_S7_DpOT_@Base 0.5.3
 (optional=templinst)_ZN2kj1_5Debug5FaultC2IJRA53_KcRKmN5capnp4Text6ReaderESB_EEEPS4_iNS_9Exception4TypeESC_SC_DpOT_@Base 0.5.3
 (optional=templinst)_ZN2kj1_5Debug5FaultC2IJRA54_KcEEEPS4_iNS_9Exception4TypeES7_S7_DpOT_@Base 0.5.3
 (optional=templinst)_ZN2kj1_5Debug5FaultC2IJRA55_KcEEEPS4_iNS_9Exception4TypeES7_S7_DpOT_@Base 0.5.3
 (optional=templinst)_ZN2kj1_5Debug5FaultC2IJRA56_KcEEEPS4_iNS_9Exception4TypeES7_S7_DpOT_@Base 0.5.3
 (optional=templinst)_ZN2kj1_5Debug5FaultC2IJRA57_KcEEEPS4_iNS_9Exception4TypeES7_S7_DpOT_@Base 0.5.3
 (optional=templinst)_ZN2kj1_5Debug5FaultC2IJRA58_KcEEEPS4_iNS_9Exception4TypeES7_S7_DpOT_@Base 0.5.3
 (optional=templinst)_ZN2kj1_5Debug5FaultC2IJRA59_KcEEEPS4_iNS_9Exception4TypeES7_S7_DpOT_@Base 0.5.3
 (optional=templinst)_ZN2kj1_5Debug5FaultC2IJRA60_KcEEEPS4_iNS_9Exception4TypeES7_S7_DpOT_@Base 0.5.3
 (optional=templinst)_ZN2kj1_5Debug5FaultC2IJRA61_KcEEEPS4_iNS_9Exception4TypeES7_S7_DpOT_@Base 0.5.3
 (optional=templinst)_ZN2kj1_5Debug5FaultC2IJRA62_KcEEEPS4_iNS_9Exception4TypeES7_S7_DpOT_@Base 0.5.3
 (optional=templinst)_ZN2kj1_5Debug5FaultC2IJRA63_KcEEEPS4_iNS_9Exception4TypeES7_S7_DpOT_@Base 0.5.3
 (optional=templinst)_ZN2kj1_5Debug5FaultC2IJRA63_KcjEEEPS4_iNS_9Exception4TypeES7_S7_DpOT_@Base 0.5.3
 (optional=templinst)_ZN2kj1_5Debug5FaultC2IJRA66_KcEEEPS4_iNS_9Exception4TypeES7_S7_DpOT_@Base 0.5.3
 (optional=templinst)_ZN2kj1_5Debug5FaultC2IJRA66_KcN5capnp4Text6ReaderES9_EEEPS4_iNS_9Exception4TypeESA_SA_DpOT_@Base 0.5.3
 (optional=templinst)_ZN2kj1_5Debug5FaultC2IJRA67_KcEEEPS4_iNS_9Exception4TypeES7_S7_DpOT_@Base 0.5.3
 (optional=templinst)_ZN2kj1_5Debug5FaultC2IJRA68_KcEEEPS4_iNS_9Exception4TypeES7_S7_DpOT_@Base 0.5.3
 (optional=templinst)_ZN2kj1_5Debug5FaultC2IJRA69_KcEEEPS4_iNS_9Exception4TypeES7_S7_DpOT_@Base 0.5.3
 (optional=templinst)_ZN2kj1_5Debug5FaultC2IJRA70_KcEEEPS4_iNS_9Exception4TypeES7_S7_DpOT_@Base 0.5.3
 (optional=templinst)_ZN2kj1_5Debug5FaultC2IJRA71_KcEEEPS4_iNS_9Exception4TypeES7_S7_DpOT_@Base 0.5.3
 (optional=templinst)_ZN2kj1_5Debug5FaultC2IJRA72_KcEEEPS4_iNS_9Exception4TypeES7_S7_DpOT_@Base 0.5.3
 (optional=templinst)_ZN2kj1_5Debug5FaultC2IJRA73_KcEEEPS4_iNS_9Exception4TypeES7_S7_DpOT_@Base 0.5.3
 (optional=templinst)_ZN2kj1_5Debug5FaultC2IJRA76_KcEEEPS4_iNS_9Exception4TypeES7_S7_DpOT_@Base 0.5.3
 (optional=templinst)_ZN2kj1_5Debug5FaultC2IJRA77_KcEEEPS4_iNS_9Exception4TypeES7_S7_DpOT_@Base 0.5.3
 (optional=templinst)_ZN2kj1_5Debug5FaultC2IJRA79_KcEEEPS4_iNS_9Exception4TypeES7_S7_DpOT_@Base 0.5.3
 (optional=templinst)_ZN2kj1_5Debug5FaultC2IJRA90_KcEEEPS4_iNS_9Exception4TypeES7_S7_DpOT_@Base 0.5.3
 (optional=templinst)_ZN2kj1_5Debug5FaultC2IJRA93_KcEEEPS4_iNS_9Exception4TypeES7_S7_DpOT_@Base 0.5.3
 (optional=templinst)_ZN2kj1_5Debug5FaultC2IJRjEEEPKciiS6_S6_DpOT_@Base 0.5.3
 (optional=templinst)_ZN2kj1_6OwnOwnIN5capnp10ClientHookEED1Ev@Base 0.5.3
 (optional=templinst)_ZN2kj1_6OwnOwnIN5capnp10ClientHookEED2Ev@Base 0.5.3
 (optional=templinst)_ZN2kj1_6concatIINS_11CappedArrayIcLm26EEEEEENS_6StringEDpOT_@Base 0.5.3
 (optional=templinst)_ZN2kj1_6concatIINS_8ArrayPtrIKcEEEEENS_6StringEDpOT_@Base 0.5.3
 (optional=templinst)_ZN2kj1_6concatIJNS_11CappedArrayIcLm26EEEEEENS_6StringEDpOT_@Base 0.5.3
 (optional=templinst)_ZN2kj1_6concatIJNS_8ArrayPtrIKcEEEEENS_6StringEDpOT_@Base 0.5.3
 (optional=templinst)_ZN2kj3strIIRA100_KcEEENS_6StringEDpOT_@Base 0.5.3
 (optional=templinst)_ZN2kj3strIIRA25_KcEEENS_6StringEDpOT_@Base 0.5.3
 (optional=templinst)_ZN2kj3strIIRA29_KcEEENS_6StringEDpOT_@Base 0.5.3
 (optional=templinst)_ZN2kj3strIIRA38_KcRNS_9StringPtrERA2_S1_EEENS_6StringEDpOT_@Base 0.5.3
 (optional=templinst)_ZN2kj3strIIRA50_KcEEENS_6StringEDpOT_@Base 0.5.3
 (optional=templinst)_ZN2kj3strIIRA60_KcEEENS_6StringEDpOT_@Base 0.5.3
 (optional=templinst)_ZN2kj3strIIRA69_KcEEENS_6StringEDpOT_@Base 0.5.3
 (optional=templinst)_ZN2kj3strIIRA93_KcEEENS_6StringEDpOT_@Base 0.5.3
 (optional=templinst)_ZN2kj3strIIRKmEEENS_6StringEDpOT_@Base 0.5.3
 (optional=templinst)_ZN2kj3strIIRjEEENS_6StringEDpOT_@Base 0.5.3
 (optional=templinst)_ZN2kj3strIJRA100_KcEEENS_6StringEDpOT_@Base 0.5.3
 (optional=templinst)_ZN2kj3strIJRA25_KcEEENS_6StringEDpOT_@Base 0.5.3
 (optional=templinst)_ZN2kj3strIJRA29_KcEEENS_6StringEDpOT_@Base 0.5.3
 (optional=templinst)_ZN2kj3strIJRA38_KcRNS_9StringPtrERA2_S1_EEENS_6StringEDpOT_@Base 0.5.3
 (optional=templinst)_ZN2kj3strIJRA50_KcEEENS_6StringEDpOT_@Base 0.5.3
 (optional=templinst)_ZN2kj3strIJRA60_KcEEENS_6StringEDpOT_@Base 0.5.3
 (optional=templinst)_ZN2kj3strIJRA69_KcEEENS_6StringEDpOT_@Base 0.5.3
 (optional=templinst)_ZN2kj3strIJRA93_KcEEENS_6StringEDpOT_@Base 0.5.3
 (optional=templinst)_ZN2kj3strIJRKmEEENS_6StringEDpOT_@Base 0.5.3
 (optional=templinst)_ZN2kj3strIJRjEEENS_6StringEDpOT_@Base 0.5.3
 (optional=templinst)_ZN2kj4heapIN5capnp1_12BuilderArena17MultiSegmentStateEIEEENS_3OwnIT_EEDpOT0_@Base 0.5.3
 (optional=templinst)_ZN2kj4heapIN5capnp1_12BuilderArena17MultiSegmentStateEJEEENS_3OwnIT_EEDpOT0_@Base 0.5.3
 (optional=templinst)_ZN2kj5ArrayINS_10StringTree6BranchEEaSEOS3_@Base 0.5.3
 (optional=templinst)_ZN2kj5ArrayIcEaSEOS1_@Base 0.5.3
 (optional=templinst)_ZN2kj5MaybeINS_3OwnIN5capnp10ClientHookEEEED1Ev@Base 0.5.3
 (optional=templinst)_ZN2kj5MaybeINS_3OwnIN5capnp10ClientHookEEEED2Ev@Base 0.5.3
 (optional=templinst)_ZN2kj6VectorINS_10StringTreeEE11setCapacityEm@Base 0.5.3
 (optional=templinst)_ZN2kj7strTreeIIN5capnp4Text6ReaderERA4_KcNS_10StringTreeEEEES7_DpOT_@Base 0.5.3
 (optional=templinst)_ZN2kj7strTreeIIRA17_KcEEENS_10StringTreeEDpOT_@Base 0.5.3
 (optional=templinst)_ZN2kj7strTreeIJN5capnp4Text6ReaderERA4_KcNS_10StringTreeEEEES7_DpOT_@Base 0.5.3
 (optional=templinst)_ZN2kj7strTreeIJRA17_KcEEENS_10StringTreeEDpOT_@Base 0.5.3
 _ZN5capnp10AnyPointer6Reader6equalsES1_@Base 0.5.3
 _ZN5capnp10AnyPointer6ReadereqES1_@Base 0.5.3
 (optional=templinst)_ZN5capnp10AnyPointer7Builder5adoptINS_12DynamicValueEEEvONS_6OrphanIT_EE@Base 0.5.3
 _ZN5capnp10AnyPointer8Pipeline15getPointerFieldEt@Base 0.5.3
 _ZN5capnp10AnyPointer8Pipeline4noopEv@Base 0.5.3
 _ZN5capnp10AnyPointer8Pipeline5asCapEv@Base 0.5.3
 _ZN5capnp10AnyPointer8PipelineD1Ev@Base 0.5.3
 _ZN5capnp10AnyPointer8PipelineD2Ev@Base 0.5.3
 _ZN5capnp10ListSchema2ofENS_6schema4Type5WhichE@Base 0.5.3
 _ZN5capnp10ListSchema2ofENS_6schema4Type6ReaderENS_6SchemaE@Base 0.5.3
 _ZN5capnp11DynamicList7Builder3setEjRKNS_12DynamicValue6ReaderE@Base 0.5.3
 _ZN5capnp11DynamicList7Builder4initEjj@Base 0.5.3
 _ZN5capnp11DynamicList7Builder5adoptEjONS_6OrphanINS_12DynamicValueEEE@Base 0.5.3
 _ZN5capnp11DynamicList7Builder6disownEj@Base 0.5.3
 _ZN5capnp11DynamicList7Builder8copyFromESt16initializer_listINS_12DynamicValue6ReaderEE@Base 0.5.3
 _ZN5capnp11DynamicList7BuilderixEj@Base 0.5.3
 _ZN5capnp11prettyPrintENS_11DynamicList6ReaderE@Base 0.5.3
 _ZN5capnp11prettyPrintENS_11DynamicList7BuilderE@Base 0.5.3
 _ZN5capnp11prettyPrintENS_13DynamicStruct6ReaderE@Base 0.5.3
 _ZN5capnp11prettyPrintENS_13DynamicStruct7BuilderE@Base 0.5.3
 (optional=templinst)_ZN5capnp12DynamicValue6Reader6AsImplINS_10AnyPointerELNS_4KindE7EE5applyERKS1_@Base 0.5.3
 (optional=templinst)_ZN5capnp12DynamicValue6Reader6AsImplINS_11DynamicEnumELNS_4KindE7EE5applyERKS1_@Base 0.5.3
 (optional=templinst)_ZN5capnp12DynamicValue6Reader6AsImplINS_11DynamicListELNS_4KindE7EE5applyERKS1_@Base 0.5.3
 (optional=templinst)_ZN5capnp12DynamicValue6Reader6AsImplINS_13DynamicStructELNS_4KindE7EE5applyERKS1_@Base 0.5.3
 (optional=templinst)_ZN5capnp12DynamicValue6Reader6AsImplINS_17DynamicCapabilityELNS_4KindE7EE5applyERKS1_@Base 0.5.3
 (optional=templinst)_ZN5capnp12DynamicValue6Reader6AsImplINS_4DataELNS_4KindE1EE5applyERKS1_@Base 0.5.3
 (optional=templinst)_ZN5capnp12DynamicValue6Reader6AsImplINS_4TextELNS_4KindE1EE5applyERKS1_@Base 0.5.3
 (optional=templinst)_ZN5capnp12DynamicValue6Reader6AsImplINS_4VoidELNS_4KindE0EE5applyERKS1_@Base 0.5.3
 (optional=templinst)_ZN5capnp12DynamicValue6Reader6AsImplIaLNS_4KindE0EE5applyERKS1_@Base 0.5.3
 (optional=templinst)_ZN5capnp12DynamicValue6Reader6AsImplIbLNS_4KindE0EE5applyERKS1_@Base 0.5.3
 (optional=templinst)_ZN5capnp12DynamicValue6Reader6AsImplIdLNS_4KindE0EE5applyERKS1_@Base 0.5.3
 (optional=templinst)_ZN5capnp12DynamicValue6Reader6AsImplIfLNS_4KindE0EE5applyERKS1_@Base 0.5.3
 (optional=templinst)_ZN5capnp12DynamicValue6Reader6AsImplIhLNS_4KindE0EE5applyERKS1_@Base 0.5.3
 (optional=templinst)_ZN5capnp12DynamicValue6Reader6AsImplIiLNS_4KindE0EE5applyERKS1_@Base 0.5.3
 (optional=templinst)_ZN5capnp12DynamicValue6Reader6AsImplIjLNS_4KindE0EE5applyERKS1_@Base 0.5.3
 (optional=templinst)_ZN5capnp12DynamicValue6Reader6AsImplIlLNS_4KindE0EE5applyERKS1_@Base 0.5.3
 (optional=templinst)_ZN5capnp12DynamicValue6Reader6AsImplImLNS_4KindE0EE5applyERKS1_@Base 0.5.3
 (optional=templinst)_ZN5capnp12DynamicValue6Reader6AsImplIsLNS_4KindE0EE5applyERKS1_@Base 0.5.3
 (optional=templinst)_ZN5capnp12DynamicValue6Reader6AsImplItLNS_4KindE0EE5applyERKS1_@Base 0.5.3
 _ZN5capnp12DynamicValue6ReaderC1ENS_11ConstSchemaE@Base 0.5.3
 _ZN5capnp12DynamicValue6ReaderC1EOS1_@Base 0.5.3
 _ZN5capnp12DynamicValue6ReaderC1ERKS1_@Base 0.5.3
 _ZN5capnp12DynamicValue6ReaderC2ENS_11ConstSchemaE@Base 0.5.3
 _ZN5capnp12DynamicValue6ReaderC2EOS1_@Base 0.5.3
 _ZN5capnp12DynamicValue6ReaderC2ERKS1_@Base 0.5.3
 _ZN5capnp12DynamicValue6ReaderD1Ev@Base 0.5.3
 _ZN5capnp12DynamicValue6ReaderD2Ev@Base 0.5.3
 _ZN5capnp12DynamicValue6ReaderaSEOS1_@Base 0.5.3
 _ZN5capnp12DynamicValue6ReaderaSERKS1_@Base 0.5.3
 (optional=templinst)_ZN5capnp12DynamicValue7Builder6AsImplINS_10AnyPointerELNS_4KindE7EE5applyERS1_@Base 0.5.3
 (optional=templinst)_ZN5capnp12DynamicValue7Builder6AsImplINS_11DynamicEnumELNS_4KindE7EE5applyERS1_@Base 0.5.3
 (optional=templinst)_ZN5capnp12DynamicValue7Builder6AsImplINS_11DynamicListELNS_4KindE7EE5applyERS1_@Base 0.5.3
 (optional=templinst)_ZN5capnp12DynamicValue7Builder6AsImplINS_13DynamicStructELNS_4KindE7EE5applyERS1_@Base 0.5.3
 (optional=templinst)_ZN5capnp12DynamicValue7Builder6AsImplINS_17DynamicCapabilityELNS_4KindE7EE5applyERS1_@Base 0.5.3
 (optional=templinst)_ZN5capnp12DynamicValue7Builder6AsImplINS_4DataELNS_4KindE1EE5applyERS1_@Base 0.5.3
 (optional=templinst)_ZN5capnp12DynamicValue7Builder6AsImplINS_4TextELNS_4KindE1EE5applyERS1_@Base 0.5.3
 (optional=templinst)_ZN5capnp12DynamicValue7Builder6AsImplINS_4VoidELNS_4KindE0EE5applyERS1_@Base 0.5.3
 (optional=templinst)_ZN5capnp12DynamicValue7Builder6AsImplIaLNS_4KindE0EE5applyERS1_@Base 0.5.3
 (optional=templinst)_ZN5capnp12DynamicValue7Builder6AsImplIbLNS_4KindE0EE5applyERS1_@Base 0.5.3
 (optional=templinst)_ZN5capnp12DynamicValue7Builder6AsImplIdLNS_4KindE0EE5applyERS1_@Base 0.5.3
 (optional=templinst)_ZN5capnp12DynamicValue7Builder6AsImplIfLNS_4KindE0EE5applyERS1_@Base 0.5.3
 (optional=templinst)_ZN5capnp12DynamicValue7Builder6AsImplIhLNS_4KindE0EE5applyERS1_@Base 0.5.3
 (optional=templinst)_ZN5capnp12DynamicValue7Builder6AsImplIiLNS_4KindE0EE5applyERS1_@Base 0.5.3
 (optional=templinst)_ZN5capnp12DynamicValue7Builder6AsImplIjLNS_4KindE0EE5applyERS1_@Base 0.5.3
 (optional=templinst)_ZN5capnp12DynamicValue7Builder6AsImplIlLNS_4KindE0EE5applyERS1_@Base 0.5.3
 (optional=templinst)_ZN5capnp12DynamicValue7Builder6AsImplImLNS_4KindE0EE5applyERS1_@Base 0.5.3
 (optional=templinst)_ZN5capnp12DynamicValue7Builder6AsImplIsLNS_4KindE0EE5applyERS1_@Base 0.5.3
 (optional=templinst)_ZN5capnp12DynamicValue7Builder6AsImplItLNS_4KindE0EE5applyERS1_@Base 0.5.3
 _ZN5capnp12DynamicValue7BuilderC1EOS1_@Base 0.5.3
 _ZN5capnp12DynamicValue7BuilderC1ERS1_@Base 0.5.3
 _ZN5capnp12DynamicValue7BuilderC2EOS1_@Base 0.5.3
 _ZN5capnp12DynamicValue7BuilderC2ERS1_@Base 0.5.3
 _ZN5capnp12DynamicValue7BuilderD1Ev@Base 0.5.3
 _ZN5capnp12DynamicValue7BuilderD2Ev@Base 0.5.3
 _ZN5capnp12DynamicValue7BuilderaSEOS1_@Base 0.5.3
 _ZN5capnp12DynamicValue7BuilderaSERS1_@Base 0.5.3
 (optional=templinst)_ZN5capnp12DynamicValue8Pipeline6AsImplINS_13DynamicStructELNS_4KindE7EE5applyERS1_@Base 0.5.3
 (optional=templinst)_ZN5capnp12DynamicValue8Pipeline6AsImplINS_17DynamicCapabilityELNS_4KindE7EE5applyERS1_@Base 0.5.3
 _ZN5capnp12DynamicValue8PipelineC1EOS1_@Base 0.5.3
 _ZN5capnp12DynamicValue8PipelineC2EOS1_@Base 0.5.3
 _ZN5capnp12DynamicValue8PipelineD1Ev@Base 0.5.3
 _ZN5capnp12DynamicValue8PipelineD2Ev@Base 0.5.3
 _ZN5capnp12DynamicValue8PipelineaSEOS1_@Base 0.5.3
 _ZN5capnp12PipelineHook15getPipelinedCapEON2kj5ArrayINS_10PipelineOpEEE@Base 0.5.3
 _ZN5capnp12SchemaLoader10loadNativeEPKNS_1_9RawSchemaE@Base 0.5.3
 _ZN5capnp12SchemaLoader20CompatibilityChecker18checkCompatibilityERKNS_6schema4Node6ReaderES6_@Base 0.5.3
 _ZN5capnp12SchemaLoader20CompatibilityChecker18checkCompatibilityERKNS_6schema4Node6Struct6ReaderES7_mm@Base 0.5.3
 _ZN5capnp12SchemaLoader20CompatibilityChecker18checkCompatibilityERKNS_6schema4Node9Interface6ReaderES7_@Base 0.5.3
 _ZN5capnp12SchemaLoader20CompatibilityChecker18checkCompatibilityERKNS_6schema4Type6ReaderES6_NS1_19UpgradeToStructModeE@Base 0.5.3
 _ZN5capnp12SchemaLoader20CompatibilityChecker20checkUpgradeToStructERKNS_6schema4Type6ReaderEmN2kj5MaybeINS2_4Node6ReaderEEENS8_INS2_5Field6ReaderEEE@Base 0.5.3
 _ZN5capnp12SchemaLoader4Impl10getUnboundEPKNS_1_9RawSchemaE@Base 0.5.3
 _ZN5capnp12SchemaLoader4Impl10loadNativeEPKNS_1_9RawSchemaE@Base 0.5.3
 (optional=templinst)_ZN5capnp12SchemaLoader4Impl11copyDedupedINS_1_16RawBrandedSchema10DependencyEEEN2kj8ArrayPtrIKT_EESA_@Base 0.5.3
 (optional=templinst)_ZN5capnp12SchemaLoader4Impl11copyDedupedINS_1_16RawBrandedSchema5ScopeEEEN2kj8ArrayPtrIKT_EESA_@Base 0.5.3
 (optional=templinst)_ZN5capnp12SchemaLoader4Impl11copyDedupedINS_1_16RawBrandedSchema7BindingEEEN2kj8ArrayPtrIKT_EESA_@Base 0.5.3
 _ZN5capnp12SchemaLoader4Impl11makeBrandedEPKNS_1_9RawSchemaEN2kj8ArrayPtrIKNS2_16RawBrandedSchema5ScopeEEE@Base 0.5.3
 _ZN5capnp12SchemaLoader4Impl11makeBrandedEPKNS_1_9RawSchemaENS_6schema5Brand6ReaderEN2kj5MaybeINS9_8ArrayPtrIKNS2_16RawBrandedSchema5ScopeEEEEE@Base 0.5.3
 _ZN5capnp12SchemaLoader4Impl13makeDepSchemaENS_6schema4Type6ReaderEN2kj9StringPtrENS5_5MaybeINS5_8ArrayPtrIKNS_1_16RawBrandedSchema5ScopeEEEEE@Base 0.5.3
 _ZN5capnp12SchemaLoader4Impl13makeDepSchemaEmNS_6schema4Type5WhichENS2_4Node5WhichENS2_5Brand6ReaderEN2kj9StringPtrENS9_5MaybeINS9_8ArrayPtrIKNS_1_16RawBrandedSchema5ScopeEEEEE@Base 0.5.3
 _ZN5capnp12SchemaLoader4Impl17makeUncheckedNodeENS_6schema4Node6ReaderE@Base 0.5.3
 _ZN5capnp12SchemaLoader4Impl17requireStructSizeEmjj@Base 0.5.3
 _ZN5capnp12SchemaLoader4Impl23makeBrandedDependenciesEPKNS_1_9RawSchemaEN2kj5MaybeINS6_8ArrayPtrIKNS2_16RawBrandedSchema5ScopeEEEEE@Base 0.5.3
 _ZN5capnp12SchemaLoader4Impl26applyStructSizeRequirementEPNS_1_9RawSchemaEjj@Base 0.5.3
 _ZN5capnp12SchemaLoader4Impl26rewriteStructNodeWithSizesENS_6schema4Node6ReaderEjj@Base 0.5.3
 _ZN5capnp12SchemaLoader4Impl42makeUncheckedNodeEnforcingSizeRequirementsENS_6schema4Node6ReaderE@Base 0.5.3
 _ZN5capnp12SchemaLoader4Impl4loadERKNS_6schema4Node6ReaderEb@Base 0.5.3
 _ZN5capnp12SchemaLoader4Impl7makeDepERNS_1_16RawBrandedSchema7BindingENS_6schema4Type6ReaderEN2kj9StringPtrENS9_5MaybeINS9_8ArrayPtrIKNS3_5ScopeEEEEE@Base 0.5.3
 _ZN5capnp12SchemaLoader4Impl7makeDepERNS_1_16RawBrandedSchema7BindingEmNS_6schema4Type5WhichENS6_4Node5WhichENS6_5Brand6ReaderEN2kj9StringPtrENSD_5MaybeINSD_8ArrayPtrIKNS3_5ScopeEEEEE@Base 0.5.3
 _ZN5capnp12SchemaLoader4Impl9loadEmptyEmN2kj9StringPtrENS_6schema4Node5WhichEb@Base 0.5.3
 _ZN5capnp12SchemaLoader4loadERKNS_6schema4Node6ReaderE@Base 0.5.3
 _ZN5capnp12SchemaLoader9Validator14validateTypeIdEmNS_6schema4Node5WhichE@Base 0.5.3
 _ZN5capnp12SchemaLoader9Validator8validateERKNS_6schema4Node4Enum6ReaderE@Base 0.5.3
 _ZN5capnp12SchemaLoader9Validator8validateERKNS_6schema4Node6Struct6ReaderEm@Base 0.5.3
 _ZN5capnp12SchemaLoader9Validator8validateERKNS_6schema4Node9Interface6ReaderE@Base 0.5.3
 _ZN5capnp12SchemaLoader9Validator8validateERKNS_6schema4Type6ReaderE@Base 0.5.3
 _ZN5capnp12SchemaLoader9Validator8validateERKNS_6schema4Type6ReaderERKNS2_5Value6ReaderEPjPb@Base 0.5.3
 _ZN5capnp12SchemaLoader9Validator8validateERKNS_6schema5Brand6ReaderE@Base 0.5.3
 _ZN5capnp12SchemaLoaderC1ERKNS0_16LazyLoadCallbackE@Base 0.5.3
 _ZN5capnp12SchemaLoaderC1Ev@Base 0.5.3
 _ZN5capnp12SchemaLoaderC2ERKNS0_16LazyLoadCallbackE@Base 0.5.3
 _ZN5capnp12SchemaLoaderC2Ev@Base 0.5.3
 _ZN5capnp12SchemaLoaderD1Ev@Base 0.5.3
 _ZN5capnp12SchemaLoaderD2Ev@Base 0.5.3
 _ZN5capnp12writeMessageERN2kj12OutputStreamENS0_8ArrayPtrIKNS3_IKNS_4wordEEEEE@Base 0.5.3
 _ZN5capnp13DynamicStruct7Builder10setInUnionENS_12StructSchema5FieldE@Base 0.5.3
 _ZN5capnp13DynamicStruct7Builder12isSetInUnionENS_12StructSchema5FieldE@Base 0.5.3
 _ZN5capnp13DynamicStruct7Builder16verifySetInUnionENS_12StructSchema5FieldE@Base 0.5.3
 _ZN5capnp13DynamicStruct7Builder3getEN2kj9StringPtrE@Base 0.5.3
 _ZN5capnp13DynamicStruct7Builder3getENS_12StructSchema5FieldE@Base 0.5.3
 _ZN5capnp13DynamicStruct7Builder3hasEN2kj9StringPtrE@Base 0.5.3
 _ZN5capnp13DynamicStruct7Builder3setEN2kj9StringPtrERKNS_12DynamicValue6ReaderE@Base 0.5.3
 _ZN5capnp13DynamicStruct7Builder3setEN2kj9StringPtrESt16initializer_listINS_12DynamicValue6ReaderEE@Base 0.5.3
 _ZN5capnp13DynamicStruct7Builder3setENS_12StructSchema5FieldERKNS_12DynamicValue6ReaderE@Base 0.5.3
 _ZN5capnp13DynamicStruct7Builder4initEN2kj9StringPtrE@Base 0.5.3
 _ZN5capnp13DynamicStruct7Builder4initEN2kj9StringPtrEj@Base 0.5.3
 _ZN5capnp13DynamicStruct7Builder4initENS_12StructSchema5FieldE@Base 0.5.3
 _ZN5capnp13DynamicStruct7Builder4initENS_12StructSchema5FieldEj@Base 0.5.3
 _ZN5capnp13DynamicStruct7Builder5adoptEN2kj9StringPtrEONS_6OrphanINS_12DynamicValueEEE@Base 0.5.3
 _ZN5capnp13DynamicStruct7Builder5adoptENS_12StructSchema5FieldEONS_6OrphanINS_12DynamicValueEEE@Base 0.5.3
 _ZN5capnp13DynamicStruct7Builder5clearEN2kj9StringPtrE@Base 0.5.3
 _ZN5capnp13DynamicStruct7Builder5clearENS_12StructSchema5FieldE@Base 0.5.3
 _ZN5capnp13DynamicStruct7Builder5whichEv@Base 0.5.3
 _ZN5capnp13DynamicStruct7Builder6disownEN2kj9StringPtrE@Base 0.5.3
 _ZN5capnp13DynamicStruct7Builder6disownENS_12StructSchema5FieldE@Base 0.5.3
 _ZN5capnp13DynamicStruct8Pipeline3getEN2kj9StringPtrE@Base 0.5.3
 _ZN5capnp13DynamicStruct8Pipeline3getENS_12StructSchema5FieldE@Base 0.5.3
 _ZN5capnp13MessageReader15getRootInternalEv@Base 0.5.3
 _ZN5capnp13MessageReaderC1ENS_13ReaderOptionsE@Base 0.5.3
 _ZN5capnp13MessageReaderC2ENS_13ReaderOptionsE@Base 0.5.3
 _ZN5capnp13MessageReaderD0Ev@Base 0.5.3
 _ZN5capnp13MessageReaderD1Ev@Base 0.5.3
 _ZN5capnp13MessageReaderD2Ev@Base 0.5.3
 _ZN5capnp14MessageBuilder11getCapTableEv@Base 0.5.3
 _ZN5capnp14MessageBuilder12getOrphanageEv@Base 0.5.3
 _ZN5capnp14MessageBuilder14getRootSegmentEv@Base 0.5.3
 _ZN5capnp14MessageBuilder15getRootInternalEv@Base 0.5.3
 _ZN5capnp14MessageBuilder20getSegmentsForOutputEv@Base 0.5.3
 _ZN5capnp14MessageBuilderC1EN2kj8ArrayPtrINS0_11SegmentInitEEE@Base 0.5.3
 _ZN5capnp14MessageBuilderC1Ev@Base 0.5.3
 _ZN5capnp14MessageBuilderC2EN2kj8ArrayPtrINS0_11SegmentInitEEE@Base 0.5.3
 _ZN5capnp14MessageBuilderC2Ev@Base 0.5.3
 _ZN5capnp14MessageBuilderD0Ev@Base 0.5.3
 _ZN5capnp14MessageBuilderD1Ev@Base 0.5.3
 _ZN5capnp14MessageBuilderD2Ev@Base 0.5.3
 _ZN5capnp15readMessageCopyERN2kj11InputStreamERNS_14MessageBuilderENS_13ReaderOptionsENS0_8ArrayPtrINS_4wordEEE@Base 0.5.3
 _ZN5capnp16writeMessageToFdEiN2kj8ArrayPtrIKNS1_IKNS_4wordEEEEE@Base 0.5.3
 _ZN5capnp18FlatMessageBuilder13requireFilledEv@Base 0.5.3
 _ZN5capnp18FlatMessageBuilder15allocateSegmentEj@Base 0.5.3
 _ZN5capnp18FlatMessageBuilderC1EN2kj8ArrayPtrINS_4wordEEE@Base 0.5.3
 _ZN5capnp18FlatMessageBuilderC2EN2kj8ArrayPtrINS_4wordEEE@Base 0.5.3
 _ZN5capnp18FlatMessageBuilderD0Ev@Base 0.5.3
 _ZN5capnp18FlatMessageBuilderD1Ev@Base 0.5.3
 _ZN5capnp18FlatMessageBuilderD2Ev@Base 0.5.3
 _ZN5capnp18messageToFlatArrayEN2kj8ArrayPtrIKNS1_IKNS_4wordEEEEE@Base 0.5.3
 _ZN5capnp18writePackedMessageERN2kj12OutputStreamENS0_8ArrayPtrIKNS3_IKNS_4wordEEEEE@Base 0.5.3
 _ZN5capnp18writePackedMessageERN2kj20BufferedOutputStreamENS0_8ArrayPtrIKNS3_IKNS_4wordEEEEE@Base 0.5.3
 _ZN5capnp19PackedMessageReaderC1ERN2kj19BufferedInputStreamENS_13ReaderOptionsENS1_8ArrayPtrINS_4wordEEE@Base 0.5.3
 _ZN5capnp19PackedMessageReaderC2ERN2kj19BufferedInputStreamENS_13ReaderOptionsENS1_8ArrayPtrINS_4wordEEE@Base 0.5.3
 _ZN5capnp19PackedMessageReaderD0Ev@Base 0.5.3
 _ZN5capnp19PackedMessageReaderD1Ev@Base 0.5.3
 _ZN5capnp19PackedMessageReaderD2Ev@Base 0.5.3
 _ZN5capnp1_10ListReader10asRawBytesEv@Base 0.5.3
 _ZN5capnp1_10ListReader6asDataEv@Base 0.5.3
 _ZN5capnp1_10ListReader6asTextEv@Base 0.5.3
 _ZN5capnp1_10enumStringEtRKNS0_16RawBrandedSchemaE@Base 0.5.3
 _ZN5capnp1_11ListBuilder16getStructElementEj@Base 0.5.3
 _ZN5capnp1_11ListBuilder6asDataEv@Base 0.5.3
 _ZN5capnp1_11ListBuilder6asTextEv@Base 0.5.3
 _ZN5capnp1_11ListBuilder8getArenaEv@Base 0.5.3
 _ZN5capnp1_11NULL_SCHEMAE@Base 0.5.3
 _ZN5capnp1_11ReadLimiter6unreadEm@Base 0.5.3
 _ZN5capnp1_11ReaderArena10extractCapEj@Base 0.5.3
 _ZN5capnp1_11ReaderArena13tryGetSegmentEN2kj2IdIjNS0_7SegmentEEE@Base 0.5.3
 _ZN5capnp1_11ReaderArena22reportReadLimitReachedEv@Base 0.5.3
 _ZN5capnp1_11ReaderArenaC1EPNS_13MessageReaderE@Base 0.5.3
 _ZN5capnp1_11ReaderArenaC2EPNS_13MessageReaderE@Base 0.5.3
 _ZN5capnp1_11ReaderArenaD0Ev@Base 0.5.3
 _ZN5capnp1_11ReaderArenaD1Ev@Base 0.5.3
 _ZN5capnp1_11ReaderArenaD2Ev@Base 0.5.3
 _ZN5capnp1_11WireHelpers10zeroObjectEPNS0_14SegmentBuilderEPNS0_11WirePointerE@Base 0.5.3
 _ZN5capnp1_11WireHelpers10zeroObjectEPNS0_14SegmentBuilderEPNS0_11WirePointerEPNS_4wordE@Base 0.5.3
 _ZN5capnp1_11WireHelpers11copyMessageERPNS0_14SegmentBuilderERPNS0_11WirePointerEPKS5_@Base 0.5.3
 _ZN5capnp1_11WireHelpers15transferPointerEPNS0_14SegmentBuilderEPNS0_11WirePointerES3_S5_@Base 0.5.3
 _ZN5capnp1_11WireHelpers9totalSizeEPNS0_13SegmentReaderEPKNS0_11WirePointerEi@Base 0.5.3
 _ZN5capnp1_12BuilderArena10extractCapEj@Base 0.5.3
 _ZN5capnp1_12BuilderArena10getSegmentEN2kj2IdIjNS0_7SegmentEEE@Base 0.5.3
 _ZN5capnp1_12BuilderArena13tryGetSegmentEN2kj2IdIjNS0_7SegmentEEE@Base 0.5.3
 _ZN5capnp1_12BuilderArena17MultiSegmentStateD1Ev@Base 0.5.3
 _ZN5capnp1_12BuilderArena17MultiSegmentStateD2Ev@Base 0.5.3
 _ZN5capnp1_12BuilderArena18addExternalSegmentEN2kj8ArrayPtrIKNS_4wordEEE@Base 0.5.3
 (optional=templinst)_ZN5capnp1_12BuilderArena18addSegmentInternalIKNS_4wordEEEPNS0_14SegmentBuilderEN2kj8ArrayPtrIT_EE@Base 0.5.3
 (optional=templinst)_ZN5capnp1_12BuilderArena18addSegmentInternalINS_4wordEEEPNS0_14SegmentBuilderEN2kj8ArrayPtrIT_EE@Base 0.5.3
 _ZN5capnp1_12BuilderArena20getSegmentsForOutputEv@Base 0.5.3
 _ZN5capnp1_12BuilderArena22reportReadLimitReachedEv@Base 0.5.3
 _ZN5capnp1_12BuilderArena7dropCapEj@Base 0.5.3
 _ZN5capnp1_12BuilderArena8allocateEj@Base 0.5.3
 _ZN5capnp1_12BuilderArena9injectCapEON2kj3OwnINS_10ClientHookEEE@Base 0.5.3
 _ZN5capnp1_12BuilderArenaC1EPNS_14MessageBuilderE@Base 0.5.3
 _ZN5capnp1_12BuilderArenaC1EPNS_14MessageBuilderEN2kj8ArrayPtrINS2_11SegmentInitEEE@Base 0.5.3
 _ZN5capnp1_12BuilderArenaC2EPNS_14MessageBuilderE@Base 0.5.3
 _ZN5capnp1_12BuilderArenaC2EPNS_14MessageBuilderEN2kj8ArrayPtrINS2_11SegmentInitEEE@Base 0.5.3
 _ZN5capnp1_12BuilderArenaD0Ev@Base 0.5.3
 _ZN5capnp1_12BuilderArenaD1Ev@Base 0.5.3
 _ZN5capnp1_12BuilderArenaD2Ev@Base 0.5.3
 _ZN5capnp1_12structStringENS0_12StructReaderERKNS0_16RawBrandedSchemaE@Base 0.5.3
 _ZN5capnp1_13OrphanBuilder10initStructEPNS0_12BuilderArenaENS0_10StructSizeE@Base 0.5.3
 _ZN5capnp1_13OrphanBuilder12asStructListENS0_10StructSizeE@Base 0.5.3
 _ZN5capnp1_13OrphanBuilder14initStructListEPNS0_12BuilderArenaEjNS0_10StructSizeE@Base 0.5.3
 _ZN5capnp1_13OrphanBuilder21referenceExternalDataEPNS0_12BuilderArenaENS_4Data6ReaderE@Base 0.5.3
 _ZN5capnp1_13OrphanBuilder4copyEPNS0_12BuilderArenaEN2kj3OwnINS_10ClientHookEEE@Base 0.5.3
 _ZN5capnp1_13OrphanBuilder4copyEPNS0_12BuilderArenaENS0_10ListReaderE@Base 0.5.3
 _ZN5capnp1_13OrphanBuilder4copyEPNS0_12BuilderArenaENS0_12StructReaderE@Base 0.5.3
 _ZN5capnp1_13OrphanBuilder4copyEPNS0_12BuilderArenaENS0_13PointerReaderE@Base 0.5.3
 _ZN5capnp1_13OrphanBuilder4copyEPNS0_12BuilderArenaENS_4Data6ReaderE@Base 0.5.3
 _ZN5capnp1_13OrphanBuilder4copyEPNS0_12BuilderArenaENS_4Text6ReaderE@Base 0.5.3
 _ZN5capnp1_13OrphanBuilder6asDataEv@Base 0.5.3
 _ZN5capnp1_13OrphanBuilder6asListENS_11ElementSizeE@Base 0.5.3
 _ZN5capnp1_13OrphanBuilder6asTextEv@Base 0.5.3
 _ZN5capnp1_13OrphanBuilder8asStructENS0_10StructSizeE@Base 0.5.3
 _ZN5capnp1_13OrphanBuilder8initDataEPNS0_12BuilderArenaEj@Base 0.5.3
 _ZN5capnp1_13OrphanBuilder8initListEPNS0_12BuilderArenaEjNS_11ElementSizeE@Base 0.5.3
 _ZN5capnp1_13OrphanBuilder8initTextEPNS0_12BuilderArenaEj@Base 0.5.3
 _ZN5capnp1_13OrphanBuilder8truncateEjb@Base 0.5.3
 _ZN5capnp1_13OrphanBuilder9euthanizeEv@Base 0.5.3
 _ZN5capnp1_13PointerReader7getRootEPNS0_13SegmentReaderEPKNS_4wordEi@Base 0.5.3
 _ZN5capnp1_13StructBuilder15copyContentFromENS0_12StructReaderE@Base 0.5.3
 _ZN5capnp1_13StructBuilder19transferContentFromES1_@Base 0.5.3
 _ZN5capnp1_13StructBuilder8clearAllEv@Base 0.5.3
 _ZN5capnp1_13StructBuilder8getArenaEv@Base 0.5.3
 _ZN5capnp1_14PointerBuilder10initStructENS0_10StructSizeE@Base 0.5.3
 _ZN5capnp1_14PointerBuilder12transferFromES1_@Base 0.5.3
 _ZN5capnp1_14PointerBuilder13getCapabilityEv@Base 0.5.3
 _ZN5capnp1_14PointerBuilder13getStructListENS0_10StructSizeEPKNS_4wordE@Base 0.5.3
 _ZN5capnp1_14PointerBuilder13setCapabilityEON2kj3OwnINS_10ClientHookEEE@Base 0.5.3
 _ZN5capnp1_14PointerBuilder14getListAnySizeEPKNS_4wordE@Base 0.5.3
 _ZN5capnp1_14PointerBuilder14getPointerTypeEv@Base 0.5.3
 _ZN5capnp1_14PointerBuilder14initStructListEjNS0_10StructSizeE@Base 0.5.3
 _ZN5capnp1_14PointerBuilder5adoptEONS0_13OrphanBuilderE@Base 0.5.3
 _ZN5capnp1_14PointerBuilder5clearEv@Base 0.5.3
 _ZN5capnp1_14PointerBuilder6disownEv@Base 0.5.3
 (optional=templinst)_ZN5capnp1_14PointerBuilder7getBlobINS_4DataEEENT_7BuilderEPKvj@Base 0.5.3
 (optional=templinst)_ZN5capnp1_14PointerBuilder7getBlobINS_4TextEEENT_7BuilderEPKvj@Base 0.5.3
 _ZN5capnp1_14PointerBuilder7getListENS_11ElementSizeEPKNS_4wordE@Base 0.5.3
 (optional=templinst)_ZN5capnp1_14PointerBuilder7setBlobINS_4DataEEEvNT_6ReaderE@Base 0.5.3
 (optional=templinst)_ZN5capnp1_14PointerBuilder7setBlobINS_4TextEEEvNT_6ReaderE@Base 0.5.3
 _ZN5capnp1_14PointerBuilder7setListERKNS0_10ListReaderE@Base 0.5.3
 _ZN5capnp1_14PointerBuilder8copyFromENS0_13PointerReaderE@Base 0.5.3
 (optional=templinst)_ZN5capnp1_14PointerBuilder8initBlobINS_4DataEEENT_7BuilderEj@Base 0.5.3
 (optional=templinst)_ZN5capnp1_14PointerBuilder8initBlobINS_4TextEEENT_7BuilderEj@Base 0.5.3
 _ZN5capnp1_14PointerBuilder8initListENS_11ElementSizeEj@Base 0.5.3
 _ZN5capnp1_14PointerBuilder9getStructENS0_10StructSizeEPKNS_4wordE@Base 0.5.3
 _ZN5capnp1_14PointerBuilder9setStructERKNS0_12StructReaderE@Base 0.5.3
 (optional=templinst)_ZN5capnp1_14PointerHelpersINS_11DynamicListELNS_4KindE7EE10getDynamicENS0_13PointerReaderENS_10ListSchemaE@Base 0.5.3
 (optional=templinst)_ZN5capnp1_14PointerHelpersINS_11DynamicListELNS_4KindE7EE10getDynamicENS0_14PointerBuilderENS_10ListSchemaE@Base 0.5.3
 (optional=templinst)_ZN5capnp1_14PointerHelpersINS_11DynamicListELNS_4KindE7EE3setENS0_14PointerBuilderERKNS2_6ReaderE@Base 0.5.3
 (optional=templinst)_ZN5capnp1_14PointerHelpersINS_11DynamicListELNS_4KindE7EE4initENS0_14PointerBuilderENS_10ListSchemaEj@Base 0.5.3
 (optional=templinst)_ZN5capnp1_14PointerHelpersINS_13DynamicStructELNS_4KindE7EE10getDynamicENS0_13PointerReaderENS_12StructSchemaE@Base 0.5.3
 (optional=templinst)_ZN5capnp1_14PointerHelpersINS_13DynamicStructELNS_4KindE7EE10getDynamicENS0_14PointerBuilderENS_12StructSchemaE@Base 0.5.3
 (optional=templinst)_ZN5capnp1_14PointerHelpersINS_13DynamicStructELNS_4KindE7EE3setENS0_14PointerBuilderERKNS2_6ReaderE@Base 0.5.3
 (optional=templinst)_ZN5capnp1_14PointerHelpersINS_13DynamicStructELNS_4KindE7EE4initENS0_14PointerBuilderENS_12StructSchemaE@Base 0.5.3
 (optional=templinst)_ZN5capnp1_14PointerHelpersINS_17DynamicCapabilityELNS_4KindE7EE10getDynamicENS0_13PointerReaderENS_15InterfaceSchemaE@Base 0.5.3
 (optional=templinst)_ZN5capnp1_14PointerHelpersINS_17DynamicCapabilityELNS_4KindE7EE10getDynamicENS0_14PointerBuilderENS_15InterfaceSchemaE@Base 0.5.3
 (optional=templinst)_ZN5capnp1_14PointerHelpersINS_17DynamicCapabilityELNS_4KindE7EE3setENS0_14PointerBuilderEONS2_6ClientE@Base 0.5.3
 (optional=templinst)_ZN5capnp1_14PointerHelpersINS_17DynamicCapabilityELNS_4KindE7EE3setENS0_14PointerBuilderERNS2_6ClientE@Base 0.5.3
 _ZN5capnp1_14SegmentBuilder16throwNotWritableEv@Base 0.5.3
 _ZN5capnp1_16NULL_ENUM_SCHEMAE@Base 0.5.3
 _ZN5capnp1_17NULL_CONST_SCHEMAE@Base 0.5.3
 _ZN5capnp1_17PackedInputStream4skipEm@Base 0.5.3
 _ZN5capnp1_17PackedInputStream7tryReadEPvmm@Base 0.5.3
 _ZN5capnp1_17PackedInputStreamC1ERN2kj19BufferedInputStreamE@Base 0.5.3
 _ZN5capnp1_17PackedInputStreamC2ERN2kj19BufferedInputStreamE@Base 0.5.3
 _ZN5capnp1_17PackedInputStreamD0Ev@Base 0.5.3
 _ZN5capnp1_17PackedInputStreamD1Ev@Base 0.5.3
 _ZN5capnp1_17PackedInputStreamD2Ev@Base 0.5.3
 _ZN5capnp1_18NULL_STRUCT_SCHEMAE@Base 0.5.3
 _ZN5capnp1_18PackedOutputStream5writeEPKvm@Base 0.5.3
 _ZN5capnp1_18PackedOutputStreamC1ERN2kj20BufferedOutputStreamE@Base 0.5.3
 _ZN5capnp1_18PackedOutputStreamC2ERN2kj20BufferedOutputStreamE@Base 0.5.3
 _ZN5capnp1_18PackedOutputStreamD0Ev@Base 0.5.3
 _ZN5capnp1_18PackedOutputStreamD1Ev@Base 0.5.3
 _ZN5capnp1_18PackedOutputStreamD2Ev@Base 0.5.3
 _ZN5capnp1_21NULL_INTERFACE_SCHEMAE@Base 0.5.3
 _ZN5capnp1_37setGlobalBrokenCapFactoryForLayoutCppERNS0_16BrokenCapFactoryE@Base 0.5.3
 _ZN5capnp1_5ArenaD0Ev@Base 0.5.3
 _ZN5capnp1_5ArenaD1Ev@Base 0.5.3
 _ZN5capnp1_5ArenaD2Ev@Base 0.5.3
 _ZN5capnp20MallocMessageBuilder15allocateSegmentEj@Base 0.5.3
 _ZN5capnp20MallocMessageBuilderC1EN2kj8ArrayPtrINS_4wordEEENS_18AllocationStrategyE@Base 0.5.3
 _ZN5capnp20MallocMessageBuilderC1EjNS_18AllocationStrategyE@Base 0.5.3
 _ZN5capnp20MallocMessageBuilderC2EN2kj8ArrayPtrINS_4wordEEENS_18AllocationStrategyE@Base 0.5.3
 _ZN5capnp20MallocMessageBuilderC2EjNS_18AllocationStrategyE@Base 0.5.3
 _ZN5capnp20MallocMessageBuilderD0Ev@Base 0.5.3
 _ZN5capnp20MallocMessageBuilderD1Ev@Base 0.5.3
 _ZN5capnp20MallocMessageBuilderD2Ev@Base 0.5.3
 _ZN5capnp20hasDiscriminantValueERKNS_6schema5Field6ReaderE@Base 0.5.3
 _ZN5capnp21PackedFdMessageReaderC1EN2kj11AutoCloseFdENS_13ReaderOptionsENS1_8ArrayPtrINS_4wordEEE@Base 0.5.3
 _ZN5capnp21PackedFdMessageReaderC1EiNS_13ReaderOptionsEN2kj8ArrayPtrINS_4wordEEE@Base 0.5.3
 _ZN5capnp21PackedFdMessageReaderC2EN2kj11AutoCloseFdENS_13ReaderOptionsENS1_8ArrayPtrINS_4wordEEE@Base 0.5.3
 _ZN5capnp21PackedFdMessageReaderC2EiNS_13ReaderOptionsEN2kj8ArrayPtrINS_4wordEEE@Base 0.5.3
 _ZN5capnp21PackedFdMessageReaderD0Ev@Base 0.5.3
 _ZN5capnp21PackedFdMessageReaderD1Ev@Base 0.5.3
 _ZN5capnp21PackedFdMessageReaderD2Ev@Base 0.5.3
 _ZN5capnp21StreamFdMessageReaderD0Ev@Base 0.5.3
 _ZN5capnp21StreamFdMessageReaderD1Ev@Base 0.5.3
 _ZN5capnp21StreamFdMessageReaderD2Ev@Base 0.5.3
 _ZN5capnp21readMessageCopyFromFdEiRNS_14MessageBuilderENS_13ReaderOptionsEN2kj8ArrayPtrINS_4wordEEE@Base 0.5.3
 _ZN5capnp22FlatArrayMessageReader10getSegmentEj@Base 0.5.3
 _ZN5capnp22FlatArrayMessageReaderC1EN2kj8ArrayPtrIKNS_4wordEEENS_13ReaderOptionsE@Base 0.5.3
 _ZN5capnp22FlatArrayMessageReaderC2EN2kj8ArrayPtrIKNS_4wordEEENS_13ReaderOptionsE@Base 0.5.3
 _ZN5capnp22FlatArrayMessageReaderD0Ev@Base 0.5.3
 _ZN5capnp22FlatArrayMessageReaderD1Ev@Base 0.5.3
 _ZN5capnp22FlatArrayMessageReaderD2Ev@Base 0.5.3
 _ZN5capnp22writePackedMessageToFdEiN2kj8ArrayPtrIKNS1_IKNS_4wordEEEEE@Base 0.5.3
 _ZN5capnp24InputStreamMessageReader10getSegmentEj@Base 0.5.3
 _ZN5capnp24InputStreamMessageReaderC1ERN2kj11InputStreamENS_13ReaderOptionsENS1_8ArrayPtrINS_4wordEEE@Base 0.5.3
 _ZN5capnp24InputStreamMessageReaderC2ERN2kj11InputStreamENS_13ReaderOptionsENS1_8ArrayPtrINS_4wordEEE@Base 0.5.3
 _ZN5capnp24InputStreamMessageReaderD0Ev@Base 0.5.3
 _ZN5capnp24InputStreamMessageReaderD1Ev@Base 0.5.3
 _ZN5capnp24InputStreamMessageReaderD2Ev@Base 0.5.3
 _ZN5capnp25SegmentArrayMessageReader10getSegmentEj@Base 0.5.3
 _ZN5capnp25SegmentArrayMessageReaderC1EN2kj8ArrayPtrIKNS2_IKNS_4wordEEEEENS_13ReaderOptionsE@Base 0.5.3
 _ZN5capnp25SegmentArrayMessageReaderC2EN2kj8ArrayPtrIKNS2_IKNS_4wordEEEEENS_13ReaderOptionsE@Base 0.5.3
 _ZN5capnp25SegmentArrayMessageReaderD0Ev@Base 0.5.3
 _ZN5capnp25SegmentArrayMessageReaderD1Ev@Base 0.5.3
 _ZN5capnp25SegmentArrayMessageReaderD2Ev@Base 0.5.3
 _ZN5capnp28computeSerializedSizeInWordsEN2kj8ArrayPtrIKNS1_IKNS_4wordEEEEE@Base 0.5.3
 _ZN5capnp35initMessageBuilderFromFlatArrayCopyEN2kj8ArrayPtrIKNS_4wordEEERNS_14MessageBuilderENS_13ReaderOptionsE@Base 0.5.3
 _ZN5capnp4Text7Builder6nulstrE@Base 0.5.3
 (optional=templinst)_ZN5capnp6OrphanINS_10AnyPointerEE5getAsINS_11DynamicListEEENS_11BuilderFor_IT_Xcl4kindIS6_EEEE4TypeENS_10ListSchemaE@Base 0.5.3
 (optional=templinst)_ZN5capnp6OrphanINS_10AnyPointerEE5getAsINS_13DynamicStructEEENS_11BuilderFor_IT_Xcl4kindIS6_EEEE4TypeENS_12StructSchemaE@Base 0.5.3
 (optional=templinst)_ZN5capnp6OrphanINS_10AnyPointerEE5getAsINS_17DynamicCapabilityEEENT_6ClientENS_15InterfaceSchemaE@Base 0.5.3
 (optional=templinst)_ZN5capnp6OrphanINS_10AnyPointerEE9releaseAsINS_11DynamicListEEENS0_IT_EENS_10ListSchemaE@Base 0.5.3
 (optional=templinst)_ZN5capnp6OrphanINS_10AnyPointerEE9releaseAsINS_13DynamicStructEEENS0_IT_EENS_12StructSchemaE@Base 0.5.3
 (optional=templinst)_ZN5capnp6OrphanINS_10AnyPointerEE9releaseAsINS_17DynamicCapabilityEEENS0_IT_EENS_15InterfaceSchemaE@Base 0.5.3
 (optional=templinst)_ZN5capnp6OrphanINS_11DynamicListEE3getEv@Base 0.5.3
 (optional=templinst)_ZN5capnp6OrphanINS_12DynamicValueEE3getEv@Base 0.5.3
 (optional=templinst)_ZN5capnp6OrphanINS_12DynamicValueEE9releaseAsINS_10AnyPointerEEENS0_IT_EEv@Base 0.5.3
 (optional=templinst)_ZN5capnp6OrphanINS_12DynamicValueEE9releaseAsINS_11DynamicListEEENS0_IT_EEv@Base 0.5.3
 (optional=templinst)_ZN5capnp6OrphanINS_12DynamicValueEE9releaseAsINS_13DynamicStructEEENS0_IT_EEv@Base 0.5.3
 (optional=templinst)_ZN5capnp6OrphanINS_12DynamicValueEEC1ENS1_7BuilderEONS_1_13OrphanBuilderE@Base 0.5.3
 (optional=templinst)_ZN5capnp6OrphanINS_12DynamicValueEEC2ENS1_7BuilderEONS_1_13OrphanBuilderE@Base 0.5.3
 (optional=templinst)_ZN5capnp6OrphanINS_13DynamicStructEE3getEv@Base 0.5.3
 (optional=templinst)_ZN5capnp6OrphanINS_17DynamicCapabilityEE3getEv@Base 0.5.3
 _ZN5capnp6schema10Annotation13_capnpPrivate12dataWordSizeE@Base 0.5.3
 _ZN5capnp6schema10Annotation13_capnpPrivate12pointerCountE@Base 0.5.3
 _ZN5capnp6schema10Annotation13_capnpPrivate4kindE@Base 0.5.3
 _ZN5capnp6schema10Annotation13_capnpPrivate5brandE@Base 0.5.3
 _ZN5capnp6schema10Annotation13_capnpPrivate6schemaE@Base 0.5.3
 _ZN5capnp6schema10Superclass13_capnpPrivate12dataWordSizeE@Base 0.5.3
 _ZN5capnp6schema10Superclass13_capnpPrivate12pointerCountE@Base 0.5.3
 _ZN5capnp6schema10Superclass13_capnpPrivate4kindE@Base 0.5.3
 _ZN5capnp6schema10Superclass13_capnpPrivate5brandE@Base 0.5.3
 _ZN5capnp6schema10Superclass13_capnpPrivate6schemaE@Base 0.5.3
 _ZN5capnp6schema20CodeGeneratorRequest13RequestedFile13_capnpPrivate12dataWordSizeE@Base 0.5.3
 _ZN5capnp6schema20CodeGeneratorRequest13RequestedFile13_capnpPrivate12pointerCountE@Base 0.5.3
 _ZN5capnp6schema20CodeGeneratorRequest13RequestedFile13_capnpPrivate4kindE@Base 0.5.3
 _ZN5capnp6schema20CodeGeneratorRequest13RequestedFile13_capnpPrivate5brandE@Base 0.5.3
 _ZN5capnp6schema20CodeGeneratorRequest13RequestedFile13_capnpPrivate6schemaE@Base 0.5.3
 _ZN5capnp6schema20CodeGeneratorRequest13RequestedFile6Import13_capnpPrivate12dataWordSizeE@Base 0.5.3
 _ZN5capnp6schema20CodeGeneratorRequest13RequestedFile6Import13_capnpPrivate12pointerCountE@Base 0.5.3
 _ZN5capnp6schema20CodeGeneratorRequest13RequestedFile6Import13_capnpPrivate4kindE@Base 0.5.3
 _ZN5capnp6schema20CodeGeneratorRequest13RequestedFile6Import13_capnpPrivate5brandE@Base 0.5.3
 _ZN5capnp6schema20CodeGeneratorRequest13RequestedFile6Import13_capnpPrivate6schemaE@Base 0.5.3
 _ZN5capnp6schema20CodeGeneratorRequest13_capnpPrivate12dataWordSizeE@Base 0.5.3
 _ZN5capnp6schema20CodeGeneratorRequest13_capnpPrivate12pointerCountE@Base 0.5.3
 _ZN5capnp6schema20CodeGeneratorRequest13_capnpPrivate4kindE@Base 0.5.3
 _ZN5capnp6schema20CodeGeneratorRequest13_capnpPrivate5brandE@Base 0.5.3
 _ZN5capnp6schema20CodeGeneratorRequest13_capnpPrivate6schemaE@Base 0.5.3
 _ZN5capnp6schema4Node10Annotation13_capnpPrivate12dataWordSizeE@Base 0.5.3
 _ZN5capnp6schema4Node10Annotation13_capnpPrivate12pointerCountE@Base 0.5.3
 _ZN5capnp6schema4Node10Annotation13_capnpPrivate4kindE@Base 0.5.3
 _ZN5capnp6schema4Node10Annotation13_capnpPrivate5brandE@Base 0.5.3
 _ZN5capnp6schema4Node10Annotation13_capnpPrivate6schemaE@Base 0.5.3
 _ZN5capnp6schema4Node10NestedNode13_capnpPrivate12dataWordSizeE@Base 0.5.3
 _ZN5capnp6schema4Node10NestedNode13_capnpPrivate12pointerCountE@Base 0.5.3
 _ZN5capnp6schema4Node10NestedNode13_capnpPrivate4kindE@Base 0.5.3
 _ZN5capnp6schema4Node10NestedNode13_capnpPrivate5brandE@Base 0.5.3
 _ZN5capnp6schema4Node10NestedNode13_capnpPrivate6schemaE@Base 0.5.3
 _ZN5capnp6schema4Node13_capnpPrivate12dataWordSizeE@Base 0.5.3
 _ZN5capnp6schema4Node13_capnpPrivate12pointerCountE@Base 0.5.3
 _ZN5capnp6schema4Node13_capnpPrivate4kindE@Base 0.5.3
 _ZN5capnp6schema4Node13_capnpPrivate5brandE@Base 0.5.3
 _ZN5capnp6schema4Node13_capnpPrivate6schemaE@Base 0.5.3
 _ZN5capnp6schema4Node4Enum13_capnpPrivate12dataWordSizeE@Base 0.5.3
 _ZN5capnp6schema4Node4Enum13_capnpPrivate12pointerCountE@Base 0.5.3
 _ZN5capnp6schema4Node4Enum13_capnpPrivate4kindE@Base 0.5.3
 _ZN5capnp6schema4Node4Enum13_capnpPrivate5brandE@Base 0.5.3
 _ZN5capnp6schema4Node4Enum13_capnpPrivate6schemaE@Base 0.5.3
 _ZN5capnp6schema4Node5Const13_capnpPrivate12dataWordSizeE@Base 0.5.3
 _ZN5capnp6schema4Node5Const13_capnpPrivate12pointerCountE@Base 0.5.3
 _ZN5capnp6schema4Node5Const13_capnpPrivate4kindE@Base 0.5.3
 _ZN5capnp6schema4Node5Const13_capnpPrivate5brandE@Base 0.5.3
 _ZN5capnp6schema4Node5Const13_capnpPrivate6schemaE@Base 0.5.3
 _ZN5capnp6schema4Node6Struct13_capnpPrivate12dataWordSizeE@Base 0.5.3
 _ZN5capnp6schema4Node6Struct13_capnpPrivate12pointerCountE@Base 0.5.3
 _ZN5capnp6schema4Node6Struct13_capnpPrivate4kindE@Base 0.5.3
 _ZN5capnp6schema4Node6Struct13_capnpPrivate5brandE@Base 0.5.3
 _ZN5capnp6schema4Node6Struct13_capnpPrivate6schemaE@Base 0.5.3
 _ZN5capnp6schema4Node9Interface13_capnpPrivate12dataWordSizeE@Base 0.5.3
 _ZN5capnp6schema4Node9Interface13_capnpPrivate12pointerCountE@Base 0.5.3
 _ZN5capnp6schema4Node9Interface13_capnpPrivate4kindE@Base 0.5.3
 _ZN5capnp6schema4Node9Interface13_capnpPrivate5brandE@Base 0.5.3
 _ZN5capnp6schema4Node9Interface13_capnpPrivate6schemaE@Base 0.5.3
 _ZN5capnp6schema4Node9Parameter13_capnpPrivate12dataWordSizeE@Base 0.5.3
 _ZN5capnp6schema4Node9Parameter13_capnpPrivate12pointerCountE@Base 0.5.3
 _ZN5capnp6schema4Node9Parameter13_capnpPrivate4kindE@Base 0.5.3
 _ZN5capnp6schema4Node9Parameter13_capnpPrivate5brandE@Base 0.5.3
 _ZN5capnp6schema4Node9Parameter13_capnpPrivate6schemaE@Base 0.5.3
 _ZN5capnp6schema4Type10AnyPointer13Unconstrained13_capnpPrivate12dataWordSizeE@Base 0.5.3
 _ZN5capnp6schema4Type10AnyPointer13Unconstrained13_capnpPrivate12pointerCountE@Base 0.5.3
 _ZN5capnp6schema4Type10AnyPointer13Unconstrained13_capnpPrivate4kindE@Base 0.5.3
 _ZN5capnp6schema4Type10AnyPointer13Unconstrained13_capnpPrivate5brandE@Base 0.5.3
 _ZN5capnp6schema4Type10AnyPointer13Unconstrained13_capnpPrivate6schemaE@Base 0.5.3
 _ZN5capnp6schema4Type10AnyPointer13_capnpPrivate12dataWordSizeE@Base 0.5.3
 _ZN5capnp6schema4Type10AnyPointer13_capnpPrivate12pointerCountE@Base 0.5.3
 _ZN5capnp6schema4Type10AnyPointer13_capnpPrivate4kindE@Base 0.5.3
 _ZN5capnp6schema4Type10AnyPointer13_capnpPrivate5brandE@Base 0.5.3
 _ZN5capnp6schema4Type10AnyPointer13_capnpPrivate6schemaE@Base 0.5.3
 _ZN5capnp6schema4Type10AnyPointer23ImplicitMethodParameter13_capnpPrivate12dataWordSizeE@Base 0.5.3
 _ZN5capnp6schema4Type10AnyPointer23ImplicitMethodParameter13_capnpPrivate12pointerCountE@Base 0.5.3
 _ZN5capnp6schema4Type10AnyPointer23ImplicitMethodParameter13_capnpPrivate4kindE@Base 0.5.3
 _ZN5capnp6schema4Type10AnyPointer23ImplicitMethodParameter13_capnpPrivate5brandE@Base 0.5.3
 _ZN5capnp6schema4Type10AnyPointer23ImplicitMethodParameter13_capnpPrivate6schemaE@Base 0.5.3
 _ZN5capnp6schema4Type10AnyPointer9Parameter13_capnpPrivate12dataWordSizeE@Base 0.5.3
 _ZN5capnp6schema4Type10AnyPointer9Parameter13_capnpPrivate12pointerCountE@Base 0.5.3
 _ZN5capnp6schema4Type10AnyPointer9Parameter13_capnpPrivate4kindE@Base 0.5.3
 _ZN5capnp6schema4Type10AnyPointer9Parameter13_capnpPrivate5brandE@Base 0.5.3
 _ZN5capnp6schema4Type10AnyPointer9Parameter13_capnpPrivate6schemaE@Base 0.5.3
 _ZN5capnp6schema4Type13_capnpPrivate12dataWordSizeE@Base 0.5.3
 _ZN5capnp6schema4Type13_capnpPrivate12pointerCountE@Base 0.5.3
 _ZN5capnp6schema4Type13_capnpPrivate4kindE@Base 0.5.3
 _ZN5capnp6schema4Type13_capnpPrivate5brandE@Base 0.5.3
 _ZN5capnp6schema4Type13_capnpPrivate6schemaE@Base 0.5.3
 _ZN5capnp6schema4Type4Enum13_capnpPrivate12dataWordSizeE@Base 0.5.3
 _ZN5capnp6schema4Type4Enum13_capnpPrivate12pointerCountE@Base 0.5.3
 _ZN5capnp6schema4Type4Enum13_capnpPrivate4kindE@Base 0.5.3
 _ZN5capnp6schema4Type4Enum13_capnpPrivate5brandE@Base 0.5.3
 _ZN5capnp6schema4Type4Enum13_capnpPrivate6schemaE@Base 0.5.3
 _ZN5capnp6schema4Type4List13_capnpPrivate12dataWordSizeE@Base 0.5.3
 _ZN5capnp6schema4Type4List13_capnpPrivate12pointerCountE@Base 0.5.3
 _ZN5capnp6schema4Type4List13_capnpPrivate4kindE@Base 0.5.3
 _ZN5capnp6schema4Type4List13_capnpPrivate5brandE@Base 0.5.3
 _ZN5capnp6schema4Type4List13_capnpPrivate6schemaE@Base 0.5.3
 _ZN5capnp6schema4Type6Struct13_capnpPrivate12dataWordSizeE@Base 0.5.3
 _ZN5capnp6schema4Type6Struct13_capnpPrivate12pointerCountE@Base 0.5.3
 _ZN5capnp6schema4Type6Struct13_capnpPrivate4kindE@Base 0.5.3
 _ZN5capnp6schema4Type6Struct13_capnpPrivate5brandE@Base 0.5.3
 _ZN5capnp6schema4Type6Struct13_capnpPrivate6schemaE@Base 0.5.3
 _ZN5capnp6schema4Type9Interface13_capnpPrivate12dataWordSizeE@Base 0.5.3
 _ZN5capnp6schema4Type9Interface13_capnpPrivate12pointerCountE@Base 0.5.3
 _ZN5capnp6schema4Type9Interface13_capnpPrivate4kindE@Base 0.5.3
 _ZN5capnp6schema4Type9Interface13_capnpPrivate5brandE@Base 0.5.3
 _ZN5capnp6schema4Type9Interface13_capnpPrivate6schemaE@Base 0.5.3
 _ZN5capnp6schema5Brand13_capnpPrivate12dataWordSizeE@Base 0.5.3
 _ZN5capnp6schema5Brand13_capnpPrivate12pointerCountE@Base 0.5.3
 _ZN5capnp6schema5Brand13_capnpPrivate4kindE@Base 0.5.3
 _ZN5capnp6schema5Brand13_capnpPrivate5brandE@Base 0.5.3
 _ZN5capnp6schema5Brand13_capnpPrivate6schemaE@Base 0.5.3
 _ZN5capnp6schema5Brand5Scope13_capnpPrivate12dataWordSizeE@Base 0.5.3
 _ZN5capnp6schema5Brand5Scope13_capnpPrivate12pointerCountE@Base 0.5.3
 _ZN5capnp6schema5Brand5Scope13_capnpPrivate4kindE@Base 0.5.3
 _ZN5capnp6schema5Brand5Scope13_capnpPrivate5brandE@Base 0.5.3
 _ZN5capnp6schema5Brand5Scope13_capnpPrivate6schemaE@Base 0.5.3
 _ZN5capnp6schema5Brand7Binding13_capnpPrivate12dataWordSizeE@Base 0.5.3
 _ZN5capnp6schema5Brand7Binding13_capnpPrivate12pointerCountE@Base 0.5.3
 _ZN5capnp6schema5Brand7Binding13_capnpPrivate4kindE@Base 0.5.3
 _ZN5capnp6schema5Brand7Binding13_capnpPrivate5brandE@Base 0.5.3
 _ZN5capnp6schema5Brand7Binding13_capnpPrivate6schemaE@Base 0.5.3
 _ZN5capnp6schema5Field13_capnpPrivate12dataWordSizeE@Base 0.5.3
 _ZN5capnp6schema5Field13_capnpPrivate12pointerCountE@Base 0.5.3
 _ZN5capnp6schema5Field13_capnpPrivate4kindE@Base 0.5.3
 _ZN5capnp6schema5Field13_capnpPrivate5brandE@Base 0.5.3
 _ZN5capnp6schema5Field13_capnpPrivate6schemaE@Base 0.5.3
 _ZN5capnp6schema5Field15NO_DISCRIMINANTE@Base 0.5.3
 _ZN5capnp6schema5Field4Slot13_capnpPrivate12dataWordSizeE@Base 0.5.3
 _ZN5capnp6schema5Field4Slot13_capnpPrivate12pointerCountE@Base 0.5.3
 _ZN5capnp6schema5Field4Slot13_capnpPrivate4kindE@Base 0.5.3
 _ZN5capnp6schema5Field4Slot13_capnpPrivate5brandE@Base 0.5.3
 _ZN5capnp6schema5Field4Slot13_capnpPrivate6schemaE@Base 0.5.3
 _ZN5capnp6schema5Field5Group13_capnpPrivate12dataWordSizeE@Base 0.5.3
 _ZN5capnp6schema5Field5Group13_capnpPrivate12pointerCountE@Base 0.5.3
 _ZN5capnp6schema5Field5Group13_capnpPrivate4kindE@Base 0.5.3
 _ZN5capnp6schema5Field5Group13_capnpPrivate5brandE@Base 0.5.3
 _ZN5capnp6schema5Field5Group13_capnpPrivate6schemaE@Base 0.5.3
 _ZN5capnp6schema5Field7Ordinal13_capnpPrivate12dataWordSizeE@Base 0.5.3
 _ZN5capnp6schema5Field7Ordinal13_capnpPrivate12pointerCountE@Base 0.5.3
 _ZN5capnp6schema5Field7Ordinal13_capnpPrivate4kindE@Base 0.5.3
 _ZN5capnp6schema5Field7Ordinal13_capnpPrivate5brandE@Base 0.5.3
 _ZN5capnp6schema5Field7Ordinal13_capnpPrivate6schemaE@Base 0.5.3
 _ZN5capnp6schema5Value13_capnpPrivate12dataWordSizeE@Base 0.5.3
 _ZN5capnp6schema5Value13_capnpPrivate12pointerCountE@Base 0.5.3
 _ZN5capnp6schema5Value13_capnpPrivate4kindE@Base 0.5.3
 _ZN5capnp6schema5Value13_capnpPrivate5brandE@Base 0.5.3
 _ZN5capnp6schema5Value13_capnpPrivate6schemaE@Base 0.5.3
 _ZN5capnp6schema6Method13_capnpPrivate12dataWordSizeE@Base 0.5.3
 _ZN5capnp6schema6Method13_capnpPrivate12pointerCountE@Base 0.5.3
 _ZN5capnp6schema6Method13_capnpPrivate4kindE@Base 0.5.3
 _ZN5capnp6schema6Method13_capnpPrivate5brandE@Base 0.5.3
 _ZN5capnp6schema6Method13_capnpPrivate6schemaE@Base 0.5.3
 _ZN5capnp6schema9Enumerant13_capnpPrivate12dataWordSizeE@Base 0.5.3
 _ZN5capnp6schema9Enumerant13_capnpPrivate12pointerCountE@Base 0.5.3
 _ZN5capnp6schema9Enumerant13_capnpPrivate4kindE@Base 0.5.3
 _ZN5capnp6schema9Enumerant13_capnpPrivate5brandE@Base 0.5.3
 _ZN5capnp6schema9Enumerant13_capnpPrivate6schemaE@Base 0.5.3
 _ZN5capnp7AnyList6Reader6equalsES1_@Base 0.5.3
 _ZN5capnp7AnyList6ReadereqES1_@Base 0.5.3
 _ZN5capnp7schemas18s_87e739250a60ea97E@Base 0.5.3
 _ZN5capnp7schemas18s_8e3b5f79fe593656E@Base 0.5.3
 _ZN5capnp7schemas18s_903455f06065422bE@Base 0.5.3
 _ZN5capnp7schemas18s_9500cce23b334d80E@Base 0.5.3
 _ZN5capnp7schemas18s_978a7cebdc549a4dE@Base 0.5.3
 _ZN5capnp7schemas18s_97b14cbe7cfec712E@Base 0.5.3
 _ZN5capnp7schemas18s_9aad50a41f4af45fE@Base 0.5.3
 _ZN5capnp7schemas18s_9dd1f724f4614a85E@Base 0.5.3
 _ZN5capnp7schemas18s_9e0e78711a7f87a9E@Base 0.5.3
 _ZN5capnp7schemas18s_9ea0b19b37fb4435E@Base 0.5.3
 _ZN5capnp7schemas18s_a9962a9ed0a4d7f8E@Base 0.5.3
 _ZN5capnp7schemas18s_abd73485a9636bc9E@Base 0.5.3
 _ZN5capnp7schemas18s_ac3a6f60ef4cc6d3E@Base 0.5.3
 _ZN5capnp7schemas18s_ae504193122357e5E@Base 0.5.3
 _ZN5capnp7schemas18s_b18aa5ac7a0d9420E@Base 0.5.3
 _ZN5capnp7schemas18s_b54ab3364333f598E@Base 0.5.3
 _ZN5capnp7schemas18s_b9521bccf10fa3b1E@Base 0.5.3
 _ZN5capnp7schemas18s_b9c6f99ebf805f2cE@Base 0.5.3
 _ZN5capnp7schemas18s_baefc9120c56e274E@Base 0.5.3
 _ZN5capnp7schemas18s_bb90d5c287870be6E@Base 0.5.3
 _ZN5capnp7schemas18s_bfc546f6210ad7ceE@Base 0.5.3
 _ZN5capnp7schemas18s_c2573fe8a23e49f1E@Base 0.5.3
 _ZN5capnp7schemas18s_c42305476bb4746fE@Base 0.5.3
 _ZN5capnp7schemas18s_c863cd16969ee7fcE@Base 0.5.3
 _ZN5capnp7schemas18s_cafccddb68db1d11E@Base 0.5.3
 _ZN5capnp7schemas18s_ce23dcd2d7b00c9bE@Base 0.5.3
 _ZN5capnp7schemas18s_cfea0eb02e810062E@Base 0.5.3
 _ZN5capnp7schemas18s_d07378ede1f9cc60E@Base 0.5.3
 _ZN5capnp7schemas18s_d1958f7dba521926E@Base 0.5.3
 _ZN5capnp7schemas18s_debf55bbfa0fc242E@Base 0.5.3
 _ZN5capnp7schemas18s_e682ab4cf923a417E@Base 0.5.3
 _ZN5capnp7schemas18s_e82753cff0c2218fE@Base 0.5.3
 _ZN5capnp7schemas18s_ec1619d4400a0290E@Base 0.5.3
 _ZN5capnp7schemas18s_ed8bca69f7fb0cbfE@Base 0.5.3
 _ZN5capnp7schemas18s_f1c8950dab257542E@Base 0.5.3
 _ZN5capnp7schemas18s_f264a779fef191ceE@Base 0.5.3
 _ZN5capnp7schemas19bp_87e739250a60ea97E@Base 0.5.3
 _ZN5capnp7schemas19bp_8e3b5f79fe593656E@Base 0.5.3
 _ZN5capnp7schemas19bp_903455f06065422bE@Base 0.5.3
 _ZN5capnp7schemas19bp_9500cce23b334d80E@Base 0.5.3
 _ZN5capnp7schemas19bp_978a7cebdc549a4dE@Base 0.5.3
 _ZN5capnp7schemas19bp_97b14cbe7cfec712E@Base 0.5.3
 _ZN5capnp7schemas19bp_9aad50a41f4af45fE@Base 0.5.3
 _ZN5capnp7schemas19bp_9dd1f724f4614a85E@Base 0.5.3
 _ZN5capnp7schemas19bp_9e0e78711a7f87a9E@Base 0.5.3
 _ZN5capnp7schemas19bp_9ea0b19b37fb4435E@Base 0.5.3
 _ZN5capnp7schemas19bp_a9962a9ed0a4d7f8E@Base 0.5.3
 _ZN5capnp7schemas19bp_abd73485a9636bc9E@Base 0.5.3
 _ZN5capnp7schemas19bp_ac3a6f60ef4cc6d3E@Base 0.5.3
 _ZN5capnp7schemas19bp_ae504193122357e5E@Base 0.5.3
 _ZN5capnp7schemas19bp_b18aa5ac7a0d9420E@Base 0.5.3
 _ZN5capnp7schemas19bp_b54ab3364333f598E@Base 0.5.3
 _ZN5capnp7schemas19bp_b9521bccf10fa3b1E@Base 0.5.3
 _ZN5capnp7schemas19bp_b9c6f99ebf805f2cE@Base 0.5.3
 _ZN5capnp7schemas19bp_baefc9120c56e274E@Base 0.5.3
 _ZN5capnp7schemas19bp_bb90d5c287870be6E@Base 0.5.3
 _ZN5capnp7schemas19bp_bfc546f6210ad7ceE@Base 0.5.3
 _ZN5capnp7schemas19bp_c2573fe8a23e49f1E@Base 0.5.3
 _ZN5capnp7schemas19bp_c42305476bb4746fE@Base 0.5.3
 _ZN5capnp7schemas19bp_c863cd16969ee7fcE@Base 0.5.3
 _ZN5capnp7schemas19bp_cafccddb68db1d11E@Base 0.5.3
 _ZN5capnp7schemas19bp_ce23dcd2d7b00c9bE@Base 0.5.3
 _ZN5capnp7schemas19bp_cfea0eb02e810062E@Base 0.5.3
 _ZN5capnp7schemas19bp_d07378ede1f9cc60E@Base 0.5.3
 _ZN5capnp7schemas19bp_d1958f7dba521926E@Base 0.5.3
 _ZN5capnp7schemas19bp_debf55bbfa0fc242E@Base 0.5.3
 _ZN5capnp7schemas19bp_e682ab4cf923a417E@Base 0.5.3
 _ZN5capnp7schemas19bp_e82753cff0c2218fE@Base 0.5.3
 _ZN5capnp7schemas19bp_ec1619d4400a0290E@Base 0.5.3
 _ZN5capnp7schemas19bp_ed8bca69f7fb0cbfE@Base 0.5.3
 _ZN5capnp7schemas19bp_f1c8950dab257542E@Base 0.5.3
 _ZN5capnp7schemas19bp_f264a779fef191ceE@Base 0.5.3
 _ZN5capnp7schemas8EnumInfoINS0_28ElementSize_d1958f7dba521926EE6schemaE@Base 0.5.3
 _ZN5capnp7schemas8EnumInfoINS0_28ElementSize_d1958f7dba521926EE6typeIdE@Base 0.5.3
 _ZN5capnp9AnyStruct6Reader6equalsES1_@Base 0.5.3
 _ZN5capnp9AnyStruct6ReadereqES1_@Base 0.5.3
 _ZN5capnpmlEN2kj1_11StringifierENS_11DynamicEnumE@Base 0.5.3
 _ZN5capnpmlEN2kj1_11StringifierENS_8EqualityE@Base 0.5.3
 _ZN5capnpmlEN2kj1_11StringifierERKNS_11DynamicList6ReaderE@Base 0.5.3
 _ZN5capnpmlEN2kj1_11StringifierERKNS_11DynamicList7BuilderE@Base 0.5.3
 _ZN5capnpmlEN2kj1_11StringifierERKNS_12DynamicValue6ReaderE@Base 0.5.3
 _ZN5capnpmlEN2kj1_11StringifierERKNS_12DynamicValue7BuilderE@Base 0.5.3
 _ZN5capnpmlEN2kj1_11StringifierERKNS_12StructSchema5FieldE@Base 0.5.3
 _ZN5capnpmlEN2kj1_11StringifierERKNS_13DynamicStruct6ReaderE@Base 0.5.3
 _ZN5capnpmlEN2kj1_11StringifierERKNS_13DynamicStruct7BuilderE@Base 0.5.3
 _ZN5capnpmlEN2kj1_11StringifierERKNS_6SchemaE@Base 0.5.3
 _ZNK2kj12NullDisposer11disposeImplEPv@Base 0.5.3
 (optional=templinst)_ZNK2kj1_12HeapDisposerIN5capnp12SchemaLoader4ImplEE11disposeImplEPv@Base 0.5.3
 (optional=templinst)_ZNK2kj1_12HeapDisposerIN5capnp1_12BuilderArena17MultiSegmentStateEE11disposeImplEPv@Base 0.5.3
 (optional=templinst)_ZNK2kj1_12HeapDisposerIN5capnp1_13SegmentReaderEE11disposeImplEPv@Base 0.5.3
 (optional=templinst)_ZNK2kj1_12HeapDisposerIN5capnp1_14SegmentBuilderEE11disposeImplEPv@Base 0.5.3
 (optional=templinst)_ZNK2kj1_12HeapDisposerIN5capnp20MallocMessageBuilder12MoreSegmentsEE11disposeImplEPv@Base 0.5.3
 (optional=templinst)_ZNK2kj1_12HeapDisposerISt13unordered_mapIjNS_3OwnIN5capnp1_13SegmentReaderEEESt4hashIjESt8equal_toIjESaISt4pairIKjS7_EEEE11disposeImplEPv@Base 0.5.3
 _ZNK5capnp10AnyPointer6Reader15getPipelinedCapEN2kj8ArrayPtrIKNS_10PipelineOpEEE@Base 0.5.3
 _ZNK5capnp10EnumSchema13getEnumerantsEv@Base 0.5.3
 _ZNK5capnp10EnumSchema18getEnumerantByNameEN2kj9StringPtrE@Base 0.5.3
 _ZNK5capnp10EnumSchema19findEnumerantByNameEN2kj9StringPtrE@Base 0.5.3
 _ZNK5capnp11ConstSchema20getValueSchemaOffsetEv@Base 0.5.3
 _ZNK5capnp11ConstSchema7getTypeEv@Base 0.5.3
 _ZNK5capnp11DynamicEnum12getEnumerantEv@Base 0.5.3
 _ZNK5capnp11DynamicEnum6asImplEm@Base 0.5.3
 _ZNK5capnp11DynamicList6ReaderixEj@Base 0.5.3
 _ZNK5capnp11DynamicList7Builder8asReaderEv@Base 0.5.3
 _ZNK5capnp12DynamicValue7Builder8asReaderEv@Base 0.5.3
 _ZNK5capnp12SchemaLoader10getUnboundEm@Base 0.5.3
 _ZNK5capnp12SchemaLoader12getAllLoadedEv@Base 0.5.3
 _ZNK5capnp12SchemaLoader15InitializerImpl4initEPKNS_1_9RawSchemaE@Base 0.5.3
 _ZNK5capnp12SchemaLoader22BrandedInitializerImpl4initEPKNS_1_16RawBrandedSchemaE@Base 0.5.3
 _ZNK5capnp12SchemaLoader3getEmNS_6schema5Brand6ReaderENS_6SchemaE@Base 0.5.3
 _ZNK5capnp12SchemaLoader4Impl12getAllLoadedEv@Base 0.5.3
 _ZNK5capnp12SchemaLoader4Impl6tryGetEm@Base 0.5.3
 _ZNK5capnp12SchemaLoader6tryGetEmNS_6schema5Brand6ReaderENS_6SchemaE@Base 0.5.3
 _ZNK5capnp12SchemaLoader7getTypeENS_6schema4Type6ReaderENS_6SchemaE@Base 0.5.3
 _ZNK5capnp12SchemaLoader8loadOnceERKNS_6schema4Node6ReaderE@Base 0.5.3
 _ZNK5capnp12StructSchema14getFieldByNameEN2kj9StringPtrE@Base 0.5.3
 _ZNK5capnp12StructSchema14getUnionFieldsEv@Base 0.5.3
 _ZNK5capnp12StructSchema15findFieldByNameEN2kj9StringPtrE@Base 0.5.3
 _ZNK5capnp12StructSchema17getNonUnionFieldsEv@Base 0.5.3
 _ZNK5capnp12StructSchema22getFieldByDiscriminantEt@Base 0.5.3
 _ZNK5capnp12StructSchema5Field27getDefaultValueSchemaOffsetEv@Base 0.5.3
 _ZNK5capnp12StructSchema5Field7getTypeEv@Base 0.5.3
 _ZNK5capnp12StructSchema9getFieldsEv@Base 0.5.3
 _ZNK5capnp13DynamicStruct6Reader12isSetInUnionENS_12StructSchema5FieldE@Base 0.5.3
 _ZNK5capnp13DynamicStruct6Reader16verifySetInUnionENS_12StructSchema5FieldE@Base 0.5.3
 _ZNK5capnp13DynamicStruct6Reader3getEN2kj9StringPtrE@Base 0.5.3
 _ZNK5capnp13DynamicStruct6Reader3getENS_12StructSchema5FieldE@Base 0.5.3
 _ZNK5capnp13DynamicStruct6Reader3hasEN2kj9StringPtrE@Base 0.5.3
 _ZNK5capnp13DynamicStruct6Reader3hasENS_12StructSchema5FieldE@Base 0.5.3
 _ZNK5capnp13DynamicStruct6Reader5whichEv@Base 0.5.3
 _ZNK5capnp15InterfaceSchema10getMethodsEv@Base 0.5.3
 _ZNK5capnp15InterfaceSchema14SuperclassListixEj@Base 0.5.3
 _ZNK5capnp15InterfaceSchema14findSuperclassEm@Base 0.5.3
 _ZNK5capnp15InterfaceSchema14findSuperclassEmRj@Base 0.5.3
 _ZNK5capnp15InterfaceSchema15getMethodByNameEN2kj9StringPtrE@Base 0.5.3
 _ZNK5capnp15InterfaceSchema15getSuperclassesEv@Base 0.5.3
 _ZNK5capnp15InterfaceSchema16findMethodByNameEN2kj9StringPtrE@Base 0.5.3
 _ZNK5capnp15InterfaceSchema16findMethodByNameEN2kj9StringPtrERj@Base 0.5.3
 _ZNK5capnp15InterfaceSchema6Method12getParamTypeEv@Base 0.5.3
 _ZNK5capnp15InterfaceSchema6Method13getResultTypeEv@Base 0.5.3
 _ZNK5capnp15InterfaceSchema7extendsES0_@Base 0.5.3
 _ZNK5capnp15InterfaceSchema7extendsES0_Rj@Base 0.5.3
 _ZNK5capnp1_10ListReader16getStructElementEj@Base 0.5.3
 _ZNK5capnp1_11ListBuilder8asReaderEv@Base 0.5.3
 _ZNK5capnp1_12StructReader9totalSizeEv@Base 0.5.3
 _ZNK5capnp1_13OrphanBuilder12asCapabilityEv@Base 0.5.3
 _ZNK5capnp1_13OrphanBuilder12asDataReaderEv@Base 0.5.3
 _ZNK5capnp1_13OrphanBuilder12asListReaderENS_11ElementSizeE@Base 0.5.3
 _ZNK5capnp1_13OrphanBuilder12asTextReaderEv@Base 0.5.3
 _ZNK5capnp1_13OrphanBuilder14asStructReaderENS0_10StructSizeE@Base 0.5.3
 _ZNK5capnp1_13PointerReader10targetSizeEv@Base 0.5.3
 _ZNK5capnp1_13PointerReader12getUncheckedEv@Base 0.5.3
 _ZNK5capnp1_13PointerReader13getCapabilityEv@Base 0.5.3
 _ZNK5capnp1_13PointerReader14getListAnySizeEPKNS_4wordE@Base 0.5.3
 _ZNK5capnp1_13PointerReader14getPointerTypeEv@Base 0.5.3
 (optional=templinst)_ZNK5capnp1_13PointerReader7getBlobINS_4DataEEENT_6ReaderEPKvj@Base 0.5.3
 (optional=templinst)_ZNK5capnp1_13PointerReader7getBlobINS_4TextEEENT_6ReaderEPKvj@Base 0.5.3
 _ZNK5capnp1_13PointerReader7getListENS_11ElementSizeEPKNS_4wordE@Base 0.5.3
 _ZNK5capnp1_13PointerReader8getArenaEv@Base 0.5.3
 _ZNK5capnp1_13PointerReader9getStructEPKNS_4wordE@Base 0.5.3
 _ZNK5capnp1_13StructBuilder8asReaderEv@Base 0.5.3
 _ZNK5capnp1_14PointerBuilder8asReaderEv@Base 0.5.3
 _ZNK5capnp1_14PointerBuilder8getArenaEv@Base 0.5.3
 _ZNK5capnp4Type11asInterfaceEv@Base 0.5.3
 _ZNK5capnp4Type15requireUsableAsES0_@Base 0.5.3
 _ZNK5capnp4Type17getBrandParameterEv@Base 0.5.3
 _ZNK5capnp4Type20getImplicitParameterEv@Base 0.5.3
 _ZNK5capnp4Type6asEnumEv@Base 0.5.3
 _ZNK5capnp4Type6asListEv@Base 0.5.3
 _ZNK5capnp4Type8asStructEv@Base 0.5.3
 _ZNK5capnp4TypeeqERKS0_@Base 0.5.3
 (optional=templinst)_ZNK5capnp6OrphanINS_10AnyPointerEE11getAsReaderINS_11DynamicListEEENS_10ReaderFor_IT_Xcl4kindIS6_EEEE4TypeENS_10ListSchemaE@Base 0.5.3
 (optional=templinst)_ZNK5capnp6OrphanINS_10AnyPointerEE11getAsReaderINS_13DynamicStructEEENS_10ReaderFor_IT_Xcl4kindIS6_EEEE4TypeENS_12StructSchemaE@Base 0.5.3
 (optional=templinst)_ZNK5capnp6OrphanINS_10AnyPointerEE11getAsReaderINS_17DynamicCapabilityEEENT_6ClientENS_15InterfaceSchemaE@Base 0.5.3
 (optional=templinst)_ZNK5capnp6OrphanINS_11DynamicListEE9getReaderEv@Base 0.5.3
 (optional=templinst)_ZNK5capnp6OrphanINS_12DynamicValueEE9getReaderEv@Base 0.5.3
 (optional=templinst)_ZNK5capnp6OrphanINS_13DynamicStructEE9getReaderEv@Base 0.5.3
 (optional=templinst)_ZNK5capnp6OrphanINS_17DynamicCapabilityEE9getReaderEv@Base 0.5.3
 _ZNK5capnp6Schema11asInterfaceEv@Base 0.5.3
 _ZNK5capnp6Schema13getDependencyEmj@Base 0.5.3
 _ZNK5capnp6Schema13interpretTypeENS_6schema4Type6ReaderEj@Base 0.5.3
 _ZNK5capnp6Schema15getBrandBindingEmj@Base 0.5.3
 _ZNK5capnp6Schema15getSchemaOffsetERKNS_6schema5Value6ReaderE@Base 0.5.3
 _ZNK5capnp6Schema15requireUsableAsEPKNS_1_9RawSchemaE@Base 0.5.3
 _ZNK5capnp6Schema17BrandArgumentListixEj@Base 0.5.3
 _ZNK5capnp6Schema18asUncheckedMessageEv@Base 0.5.3
 _ZNK5capnp6Schema19getShortDisplayNameEv@Base 0.5.3
 _ZNK5capnp6Schema24getBrandArgumentsAtScopeEm@Base 0.5.3
 _ZNK5capnp6Schema6asEnumEv@Base 0.5.3
 _ZNK5capnp6Schema7asConstEv@Base 0.5.3
 _ZNK5capnp6Schema8asStructEv@Base 0.5.3
 _ZNK5capnp6Schema8getProtoEv@Base 0.5.3
 (optional=templinst)_ZNK5capnp9Orphanage13newOrphanCopyINS_12DynamicValue6ReaderEEENS_6OrphanIN2kj6Decay_IT_E4Type5ReadsEEERKS7_@Base 0.5.3
 _ZNK5capnp9Orphanage9newOrphanENS_10ListSchemaEj@Base 0.5.3
 _ZNK5capnp9Orphanage9newOrphanENS_12StructSchemaE@Base 0.5.3
 (optional=templinst)_ZNSt10_HashtableIPKN5capnp1_9RawSchemaESt4pairIKS4_PNS1_16RawBrandedSchemaEESaIS9_ENSt8__detail10_Select1stESt8equal_toIS4_ESt4hashIS4_ENSB_18_Mod_range_hashingENSB_20_Default_ranged_hashENSB_20_Prime_rehash_policyENSB_17_Hashtable_traitsILb0ELb0ELb1EEEE21_M_insert_unique_nodeEmmPNSB_10_Hash_nodeIS9_Lb0EEE@Base 0.5.3
 (optional=templinst)_ZNSt10_HashtableIPKN5capnp1_9RawSchemaESt4pairIKS4_PNS1_16RawBrandedSchemaEESaIS9_ENSt8__detail10_Select1stESt8equal_toIS4_ESt4hashIS4_ENSB_18_Mod_range_hashingENSB_20_Default_ranged_hashENSB_20_Prime_rehash_policyENSB_17_Hashtable_traitsILb0ELb0ELb1EEEE9_M_rehashEmRKm@Base 0.5.3
 (optional=templinst)_ZNSt10_HashtableIjSt4pairIKjN2kj3OwnIN5capnp1_13SegmentReaderEEEESaIS8_ENSt8__detail10_Select1stESt8equal_toIjESt4hashIjENSA_18_Mod_range_hashingENSA_20_Default_ranged_hashENSA_20_Prime_rehash_policyENSA_17_Hashtable_traitsILb0ELb0ELb1EEEE21_M_insert_unique_nodeEmmPNSA_10_Hash_nodeIS8_Lb0EEE@Base 0.5.3
 (optional=templinst)_ZNSt10_HashtableImSt4pairIKmN5capnp12SchemaLoader4Impl12RequiredSizeEESaIS6_ENSt8__detail10_Select1stESt8equal_toImESt4hashImENS8_18_Mod_range_hashingENS8_20_Default_ranged_hashENS8_20_Prime_rehash_policyENS8_17_Hashtable_traitsILb0ELb0ELb1EEEE21_M_insert_unique_nodeEmmPNS8_10_Hash_nodeIS6_Lb0EEE@Base 0.5.3
 (optional=templinst)_ZNSt10_HashtableImSt4pairIKmN5capnp12SchemaLoader4Impl12RequiredSizeEESaIS6_ENSt8__detail10_Select1stESt8equal_toImESt4hashImENS8_18_Mod_range_hashingENS8_20_Default_ranged_hashENS8_20_Prime_rehash_policyENS8_17_Hashtable_traitsILb0ELb0ELb1EEEE4findERS1_@Base 0.5.3
 (optional=templinst)_ZNSt10_HashtableImSt4pairIKmN5capnp12SchemaLoader4Impl12RequiredSizeEESaIS6_ENSt8__detail10_Select1stESt8equal_toImESt4hashImENS8_18_Mod_range_hashingENS8_20_Default_ranged_hashENS8_20_Prime_rehash_policyENS8_17_Hashtable_traitsILb0ELb0ELb1EEEE9_M_rehashEmRS1_@Base 0.5.3
 (optional=templinst)_ZNSt10_HashtableImSt4pairIKmPN5capnp1_9RawSchemaEESaIS6_ENSt8__detail10_Select1stESt8equal_toImESt4hashImENS8_18_Mod_range_hashingENS8_20_Default_ranged_hashENS8_20_Prime_rehash_policyENS8_17_Hashtable_traitsILb0ELb0ELb1EEEE21_M_insert_unique_nodeEmmPNS8_10_Hash_nodeIS6_Lb0EEE@Base 0.5.3
 (optional=templinst)_ZNSt10_HashtableImSt4pairIKmPN5capnp1_9RawSchemaEESaIS6_ENSt8__detail10_Select1stESt8equal_toImESt4hashImENS8_18_Mod_range_hashingENS8_20_Default_ranged_hashENS8_20_Prime_rehash_policyENS8_17_Hashtable_traitsILb0ELb0ELb1EEEE9_M_rehashEmRS1_@Base 0.5.3
 (optional=templinst)_ZNSt6vectorIPvSaIS0_EE19_M_emplace_back_auxIIRKS0_EEEvDpOT_@Base 0.5.3
 (optional=templinst)_ZNSt6vectorIPvSaIS0_EE19_M_emplace_back_auxIJRKS0_EEEvDpOT_@Base 0.5.3
 (optional=templinst)_ZNSt8_Rb_treeIN5capnp4Text6ReaderESt4pairIKS2_jESt10_Select1stIS5_ESt4lessIS2_ESaIS5_EE8_M_eraseEPSt13_Rb_tree_nodeIS5_E@Base 0.5.3
 (optional=templinst)_ZNSt8_Rb_treeImSt4pairIKmPN5capnp1_9RawSchemaEESt10_Select1stIS6_ESt4lessImESaIS6_EE16_M_insert_uniqueIS0_ImS5_EEES0_ISt17_Rb_tree_iteratorIS6_EbEOT_@Base 0.5.3
 (optional=templinst)_ZNSt8_Rb_treeImSt4pairIKmPN5capnp1_9RawSchemaEESt10_Select1stIS6_ESt4lessImESaIS6_EE8_M_eraseEPSt13_Rb_tree_nodeIS6_E@Base 0.5.3
 (optional=templinst)_ZNSt8__detail16_Hashtable_allocISaINS_10_Hash_nodeISt4pairIKjN2kj3OwnIN5capnp1_13SegmentReaderEEEELb0EEEEE18_M_deallocate_nodeEPSB_@Base 0.5.3
 (optional=templinst)_ZNSt8__detail9_Map_baseIPKN5capnp1_9RawSchemaESt4pairIKS5_PNS2_16RawBrandedSchemaEESaISA_ENS_10_Select1stESt8equal_toIS5_ESt4hashIS5_ENS_18_Mod_range_hashingENS_20_Default_ranged_hashENS_20_Prime_rehash_policyENS_17_Hashtable_traitsILb0ELb0ELb1EEELb1EEixERS7_@Base 0.5.3
 (optional=templinst)_ZNSt8__detail9_Map_baseImSt4pairIKmPN5capnp1_9RawSchemaEESaIS7_ENS_10_Select1stESt8equal_toImESt4hashImENS_18_Mod_range_hashingENS_20_Default_ranged_hashENS_20_Prime_rehash_policyENS_17_Hashtable_traitsILb0ELb0ELb1EEELb1EEixERS2_@Base 0.5.3
 (optional=templinst)_ZSt13__adjust_heapIPmlmN9__gnu_cxx5__ops15_Iter_less_iterEEvT_T0_S5_T1_T2_@Base 0.5.3
 _ZTIN2kj1_12HeapDisposerIN5capnp12SchemaLoader4ImplEEE@Base 0.5.3
 _ZTIN2kj1_12HeapDisposerIN5capnp1_12BuilderArena17MultiSegmentStateEEE@Base 0.5.3
 _ZTIN2kj1_12HeapDisposerIN5capnp1_13SegmentReaderEEE@Base 0.5.3
 _ZTIN2kj1_12HeapDisposerIN5capnp1_14SegmentBuilderEEE@Base 0.5.3
 _ZTIN2kj1_12HeapDisposerIN5capnp20MallocMessageBuilder12MoreSegmentsEEE@Base 0.5.3
 _ZTIN2kj1_12HeapDisposerISt13unordered_mapIjNS_3OwnIN5capnp1_13SegmentReaderEEESt4hashIjESt8equal_toIjESaISt4pairIKjS7_EEEEE@Base 0.5.3
 _ZTIN2kj1_5Debug11ContextImplIZN5capnp12SchemaLoader20CompatibilityChecker13shouldReplaceERKNS3_6schema4Node6ReaderESA_bEUlvE_EE@Base 0.5.3
 _ZTIN2kj1_5Debug11ContextImplIZN5capnp12SchemaLoader20CompatibilityChecker18checkCompatibilityERKNS3_6schema5Field6ReaderESA_EUlvE_EE@Base 0.5.3
 _ZTIN2kj1_5Debug11ContextImplIZN5capnp12SchemaLoader20CompatibilityChecker18checkCompatibilityERKNS3_6schema6Method6ReaderESA_EUlvE_EE@Base 0.5.3
 _ZTIN2kj1_5Debug11ContextImplIZN5capnp12SchemaLoader9Validator8validateERKNS3_6schema4Node6ReaderEEUlvE_EE@Base 0.5.3
 _ZTIN2kj1_5Debug11ContextImplIZN5capnp12SchemaLoader9Validator8validateERKNS3_6schema4Node6Struct6ReaderEmEUlvE_EE@Base 0.5.3
 _ZTIN2kj1_5Debug11ContextImplIZN5capnp12SchemaLoader9Validator8validateERKNS3_6schema4Node9Interface6ReaderEEUlvE_EE@Base 0.5.3
 _ZTIN2kj1_8RunnableE@Base 0.5.3
 _ZTIN2kj8DisposerE@Base 0.5.3
 _ZTIN5capnp12PipelineHookE@Base 0.5.3
 _ZTIN5capnp12SchemaLoader15InitializerImplE@Base 0.5.3
 _ZTIN5capnp12SchemaLoader22BrandedInitializerImplE@Base 0.5.3
 _ZTIN5capnp13MessageReaderE@Base 0.5.3
 _ZTIN5capnp14MessageBuilderE@Base 0.5.3
 _ZTIN5capnp18FlatMessageBuilderE@Base 0.5.3
 _ZTIN5capnp19PackedMessageReaderE@Base 0.5.3
 _ZTIN5capnp1_11ReaderArenaE@Base 0.5.3
 _ZTIN5capnp1_12BuilderArenaE@Base 0.5.3
 _ZTIN5capnp1_16RawBrandedSchema11InitializerE@Base 0.5.3
 _ZTIN5capnp1_17PackedInputStreamE@Base 0.5.3
 _ZTIN5capnp1_18PackedOutputStreamE@Base 0.5.3
 _ZTIN5capnp1_5ArenaE@Base 0.5.3
 _ZTIN5capnp1_9RawSchema11InitializerE@Base 0.5.3
 _ZTIN5capnp20MallocMessageBuilderE@Base 0.5.3
 _ZTIN5capnp21PackedFdMessageReaderE@Base 0.5.3
 _ZTIN5capnp21StreamFdMessageReaderE@Base 0.5.3
 _ZTIN5capnp22FlatArrayMessageReaderE@Base 0.5.3
 _ZTIN5capnp24InputStreamMessageReaderE@Base 0.5.3
 _ZTIN5capnp25SegmentArrayMessageReaderE@Base 0.5.3
 _ZTSN2kj1_12HeapDisposerIN5capnp12SchemaLoader4ImplEEE@Base 0.5.3
 _ZTSN2kj1_12HeapDisposerIN5capnp1_12BuilderArena17MultiSegmentStateEEE@Base 0.5.3
 _ZTSN2kj1_12HeapDisposerIN5capnp1_13SegmentReaderEEE@Base 0.5.3
 _ZTSN2kj1_12HeapDisposerIN5capnp1_14SegmentBuilderEEE@Base 0.5.3
 _ZTSN2kj1_12HeapDisposerIN5capnp20MallocMessageBuilder12MoreSegmentsEEE@Base 0.5.3
 _ZTSN2kj1_12HeapDisposerISt13unordered_mapIjNS_3OwnIN5capnp1_13SegmentReaderEEESt4hashIjESt8equal_toIjESaISt4pairIKjS7_EEEEE@Base 0.5.3
 _ZTSN2kj1_5Debug11ContextImplIZN5capnp12SchemaLoader20CompatibilityChecker13shouldReplaceERKNS3_6schema4Node6ReaderESA_bEUlvE_EE@Base 0.5.3
 _ZTSN2kj1_5Debug11ContextImplIZN5capnp12SchemaLoader20CompatibilityChecker18checkCompatibilityERKNS3_6schema5Field6ReaderESA_EUlvE_EE@Base 0.5.3
 _ZTSN2kj1_5Debug11ContextImplIZN5capnp12SchemaLoader20CompatibilityChecker18checkCompatibilityERKNS3_6schema6Method6ReaderESA_EUlvE_EE@Base 0.5.3
 _ZTSN2kj1_5Debug11ContextImplIZN5capnp12SchemaLoader9Validator8validateERKNS3_6schema4Node6ReaderEEUlvE_EE@Base 0.5.3
 _ZTSN2kj1_5Debug11ContextImplIZN5capnp12SchemaLoader9Validator8validateERKNS3_6schema4Node6Struct6ReaderEmEUlvE_EE@Base 0.5.3
 _ZTSN2kj1_5Debug11ContextImplIZN5capnp12SchemaLoader9Validator8validateERKNS3_6schema4Node9Interface6ReaderEEUlvE_EE@Base 0.5.3
 _ZTSN2kj1_8RunnableE@Base 0.5.3
 _ZTSN2kj8DisposerE@Base 0.5.3
 _ZTSN5capnp12PipelineHookE@Base 0.5.3
 _ZTSN5capnp12SchemaLoader15InitializerImplE@Base 0.5.3
 _ZTSN5capnp12SchemaLoader22BrandedInitializerImplE@Base 0.5.3
 _ZTSN5capnp13MessageReaderE@Base 0.5.3
 _ZTSN5capnp14MessageBuilderE@Base 0.5.3
 _ZTSN5capnp18FlatMessageBuilderE@Base 0.5.3
 _ZTSN5capnp19PackedMessageReaderE@Base 0.5.3
 _ZTSN5capnp1_11ReaderArenaE@Base 0.5.3
 _ZTSN5capnp1_12BuilderArenaE@Base 0.5.3
 _ZTSN5capnp1_16RawBrandedSchema11InitializerE@Base 0.5.3
 _ZTSN5capnp1_17PackedInputStreamE@Base 0.5.3
 _ZTSN5capnp1_18PackedOutputStreamE@Base 0.5.3
 _ZTSN5capnp1_5ArenaE@Base 0.5.3
 _ZTSN5capnp1_9RawSchema11InitializerE@Base 0.5.3
 _ZTSN5capnp20MallocMessageBuilderE@Base 0.5.3
 _ZTSN5capnp21PackedFdMessageReaderE@Base 0.5.3
 _ZTSN5capnp21StreamFdMessageReaderE@Base 0.5.3
 _ZTSN5capnp22FlatArrayMessageReaderE@Base 0.5.3
 _ZTSN5capnp24InputStreamMessageReaderE@Base 0.5.3
 _ZTSN5capnp25SegmentArrayMessageReaderE@Base 0.5.3
 _ZTVN2kj1_12HeapDisposerIN5capnp12SchemaLoader4ImplEEE@Base 0.5.3
 _ZTVN2kj1_12HeapDisposerIN5capnp1_12BuilderArena17MultiSegmentStateEEE@Base 0.5.3
 _ZTVN2kj1_12HeapDisposerIN5capnp1_13SegmentReaderEEE@Base 0.5.3
 _ZTVN2kj1_12HeapDisposerIN5capnp1_14SegmentBuilderEEE@Base 0.5.3
 _ZTVN2kj1_12HeapDisposerIN5capnp20MallocMessageBuilder12MoreSegmentsEEE@Base 0.5.3
 _ZTVN2kj1_12HeapDisposerISt13unordered_mapIjNS_3OwnIN5capnp1_13SegmentReaderEEESt4hashIjESt8equal_toIjESaISt4pairIKjS7_EEEEE@Base 0.5.3
 _ZTVN2kj1_5Debug11ContextImplIZN5capnp12SchemaLoader20CompatibilityChecker13shouldReplaceERKNS3_6schema4Node6ReaderESA_bEUlvE_EE@Base 0.5.3
 _ZTVN2kj1_5Debug11ContextImplIZN5capnp12SchemaLoader20CompatibilityChecker18checkCompatibilityERKNS3_6schema5Field6ReaderESA_EUlvE_EE@Base 0.5.3
 _ZTVN2kj1_5Debug11ContextImplIZN5capnp12SchemaLoader20CompatibilityChecker18checkCompatibilityERKNS3_6schema6Method6ReaderESA_EUlvE_EE@Base 0.5.3
 _ZTVN2kj1_5Debug11ContextImplIZN5capnp12SchemaLoader9Validator8validateERKNS3_6schema4Node6ReaderEEUlvE_EE@Base 0.5.3
 _ZTVN2kj1_5Debug11ContextImplIZN5capnp12SchemaLoader9Validator8validateERKNS3_6schema4Node6Struct6ReaderEmEUlvE_EE@Base 0.5.3
 _ZTVN2kj1_5Debug11ContextImplIZN5capnp12SchemaLoader9Validator8validateERKNS3_6schema4Node9Interface6ReaderEEUlvE_EE@Base 0.5.3
 _ZTVN5capnp12PipelineHookE@Base 0.5.3
 _ZTVN5capnp12SchemaLoader15InitializerImplE@Base 0.5.3
 _ZTVN5capnp12SchemaLoader22BrandedInitializerImplE@Base 0.5.3
 _ZTVN5capnp13MessageReaderE@Base 0.5.3
 _ZTVN5capnp14MessageBuilderE@Base 0.5.3
 _ZTVN5capnp18FlatMessageBuilderE@Base 0.5.3
 _ZTVN5capnp19PackedMessageReaderE@Base 0.5.3
 _ZTVN5capnp1_11ReaderArenaE@Base 0.5.3
 _ZTVN5capnp1_12BuilderArenaE@Base 0.5.3
 _ZTVN5capnp1_17PackedInputStreamE@Base 0.5.3
 _ZTVN5capnp1_18PackedOutputStreamE@Base 0.5.3
 _ZTVN5capnp1_5ArenaE@Base 0.5.3
 _ZTVN5capnp20MallocMessageBuilderE@Base 0.5.3
 _ZTVN5capnp21PackedFdMessageReaderE@Base 0.5.3
 _ZTVN5capnp21StreamFdMessageReaderE@Base 0.5.3
 _ZTVN5capnp22FlatArrayMessageReaderE@Base 0.5.3
 _ZTVN5capnp24InputStreamMessageReaderE@Base 0.5.3
 _ZTVN5capnp25SegmentArrayMessageReaderE@Base 0.5.3
 (c++)"non-virtual thunk to capnp::PackedFdMessageReader::~PackedFdMessageReader()@Base" 0.5.3
 (c++)"non-virtual thunk to capnp::PackedMessageReader::~PackedMessageReader()@Base" 0.5.3
 (c++)"non-virtual thunk to capnp::StreamFdMessageReader::~StreamFdMessageReader()@Base" 0.5.3
libcapnpc.so.2 libcapnp2 #MINVER#
 _ZN2kj10StringTree4fillIIEEEvPcmOS0_DpOT_@Base 0.5.3
 _ZN2kj10StringTree4fillIJEEEvPcmOS0_DpOT_@Base 0.5.3
 (optional=templinst)_ZN2kj10StringTree6concatIINS_10FixedArrayIcLm1EEENS_11CappedArrayIcLm26EEEEEES0_DpOT_@Base 0.5.3
 (optional=templinst)_ZN2kj10StringTree6concatIINS_10FixedArrayIcLm1EEENS_8ArrayPtrIKcEEEEES0_DpOT_@Base 0.5.3
 (optional=templinst)_ZN2kj10StringTree6concatIINS_10FixedArrayIcLm1EEENS_8ArrayPtrIKcEES3_EEES0_DpOT_@Base 0.5.3
 (optional=templinst)_ZN2kj10StringTree6concatIINS_11CappedArrayIcLm26EEEEEES0_DpOT_@Base 0.5.3
 (optional=templinst)_ZN2kj10StringTree6concatIINS_11CappedArrayIcLm32EEEEEES0_DpOT_@Base 0.5.3
 (optional=templinst)_ZN2kj10StringTree6concatIINS_8ArrayPtrIKcEEEEES0_DpOT_@Base 0.5.3
 (optional=templinst)_ZN2kj10StringTree6concatIINS_8ArrayPtrIKcEES0_EEES0_DpOT_@Base 0.5.3
 (optional=templinst)_ZN2kj10StringTree6concatIINS_8ArrayPtrIKcEES0_S4_EEES0_DpOT_@Base 0.5.3
 (optional=templinst)_ZN2kj10StringTree6concatIINS_8ArrayPtrIKcEES4_NS_10FixedArrayIcLm1EEEEEES0_DpOT_@Base 0.5.3
 (optional=templinst)_ZN2kj10StringTree6concatIINS_8ArrayPtrIKcEES4_S0_EEES0_DpOT_@Base 0.5.3
 (optional=templinst)_ZN2kj10StringTree6concatIIS0_NS_10FixedArrayIcLm1EEENS_8ArrayPtrIKcEEEEES0_DpOT_@Base 0.5.3
 (optional=templinst)_ZN2kj10StringTree6concatIIS0_NS_10FixedArrayIcLm1EEES0_S3_EEES0_DpOT_@Base 0.5.3
 (optional=templinst)_ZN2kj10StringTree6concatIJNS_10FixedArrayIcLm1EEENS_11CappedArrayIcLm26EEEEEES0_DpOT_@Base 0.5.3
 (optional=templinst)_ZN2kj10StringTree6concatIJNS_10FixedArrayIcLm1EEENS_8ArrayPtrIKcEEEEES0_DpOT_@Base 0.5.3
 (optional=templinst)_ZN2kj10StringTree6concatIJNS_10FixedArrayIcLm1EEENS_8ArrayPtrIKcEES3_EEES0_DpOT_@Base 0.5.3
 (optional=templinst)_ZN2kj10StringTree6concatIJNS_11CappedArrayIcLm26EEEEEES0_DpOT_@Base 0.5.3
 (optional=templinst)_ZN2kj10StringTree6concatIJNS_11CappedArrayIcLm32EEEEEES0_DpOT_@Base 0.5.3
 (optional=templinst)_ZN2kj10StringTree6concatIJNS_8ArrayPtrIKcEEEEES0_DpOT_@Base 0.5.3
 (optional=templinst)_ZN2kj10StringTree6concatIJNS_8ArrayPtrIKcEES0_EEES0_DpOT_@Base 0.5.3
 (optional=templinst)_ZN2kj10StringTree6concatIJNS_8ArrayPtrIKcEES0_S4_EEES0_DpOT_@Base 0.5.3
 (optional=templinst)_ZN2kj10StringTree6concatIJNS_8ArrayPtrIKcEES4_NS_10FixedArrayIcLm1EEEEEES0_DpOT_@Base 0.5.3
 (optional=templinst)_ZN2kj10StringTree6concatIJNS_8ArrayPtrIKcEES4_S0_EEES0_DpOT_@Base 0.5.3
 (optional=templinst)_ZN2kj10StringTree6concatIJS0_NS_10FixedArrayIcLm1EEENS_8ArrayPtrIKcEEEEES0_DpOT_@Base 0.5.3
 (optional=templinst)_ZN2kj10StringTree6concatIJS0_NS_10FixedArrayIcLm1EEES0_S3_EEES0_DpOT_@Base 0.5.3
 _ZN2kj10StringTreeD1Ev@Base 0.5.3
 _ZN2kj10StringTreeD2Ev@Base 0.5.3
 (optional=templinst)_ZN2kj10refcountedIN5capnp8compiler14NodeTranslator10BrandScopeEIRNS2_13ErrorReporterEmjRNS3_8ResolverEEEENS_3OwnIT_EEDpOT0_@Base 0.5.3
 (optional=templinst)_ZN2kj10refcountedIN5capnp8compiler14NodeTranslator10BrandScopeEJRNS2_13ErrorReporterEmjRNS3_8ResolverEEEENS_3OwnIT_EEDpOT0_@Base 0.5.3
 (optional=templinst)_ZN2kj12ArrayBuilderIN5capnp6OrphanINS1_6schema4NodeEEEE7disposeEv@Base 0.5.3
 (optional=templinst)_ZN2kj12ArrayBuilderIN5capnp6OrphanINS1_8compiler10ExpressionEEEE7disposeEv@Base 0.5.3
 (optional=templinst)_ZN2kj12ArrayBuilderIN5capnp6OrphanINS1_8compiler11Declaration21AnnotationApplicationEEEE7disposeEv@Base 0.5.3
 (optional=templinst)_ZN2kj12ArrayBuilderIN5capnp6OrphanINS1_8compiler11DeclarationEEEE7disposeEv@Base 0.5.3
 (optional=templinst)_ZN2kj12ArrayBuilderIN5capnp6OrphanINS1_8compiler5TokenEEEE7disposeEv@Base 0.5.3
 (optional=templinst)_ZN2kj12ArrayBuilderIN5capnp6OrphanINS1_8compiler9StatementEEEE7disposeEv@Base 0.5.3
 (optional=templinst)_ZN2kj12ArrayBuilderIN5capnp8compiler14NodeTranslator11BrandedDeclEE7disposeEv@Base 0.5.3
 (optional=templinst)_ZN2kj12ArrayBuilderIN5capnp8compiler14NodeTranslator12StructLayout5Group17DataLocationUsageEE7disposeEv@Base 0.5.3
 (optional=templinst)_ZN2kj12ArrayBuilderIN5capnp8compiler14NodeTranslator12StructLayout5Union12DataLocationEE7disposeEv@Base 0.5.3
 (optional=templinst)_ZN2kj12ArrayBuilderIN5capnp8compiler14NodeTranslator15UnfinishedValueEE7disposeEv@Base 0.5.3
 (optional=templinst)_ZN2kj12ArrayBuilderINS_10StringTreeEE7disposeEv@Base 0.5.3
 (optional=templinst)_ZN2kj12ArrayBuilderINS_5ArrayIN5capnp6OrphanINS2_8compiler5TokenEEEEEE7disposeEv@Base 0.5.3
 (optional=templinst)_ZN2kj12ArrayBuilderINS_6StringEE7disposeEv@Base 0.5.3
 (optional=templinst)_ZN2kj12ArrayBuilderIPN5capnp8compiler14NodeTranslator10BrandScopeEE7disposeEv@Base 0.5.3
 (optional=templinst)_ZN2kj12ArrayBuilderIPN5capnp8compiler14NodeTranslator16StructTranslator10MemberInfoEE7disposeEv@Base 0.5.3
 (optional=templinst)_ZN2kj12ArrayBuilderIcE7disposeEv@Base 0.5.3
 (optional=templinst)_ZN2kj12ArrayBuilderIhE7disposeEv@Base 0.5.3
 (optional=templinst)_ZN2kj12ArrayBuilderIjE7disposeEv@Base 0.5.3
 (optional=templinst)_ZN2kj12MutexGuardedINS_3OwnIN5capnp8compiler8Compiler4ImplEEEED1Ev@Base 0.5.3
 (optional=templinst)_ZN2kj12MutexGuardedINS_3OwnIN5capnp8compiler8Compiler4ImplEEEED2Ev@Base 0.5.3
 (optional=templinst)_ZN2kj13ArrayDisposer8Dispose_IN5capnp6OrphanINS2_6schema4NodeEEELb0EE8destructEPv@Base 0.5.3
 (optional=templinst)_ZN2kj13ArrayDisposer8Dispose_IN5capnp6OrphanINS2_8compiler10ExpressionEEELb0EE8destructEPv@Base 0.5.3
 (optional=templinst)_ZN2kj13ArrayDisposer8Dispose_IN5capnp6OrphanINS2_8compiler11Declaration21AnnotationApplicationEEELb0EE8destructEPv@Base 0.5.3
 (optional=templinst)_ZN2kj13ArrayDisposer8Dispose_IN5capnp6OrphanINS2_8compiler11DeclarationEEELb0EE8destructEPv@Base 0.5.3
 (optional=templinst)_ZN2kj13ArrayDisposer8Dispose_IN5capnp6OrphanINS2_8compiler5TokenEEELb0EE8destructEPv@Base 0.5.3
 (optional=templinst)_ZN2kj13ArrayDisposer8Dispose_IN5capnp6OrphanINS2_8compiler9StatementEEELb0EE8destructEPv@Base 0.5.3
 (optional=templinst)_ZN2kj13ArrayDisposer8Dispose_IN5capnp8compiler14NodeTranslator11BrandedDeclELb0EE8destructEPv@Base 0.5.3
 (optional=templinst)_ZN2kj13ArrayDisposer8Dispose_INS_10StringTree6BranchELb0EE8destructEPv@Base 0.5.3
 (optional=templinst)_ZN2kj13ArrayDisposer8Dispose_INS_10StringTreeELb0EE8destructEPv@Base 0.5.3
 (optional=templinst)_ZN2kj13ArrayDisposer8Dispose_INS_5ArrayIN5capnp6OrphanINS3_8compiler5TokenEEEEELb0EE8destructEPv@Base 0.5.3
 (optional=templinst)_ZN2kj13ArrayDisposer8Dispose_INS_5MaybeIN5capnp6OrphanINS3_8compiler10Expression5ParamEEEEELb0EE8destructEPv@Base 0.5.3
 (optional=templinst)_ZN2kj13ArrayDisposer8Dispose_INS_5MaybeIN5capnp6OrphanINS3_8compiler10ExpressionEEEEELb0EE8destructEPv@Base 0.5.3
 (optional=templinst)_ZN2kj13ArrayDisposer8Dispose_INS_5MaybeIN5capnp6OrphanINS3_8compiler11Declaration5ParamEEEEELb0EE8destructEPv@Base 0.5.3
 (optional=templinst)_ZN2kj13ArrayDisposer8Dispose_INS_6StringELb0EE8destructEPv@Base 0.5.3
 _ZN2kj1_12HeapDisposerIN5capnp10SchemaFile14DiskSchemaFileEE8instanceE@Base 0.5.3
 _ZN2kj1_12HeapDisposerIN5capnp12SchemaParser10ModuleImplEE8instanceE@Base 0.5.3
 _ZN2kj1_12HeapDisposerIN5capnp12SchemaParser4ImplEE8instanceE@Base 0.5.3
 _ZN2kj1_12HeapDisposerIN5capnp8compiler8Compiler14CompiledModuleEE8instanceE@Base 0.5.3
 _ZN2kj1_12HeapDisposerIN5capnp8compiler8Compiler4ImplEE8instanceE@Base 0.5.3
 (optional=templinst)_ZN2kj1_13NullableValueIN5capnp6OrphanINS2_8compiler10ExpressionEEEEC1EOS6_@Base 0.5.3
 (optional=templinst)_ZN2kj1_13NullableValueIN5capnp6OrphanINS2_8compiler10ExpressionEEEEC2EOS6_@Base 0.5.3
 (optional=templinst)_ZN2kj1_13NullableValueIN5capnp6OrphanINS2_8compiler5TokenEEEEC1EOS6_@Base 0.5.3
 (optional=templinst)_ZN2kj1_13NullableValueIN5capnp6OrphanINS2_8compiler5TokenEEEEC2EOS6_@Base 0.5.3
 (optional=templinst)_ZN2kj1_17HeapArrayDisposer9Allocate_INS_10StringTree6BranchELb0ELb0EE8destructEPv@Base 0.5.3
 (optional=templinst)_ZN2kj1_17HeapArrayDisposer9Allocate_INS_10StringTree6BranchELb0ELb0EE9constructEPv@Base 0.5.3
 (optional=templinst)_ZN2kj1_17HeapArrayDisposer9Allocate_INS_5MaybeIN5capnp6OrphanINS4_8compiler10Expression5ParamEEEEELb0ELb0EE8destructEPv@Base 0.5.3
 (optional=templinst)_ZN2kj1_17HeapArrayDisposer9Allocate_INS_5MaybeIN5capnp6OrphanINS4_8compiler10Expression5ParamEEEEELb0ELb0EE9constructEPv@Base 0.5.3
 (optional=templinst)_ZN2kj1_17HeapArrayDisposer9Allocate_INS_5MaybeIN5capnp6OrphanINS4_8compiler10ExpressionEEEEELb0ELb0EE8destructEPv@Base 0.5.3
 (optional=templinst)_ZN2kj1_17HeapArrayDisposer9Allocate_INS_5MaybeIN5capnp6OrphanINS4_8compiler10ExpressionEEEEELb0ELb0EE9constructEPv@Base 0.5.3
 (optional=templinst)_ZN2kj1_17HeapArrayDisposer9Allocate_INS_5MaybeIN5capnp6OrphanINS4_8compiler11Declaration5ParamEEEEELb0ELb0EE8destructEPv@Base 0.5.3
 (optional=templinst)_ZN2kj1_17HeapArrayDisposer9Allocate_INS_5MaybeIN5capnp6OrphanINS4_8compiler11Declaration5ParamEEEEELb0ELb0EE9constructEPv@Base 0.5.3
 (optional=templinst)_ZN2kj1_4fillINS_8ArrayPtrIKcEEINS_11CappedArrayIcLm14EEES4_EEEPcS7_RKT_DpOT0_@Base 0.5.3
 (optional=templinst)_ZN2kj1_4fillINS_8ArrayPtrIKcEEIS4_S4_EEEPcS5_RKT_DpOT0_@Base 0.5.3
 (optional=templinst)_ZN2kj1_4fillINS_8ArrayPtrIKcEEIS4_S4_S4_S4_EEEPcS5_RKT_DpOT0_@Base 0.5.3
 (optional=templinst)_ZN2kj1_4fillINS_8ArrayPtrIKcEEJNS_11CappedArrayIcLm14EEES4_EEEPcS7_RKT_DpOT0_@Base 0.5.3
 (optional=templinst)_ZN2kj1_4fillINS_8ArrayPtrIKcEEJS4_S4_EEEPcS5_RKT_DpOT0_@Base 0.5.3
 (optional=templinst)_ZN2kj1_4fillINS_8ArrayPtrIKcEEJS4_S4_S4_S4_EEEPcS5_RKT_DpOT0_@Base 0.5.3
 (optional=templinst)_ZN2kj1_5Debug5FaultC1IIRA13_KcEEEPS4_iiS7_S7_DpOT_@Base 0.5.3
 (optional=templinst)_ZN2kj1_5Debug5FaultC1IIRA16_KcjEEEPS4_iNS_9Exception4TypeES7_S7_DpOT_@Base 0.5.3
 (optional=templinst)_ZN2kj1_5Debug5FaultC1IIRA22_KcEEEPS4_iNS_9Exception4TypeES7_S7_DpOT_@Base 0.5.3
 (optional=templinst)_ZN2kj1_5Debug5FaultC1IIRA24_KcEEEPS4_iNS_9Exception4TypeES7_S7_DpOT_@Base 0.5.3
 (optional=templinst)_ZN2kj1_5Debug5FaultC1IIRA25_KcRN5capnp8compiler11Declaration6ReaderEEEEPS4_iNS_9Exception4TypeESC_SC_DpOT_@Base 0.5.3
 (optional=templinst)_ZN2kj1_5Debug5FaultC1IIRA27_KcN5capnp4Text6ReaderERNS_9StringPtrEEEEPS4_iNS_9Exception4TypeESC_SC_DpOT_@Base 0.5.3
 (optional=templinst)_ZN2kj1_5Debug5FaultC1IIRA28_KcEEEPS4_iNS_9Exception4TypeES7_S7_DpOT_@Base 0.5.3
 (optional=templinst)_ZN2kj1_5Debug5FaultC1IIRA29_KcEEEPS4_iNS_9Exception4TypeES7_S7_DpOT_@Base 0.5.3
 (optional=templinst)_ZN2kj1_5Debug5FaultC1IIRA32_KcEEEPS4_iNS_9Exception4TypeES7_S7_DpOT_@Base 0.5.3
 (optional=templinst)_ZN2kj1_5Debug5FaultC1IIRA35_KcRlEEEPS4_iNS_9Exception4TypeES8_S8_DpOT_@Base 0.5.3
 (optional=templinst)_ZN2kj1_5Debug5FaultC1IIRA36_KcRmEEEPS4_iNS_9Exception4TypeES8_S8_DpOT_@Base 0.5.3
 (optional=templinst)_ZN2kj1_5Debug5FaultC1IIRA38_KcEEEPS4_iNS_9Exception4TypeES7_S7_DpOT_@Base 0.5.3
 (optional=templinst)_ZN2kj1_5Debug5FaultC1IIRA39_KcEEEPS4_iNS_9Exception4TypeES7_S7_DpOT_@Base 0.5.3
 (optional=templinst)_ZN2kj1_5Debug5FaultC1IIRA39_KcRmEEEPS4_iNS_9Exception4TypeES8_S8_DpOT_@Base 0.5.3
 (optional=templinst)_ZN2kj1_5Debug5FaultC1IIRA45_KcEEEPS4_iNS_9Exception4TypeES7_S7_DpOT_@Base 0.5.3
 (optional=templinst)_ZN2kj1_5Debug5FaultC1IIRA48_KcEEEPS4_iNS_9Exception4TypeES7_S7_DpOT_@Base 0.5.3
 (optional=templinst)_ZN2kj1_5Debug5FaultC1IIRA49_KcEEEPS4_iNS_9Exception4TypeES7_S7_DpOT_@Base 0.5.3
 (optional=templinst)_ZN2kj1_5Debug5FaultC1IIRA49_KcRmEEEPS4_iNS_9Exception4TypeES8_S8_DpOT_@Base 0.5.3
 (optional=templinst)_ZN2kj1_5Debug5FaultC1IIRA51_KcEEEPS4_iNS_9Exception4TypeES7_S7_DpOT_@Base 0.5.3
 (optional=templinst)_ZN2kj1_5Debug5FaultC1IIRA55_KcEEEPS4_iNS_9Exception4TypeES7_S7_DpOT_@Base 0.5.3
 (optional=templinst)_ZN2kj1_5Debug5FaultC1IIRA55_KcjEEEPS4_iNS_9Exception4TypeES7_S7_DpOT_@Base 0.5.3
 (optional=templinst)_ZN2kj1_5Debug5FaultC1IIRNS_9StringPtrEEEEPKciiS7_S7_DpOT_@Base 0.5.3
 (optional=templinst)_ZN2kj1_5Debug5FaultC1IJRA13_KcEEEPS4_iiS7_S7_DpOT_@Base 0.5.3
 (optional=templinst)_ZN2kj1_5Debug5FaultC1IJRA16_KcjEEEPS4_iNS_9Exception4TypeES7_S7_DpOT_@Base 0.5.3
 (optional=templinst)_ZN2kj1_5Debug5FaultC1IJRA22_KcEEEPS4_iNS_9Exception4TypeES7_S7_DpOT_@Base 0.5.3
 (optional=templinst)_ZN2kj1_5Debug5FaultC1IJRA24_KcEEEPS4_iNS_9Exception4TypeES7_S7_DpOT_@Base 0.5.3
 (optional=templinst)_ZN2kj1_5Debug5FaultC1IJRA25_KcRN5capnp8compiler11Declaration6ReaderEEEEPS4_iNS_9Exception4TypeESC_SC_DpOT_@Base 0.5.3
 (optional=templinst)_ZN2kj1_5Debug5FaultC1IJRA27_KcN5capnp4Text6ReaderERNS_9StringPtrEEEEPS4_iNS_9Exception4TypeESC_SC_DpOT_@Base 0.5.3
 (optional=templinst)_ZN2kj1_5Debug5FaultC1IJRA28_KcEEEPS4_iNS_9Exception4TypeES7_S7_DpOT_@Base 0.5.3
 (optional=templinst)_ZN2kj1_5Debug5FaultC1IJRA29_KcEEEPS4_iNS_9Exception4TypeES7_S7_DpOT_@Base 0.5.3
 (optional=templinst)_ZN2kj1_5Debug5FaultC1IJRA32_KcEEEPS4_iNS_9Exception4TypeES7_S7_DpOT_@Base 0.5.3
 (optional=templinst)_ZN2kj1_5Debug5FaultC1IJRA35_KcRlEEEPS4_iNS_9Exception4TypeES8_S8_DpOT_@Base 0.5.3
 (optional=templinst)_ZN2kj1_5Debug5FaultC1IJRA36_KcRmEEEPS4_iNS_9Exception4TypeES8_S8_DpOT_@Base 0.5.3
 (optional=templinst)_ZN2kj1_5Debug5FaultC1IJRA38_KcEEEPS4_iNS_9Exception4TypeES7_S7_DpOT_@Base 0.5.3
 (optional=templinst)_ZN2kj1_5Debug5FaultC1IJRA39_KcEEEPS4_iNS_9Exception4TypeES7_S7_DpOT_@Base 0.5.3
 (optional=templinst)_ZN2kj1_5Debug5FaultC1IJRA39_KcRmEEEPS4_iNS_9Exception4TypeES8_S8_DpOT_@Base 0.5.3
 (optional=templinst)_ZN2kj1_5Debug5FaultC1IJRA45_KcEEEPS4_iNS_9Exception4TypeES7_S7_DpOT_@Base 0.5.3
 (optional=templinst)_ZN2kj1_5Debug5FaultC1IJRA48_KcEEEPS4_iNS_9Exception4TypeES7_S7_DpOT_@Base 0.5.3
 (optional=templinst)_ZN2kj1_5Debug5FaultC1IJRA49_KcEEEPS4_iNS_9Exception4TypeES7_S7_DpOT_@Base 0.5.3
 (optional=templinst)_ZN2kj1_5Debug5FaultC1IJRA49_KcRmEEEPS4_iNS_9Exception4TypeES8_S8_DpOT_@Base 0.5.3
 (optional=templinst)_ZN2kj1_5Debug5FaultC1IJRA51_KcEEEPS4_iNS_9Exception4TypeES7_S7_DpOT_@Base 0.5.3
 (optional=templinst)_ZN2kj1_5Debug5FaultC1IJRA55_KcEEEPS4_iNS_9Exception4TypeES7_S7_DpOT_@Base 0.5.3
 (optional=templinst)_ZN2kj1_5Debug5FaultC1IJRA55_KcjEEEPS4_iNS_9Exception4TypeES7_S7_DpOT_@Base 0.5.3
 (optional=templinst)_ZN2kj1_5Debug5FaultC1IJRNS_9StringPtrEEEEPKciiS7_S7_DpOT_@Base 0.5.3
 (optional=templinst)_ZN2kj1_5Debug5FaultC2IIRA13_KcEEEPS4_iiS7_S7_DpOT_@Base 0.5.3
 (optional=templinst)_ZN2kj1_5Debug5FaultC2IIRA16_KcjEEEPS4_iNS_9Exception4TypeES7_S7_DpOT_@Base 0.5.3
 (optional=templinst)_ZN2kj1_5Debug5FaultC2IIRA25_KcRN5capnp8compiler11Declaration6ReaderEEEEPS4_iNS_9Exception4TypeESC_SC_DpOT_@Base 0.5.3
 (optional=templinst)_ZN2kj1_5Debug5FaultC2IIRA27_KcN5capnp4Text6ReaderERNS_9StringPtrEEEEPS4_iNS_9Exception4TypeESC_SC_DpOT_@Base 0.5.3
 (optional=templinst)_ZN2kj1_5Debug5FaultC2IIRA29_KcEEEPS4_iNS_9Exception4TypeES7_S7_DpOT_@Base 0.5.3
 (optional=templinst)_ZN2kj1_5Debug5FaultC2IIRA35_KcRlEEEPS4_iNS_9Exception4TypeES8_S8_DpOT_@Base 0.5.3
 (optional=templinst)_ZN2kj1_5Debug5FaultC2IIRA36_KcRmEEEPS4_iNS_9Exception4TypeES8_S8_DpOT_@Base 0.5.3
 (optional=templinst)_ZN2kj1_5Debug5FaultC2IIRA51_KcEEEPS4_iNS_9Exception4TypeES7_S7_DpOT_@Base 0.5.3
 (optional=templinst)_ZN2kj1_5Debug5FaultC2IIRA55_KcEEEPS4_iNS_9Exception4TypeES7_S7_DpOT_@Base 0.5.3
 (optional=templinst)_ZN2kj1_5Debug5FaultC2IIRA55_KcjEEEPS4_iNS_9Exception4TypeES7_S7_DpOT_@Base 0.5.3
 (optional=templinst)_ZN2kj1_5Debug5FaultC2IIRNS_9StringPtrEEEEPKciiS7_S7_DpOT_@Base 0.5.3
 (optional=templinst)_ZN2kj1_5Debug5FaultC2IJRA13_KcEEEPS4_iiS7_S7_DpOT_@Base 0.5.3
 (optional=templinst)_ZN2kj1_5Debug5FaultC2IJRA16_KcjEEEPS4_iNS_9Exception4TypeES7_S7_DpOT_@Base 0.5.3
 (optional=templinst)_ZN2kj1_5Debug5FaultC2IJRA22_KcEEEPS4_iNS_9Exception4TypeES7_S7_DpOT_@Base 0.5.3
 (optional=templinst)_ZN2kj1_5Debug5FaultC2IJRA24_KcEEEPS4_iNS_9Exception4TypeES7_S7_DpOT_@Base 0.5.3
 (optional=templinst)_ZN2kj1_5Debug5FaultC2IJRA25_KcRN5capnp8compiler11Declaration6ReaderEEEEPS4_iNS_9Exception4TypeESC_SC_DpOT_@Base 0.5.3
 (optional=templinst)_ZN2kj1_5Debug5FaultC2IJRA27_KcN5capnp4Text6ReaderERNS_9StringPtrEEEEPS4_iNS_9Exception4TypeESC_SC_DpOT_@Base 0.5.3
 (optional=templinst)_ZN2kj1_5Debug5FaultC2IJRA28_KcEEEPS4_iNS_9Exception4TypeES7_S7_DpOT_@Base 0.5.3
 (optional=templinst)_ZN2kj1_5Debug5FaultC2IJRA29_KcEEEPS4_iNS_9Exception4TypeES7_S7_DpOT_@Base 0.5.3
 (optional=templinst)_ZN2kj1_5Debug5FaultC2IJRA32_KcEEEPS4_iNS_9Exception4TypeES7_S7_DpOT_@Base 0.5.3
 (optional=templinst)_ZN2kj1_5Debug5FaultC2IJRA35_KcRlEEEPS4_iNS_9Exception4TypeES8_S8_DpOT_@Base 0.5.3
 (optional=templinst)_ZN2kj1_5Debug5FaultC2IJRA36_KcRmEEEPS4_iNS_9Exception4TypeES8_S8_DpOT_@Base 0.5.3
 (optional=templinst)_ZN2kj1_5Debug5FaultC2IJRA38_KcEEEPS4_iNS_9Exception4TypeES7_S7_DpOT_@Base 0.5.3
 (optional=templinst)_ZN2kj1_5Debug5FaultC2IJRA39_KcEEEPS4_iNS_9Exception4TypeES7_S7_DpOT_@Base 0.5.3
 (optional=templinst)_ZN2kj1_5Debug5FaultC2IJRA39_KcRmEEEPS4_iNS_9Exception4TypeES8_S8_DpOT_@Base 0.5.3
 (optional=templinst)_ZN2kj1_5Debug5FaultC2IJRA45_KcEEEPS4_iNS_9Exception4TypeES7_S7_DpOT_@Base 0.5.3
 (optional=templinst)_ZN2kj1_5Debug5FaultC2IJRA48_KcEEEPS4_iNS_9Exception4TypeES7_S7_DpOT_@Base 0.5.3
 (optional=templinst)_ZN2kj1_5Debug5FaultC2IJRA49_KcEEEPS4_iNS_9Exception4TypeES7_S7_DpOT_@Base 0.5.3
 (optional=templinst)_ZN2kj1_5Debug5FaultC2IJRA49_KcRmEEEPS4_iNS_9Exception4TypeES8_S8_DpOT_@Base 0.5.3
 (optional=templinst)_ZN2kj1_5Debug5FaultC2IJRA51_KcEEEPS4_iNS_9Exception4TypeES7_S7_DpOT_@Base 0.5.3
 (optional=templinst)_ZN2kj1_5Debug5FaultC2IJRA55_KcEEEPS4_iNS_9Exception4TypeES7_S7_DpOT_@Base 0.5.3
 (optional=templinst)_ZN2kj1_5Debug5FaultC2IJRA55_KcjEEEPS4_iNS_9Exception4TypeES7_S7_DpOT_@Base 0.5.3
 (optional=templinst)_ZN2kj1_5Debug5FaultC2IJRNS_9StringPtrEEEEPKciiS7_S7_DpOT_@Base 0.5.3
 (optional=templinst)_ZN2kj1_6concatIINS_8ArrayPtrIKcEEEEENS_6StringEDpOT_@Base 0.5.3
 (optional=templinst)_ZN2kj1_6concatIINS_8ArrayPtrIKcEENS_10FixedArrayIcLm1EEES4_EEENS_6StringEDpOT_@Base 0.5.3
 (optional=templinst)_ZN2kj1_6concatIINS_8ArrayPtrIKcEES4_EEENS_6StringEDpOT_@Base 0.5.3
 (optional=templinst)_ZN2kj1_6concatIINS_8ArrayPtrIKcEES4_S4_EEENS_6StringEDpOT_@Base 0.5.3
 (optional=templinst)_ZN2kj1_6concatIJNS_8ArrayPtrIKcEEEEENS_6StringEDpOT_@Base 0.5.3
 (optional=templinst)_ZN2kj1_6concatIJNS_8ArrayPtrIKcEENS_10FixedArrayIcLm1EEES4_EEENS_6StringEDpOT_@Base 0.5.3
 (optional=templinst)_ZN2kj1_6concatIJNS_8ArrayPtrIKcEES4_EEENS_6StringEDpOT_@Base 0.5.3
 (optional=templinst)_ZN2kj1_6concatIJNS_8ArrayPtrIKcEES4_S4_EEENS_6StringEDpOT_@Base 0.5.3
 (optional=templinst)_ZN2kj1_9TupleImplINS0_7IndexesIILm0ELm1EEEEIN5capnp6OrphanINS4_8compiler10ExpressionEEENS_5ArrayIS8_EEEED1Ev@Base 0.5.3
 (optional=templinst)_ZN2kj1_9TupleImplINS0_7IndexesIILm0ELm1EEEEIN5capnp6OrphanINS4_8compiler10ExpressionEEENS_5ArrayIS8_EEEED2Ev@Base 0.5.3
 (optional=templinst)_ZN2kj1_9TupleImplINS0_7IndexesIILm0ELm1EEEEINS_5ArrayIN5capnp6OrphanINS5_8compiler5TokenEEEEENS4_ISA_EEEED1Ev@Base 0.5.3
 (optional=templinst)_ZN2kj1_9TupleImplINS0_7IndexesIILm0ELm1EEEEINS_5ArrayIN5capnp6OrphanINS5_8compiler5TokenEEEEENS4_ISA_EEEED2Ev@Base 0.5.3
 (optional=templinst)_ZN2kj1_9TupleImplINS0_7IndexesIILm0ELm1EEEEINS_5ArrayIN5capnp6OrphanINS5_8compiler5TokenEEEEENS6_INS7_9StatementEEEEED1Ev@Base 0.5.3
 (optional=templinst)_ZN2kj1_9TupleImplINS0_7IndexesIILm0ELm1EEEEINS_5ArrayIN5capnp6OrphanINS5_8compiler5TokenEEEEENS6_INS7_9StatementEEEEED2Ev@Base 0.5.3
 (optional=templinst)_ZN2kj1_9TupleImplINS0_7IndexesIILm0ELm1ELm2EEEEINS_5ArrayIcEENS_5MaybeIS5_EENS6_INS0_5TupleIINS6_IcEES5_EEEEEEED1Ev@Base 0.5.3
 (optional=templinst)_ZN2kj1_9TupleImplINS0_7IndexesIILm0ELm1ELm2EEEEINS_5ArrayIcEENS_5MaybeIS5_EENS6_INS0_5TupleIINS6_IcEES5_EEEEEEED2Ev@Base 0.5.3
 (optional=templinst)_ZN2kj1_9TupleImplINS0_7IndexesIILm0ELm1ELm2EEEEINS_5MaybeINS_5ArrayINS_6StringEEEEENS5_IN5capnp6OrphanINS9_8compiler9StatementEEEEES8_EED1Ev@Base 0.5.3
 (optional=templinst)_ZN2kj1_9TupleImplINS0_7IndexesIILm0ELm1ELm2EEEEINS_5MaybeINS_5ArrayINS_6StringEEEEENS5_IN5capnp6OrphanINS9_8compiler9StatementEEEEES8_EED2Ev@Base 0.5.3
 (optional=templinst)_ZN2kj1_9TupleImplINS0_7IndexesIJLm0ELm1EEEEJN5capnp6OrphanINS4_8compiler10ExpressionEEENS_5ArrayIS8_EEEED1Ev@Base 0.5.3
 (optional=templinst)_ZN2kj1_9TupleImplINS0_7IndexesIJLm0ELm1EEEEJN5capnp6OrphanINS4_8compiler10ExpressionEEENS_5ArrayIS8_EEEED2Ev@Base 0.5.3
 (optional=templinst)_ZN2kj1_9TupleImplINS0_7IndexesIJLm0ELm1EEEEJNS_5ArrayIN5capnp6OrphanINS5_8compiler5TokenEEEEENS4_ISA_EEEED1Ev@Base 0.5.3
 (optional=templinst)_ZN2kj1_9TupleImplINS0_7IndexesIJLm0ELm1EEEEJNS_5ArrayIN5capnp6OrphanINS5_8compiler5TokenEEEEENS4_ISA_EEEED2Ev@Base 0.5.3
 (optional=templinst)_ZN2kj1_9TupleImplINS0_7IndexesIJLm0ELm1EEEEJNS_5ArrayIN5capnp6OrphanINS5_8compiler5TokenEEEEENS6_INS7_9StatementEEEEED1Ev@Base 0.5.3
 (optional=templinst)_ZN2kj1_9TupleImplINS0_7IndexesIJLm0ELm1EEEEJNS_5ArrayIN5capnp6OrphanINS5_8compiler5TokenEEEEENS6_INS7_9StatementEEEEED2Ev@Base 0.5.3
 (optional=templinst)_ZN2kj1_9TupleImplINS0_7IndexesIJLm0ELm1ELm2EEEEJNS_5ArrayIcEENS_5MaybeIS5_EENS6_INS0_5TupleIJNS6_IcEES5_EEEEEEED1Ev@Base 0.5.3
 (optional=templinst)_ZN2kj1_9TupleImplINS0_7IndexesIJLm0ELm1ELm2EEEEJNS_5ArrayIcEENS_5MaybeIS5_EENS6_INS0_5TupleIJNS6_IcEES5_EEEEEEED2Ev@Base 0.5.3
 (optional=templinst)_ZN2kj1_9TupleImplINS0_7IndexesIJLm0ELm1ELm2EEEEJNS_5MaybeINS_5ArrayINS_6StringEEEEENS5_IN5capnp6OrphanINS9_8compiler9StatementEEEEES8_EED1Ev@Base 0.5.3
 (optional=templinst)_ZN2kj1_9TupleImplINS0_7IndexesIJLm0ELm1ELm2EEEEJNS_5MaybeINS_5ArrayINS_6StringEEEEENS5_IN5capnp6OrphanINS9_8compiler9StatementEEEEES8_EED2Ev@Base 0.5.3
 _ZN2kj22DestructorOnlyDisposerIN5capnp8compiler8Compiler4NodeEE8instanceE@Base 0.5.3
 _ZN2kj22DestructorOnlyDisposerIN5capnp8compiler8Compiler5AliasEE8instanceE@Base 0.5.3
 _ZN2kj22DestructorOnlyDisposerINS_6VectorIjEEE8instanceE@Base 0.5.3
 (optional=templinst)_ZN2kj3OwnIN5capnp8compiler14NodeTranslator10BrandScopeEEaSEOS5_@Base 0.5.3
 (optional=templinst)_ZN2kj3strIIN5capnp4Text6ReaderEcRNS_6StringEEEES4_DpOT_@Base 0.5.3
 (optional=templinst)_ZN2kj3strIIRA10_KcmRA23_S1_EEENS_6StringEDpOT_@Base 0.5.3
 (optional=templinst)_ZN2kj3strIIRA13_KcEEENS_6StringEDpOT_@Base 0.5.3
 (optional=templinst)_ZN2kj3strIIRA16_KcEEENS_6StringEDpOT_@Base 0.5.3
 (optional=templinst)_ZN2kj3strIIRA16_KcN5capnp4Text6ReaderEEEENS_6StringEDpOT_@Base 0.5.3
 (optional=templinst)_ZN2kj3strIIRA28_KcN5capnp4Text6ReaderERA3_S1_EEENS_6StringEDpOT_@Base 0.5.3
 (optional=templinst)_ZN2kj3strIIRA2_KcNS_6StringERA20_S1_EEES4_DpOT_@Base 0.5.3
 (optional=templinst)_ZN2kj3strIIRA36_KcEEENS_6StringEDpOT_@Base 0.5.3
 (optional=templinst)_ZN2kj3strIIRA39_KcEEENS_6StringEDpOT_@Base 0.5.3
 (optional=templinst)_ZN2kj3strIIRA57_KcRNS_9ExceptionEEEENS_6StringEDpOT_@Base 0.5.3
 (optional=templinst)_ZN2kj3strIIRA6_KcRmRA3_S1_jS6_EEENS_6StringEDpOT_@Base 0.5.3
 (optional=templinst)_ZN2kj3strIIRA71_KcNS_6StringERA9_S1_RNS_9StringPtrERA2_S1_S8_RA32_S1_EEES4_DpOT_@Base 0.5.3
 (optional=templinst)_ZN2kj3strIIRA7_KcNS_11CappedArrayIcLm17EEERA23_S1_EEENS_6StringEDpOT_@Base 0.5.3
 (optional=templinst)_ZN2kj3strIIRA91_KcNS_11CappedArrayIcLm17EEERA2_S1_EEENS_6StringEDpOT_@Base 0.5.3
 (optional=templinst)_ZN2kj3strIIRNS_9StringPtrEPKcEEENS_6StringEDpOT_@Base 0.5.3
 (optional=templinst)_ZN2kj3strIIRmEEENS_6StringEDpOT_@Base 0.5.3
 (optional=templinst)_ZN2kj3strIJN5capnp4Text6ReaderEcRNS_6StringEEEES4_DpOT_@Base 0.5.3
 (optional=templinst)_ZN2kj3strIJRA10_KcmRA23_S1_EEENS_6StringEDpOT_@Base 0.5.3
 (optional=templinst)_ZN2kj3strIJRA13_KcEEENS_6StringEDpOT_@Base 0.5.3
 (optional=templinst)_ZN2kj3strIJRA16_KcEEENS_6StringEDpOT_@Base 0.5.3
 (optional=templinst)_ZN2kj3strIJRA16_KcN5capnp4Text6ReaderEEEENS_6StringEDpOT_@Base 0.5.3
 (optional=templinst)_ZN2kj3strIJRA28_KcN5capnp4Text6ReaderERA3_S1_EEENS_6StringEDpOT_@Base 0.5.3
 (optional=templinst)_ZN2kj3strIJRA2_KcNS_6StringERA20_S1_EEES4_DpOT_@Base 0.5.3
 (optional=templinst)_ZN2kj3strIJRA36_KcEEENS_6StringEDpOT_@Base 0.5.3
 (optional=templinst)_ZN2kj3strIJRA39_KcEEENS_6StringEDpOT_@Base 0.5.3
 (optional=templinst)_ZN2kj3strIJRA57_KcRNS_9ExceptionEEEENS_6StringEDpOT_@Base 0.5.3
 (optional=templinst)_ZN2kj3strIJRA6_KcRmRA3_S1_jS6_EEENS_6StringEDpOT_@Base 0.5.3
 (optional=templinst)_ZN2kj3strIJRA71_KcNS_6StringERA9_S1_RNS_9StringPtrERA2_S1_S8_RA32_S1_EEES4_DpOT_@Base 0.5.3
 (optional=templinst)_ZN2kj3strIJRA7_KcNS_11CappedArrayIcLm17EEERA23_S1_EEENS_6StringEDpOT_@Base 0.5.3
 (optional=templinst)_ZN2kj3strIJRA91_KcNS_11CappedArrayIcLm17EEERA2_S1_EEENS_6StringEDpOT_@Base 0.5.3
 (optional=templinst)_ZN2kj3strIJRNS_9StringPtrEPKcEEENS_6StringEDpOT_@Base 0.5.3
 (optional=templinst)_ZN2kj3strIJRmEEENS_6StringEDpOT_@Base 0.5.3
 (optional=templinst)_ZN2kj4LazyINS_6VectorIjEEE8InitImplIZN5capnp12SchemaParser10ModuleImpl11loadContentENS5_9OrphanageEEUlRNS_8SpaceForIS2_EEE_E3runEv@Base 0.5.3
 (optional=templinst)_ZN2kj4LazyINS_6VectorIjEEE8InitImplIZN5capnp12SchemaParser10ModuleImpl8addErrorEjjNS_9StringPtrEEUlRNS_8SpaceForIS2_EEE_E3runEv@Base 0.5.3
 (optional=templinst)_ZN2kj4ctorIN5capnp8compiler14NodeTranslator11BrandedDeclEIS4_EEEvRT_DpOT0_@Base 0.5.3
 (optional=templinst)_ZN2kj4ctorIN5capnp8compiler14NodeTranslator11BrandedDeclEJS4_EEEvRT_DpOT0_@Base 0.5.3
 (optional=templinst)_ZN2kj4ctorINS_1_5TupleIINS_5MaybeIN5capnp6OrphanINS4_8compiler14LocatedIntegerEEEEEbbEEEISA_EEEvRT_DpOT0_@Base 0.5.3
 (optional=templinst)_ZN2kj4ctorINS_1_5TupleIJNS_5MaybeIN5capnp6OrphanINS4_8compiler14LocatedIntegerEEEEEbbEEEJSA_EEEvRT_DpOT0_@Base 0.5.3
 (optional=templinst)_ZN2kj4heapIN5capnp10SchemaFile14DiskSchemaFileEIRKNS2_10FileReaderENS_6StringES7_RNS_8ArrayPtrIKNS_9StringPtrEEEEEENS_3OwnIT_EEDpOT0_@Base 0.5.3
 (optional=templinst)_ZN2kj4heapIN5capnp10SchemaFile14DiskSchemaFileEJRKNS2_10FileReaderENS_6StringES7_RNS_8ArrayPtrIKNS_9StringPtrEEEEEENS_3OwnIT_EEDpOT0_@Base 0.5.3
 (optional=templinst)_ZN2kj5Arena13destroyObjectIN5capnp8compiler14NodeTranslator12StructLayout5GroupEEEvPv@Base 0.5.3
 (optional=templinst)_ZN2kj5Arena13destroyObjectIN5capnp8compiler14NodeTranslator12StructLayout5UnionEEEvPv@Base 0.5.3
 (optional=templinst)_ZN2kj5Arena13destroyObjectIN5capnp8compiler14NodeTranslator16StructTranslator10MemberInfoEEEvPv@Base 0.5.3
 (optional=templinst)_ZN2kj5Arena13destroyObjectIN5capnp8compiler14NodeTranslatorEEEvPv@Base 0.5.3
 (optional=templinst)_ZN2kj5Arena8allocateIN5capnp8compiler14NodeTranslator12StructLayout5GroupEIRNS5_5UnionEEEERT_DpOT0_@Base 0.5.3
 (optional=templinst)_ZN2kj5Arena8allocateIN5capnp8compiler14NodeTranslator12StructLayout5GroupEJRNS5_5UnionEEEERT_DpOT0_@Base 0.5.3
 (optional=templinst)_ZN2kj5Arena8allocateIN5capnp8compiler14NodeTranslator16StructTranslator10MemberInfoEIRS6_jRNS3_11Declaration6ReaderENS2_6schema4Node7BuilderEbEEERT_DpOT0_@Base 0.5.3
 (optional=templinst)_ZN2kj5Arena8allocateIN5capnp8compiler14NodeTranslator16StructTranslator10MemberInfoEJRS6_jRNS3_11Declaration6ReaderENS2_6schema4Node7BuilderEbEEERT_DpOT0_@Base 0.5.3
 (optional=templinst)_ZN2kj5ArrayINS_10StringTree6BranchEEaSEOS3_@Base 0.5.3
 (optional=templinst)_ZN2kj5ArrayIcEaSEOS1_@Base 0.5.3
 _ZN2kj5OneOfIIN5capnp8compiler14NodeTranslator8Resolver12ResolvedDeclENS4_17ResolvedParameterEEE4initIS5_IS5_EEEvDpOT0_@Base 0.5.3
 (optional=templinst)_ZN2kj5OneOfIIN5capnp8compiler14NodeTranslator8Resolver12ResolvedDeclENS4_17ResolvedParameterEEE8copyFromERKS7_@Base 0.5.3
 (optional=templinst)_ZN2kj5OneOfIJN5capnp8compiler14NodeTranslator8Resolver12ResolvedDeclENS4_17ResolvedParameterEEE4initIS5_JS5_EEEvDpOT0_@Base 0.5.3
 (optional=templinst)_ZN2kj5OneOfIJN5capnp8compiler14NodeTranslator8Resolver12ResolvedDeclENS4_17ResolvedParameterEEE8copyFromERKS7_@Base 0.5.3
 (optional=templinst)_ZN2kj5parse5Many_INS0_10Transform_INS0_9Sequence_IIRKNS0_12ConstResult_INS1_INS4_INS0_10CharGroup_ENS_1_5TupleIIEEEEELb0EEES8_EERKS5_SF_EEENS0_1_12ParseHexByteEEELb1EE4ImplIN5capnp8compiler5Lexer11ParserInputEhE5applyERKSJ_RSP_@Base 0.5.3
 (optional=templinst)_ZN2kj5parse5Many_INS0_10Transform_INS0_9Sequence_IJRKNS0_12ConstResult_INS1_INS4_INS0_10CharGroup_ENS_1_5TupleIJEEEEELb0EEES8_EERKS5_SF_EEENS0_1_12ParseHexByteEEELb1EE4ImplIN5capnp8compiler5Lexer11ParserInputEhE5applyERKSJ_RSP_@Base 0.5.3
 (optional=templinst)_ZN2kj5parse5Many_INS0_12ConstResult_INS0_10CharGroup_ENS_1_5TupleIIEEEEELb0EE4ImplIN5capnp8compiler5Lexer11ParserInputES6_E5applyERKS7_RSD_@Base 0.5.3
 (optional=templinst)_ZN2kj5parse5Many_INS0_12ConstResult_INS0_10CharGroup_ENS_1_5TupleIJEEEEELb0EE4ImplIN5capnp8compiler5Lexer11ParserInputES6_E5applyERKS7_RSD_@Base 0.5.3
 (optional=templinst)_ZN2kj5parse5Many_INS0_6OneOf_IINS0_10CharGroup_ERKNS0_9Sequence_IINS0_13ExactlyConst_IcLc92EEENS2_IINS0_10Transform_IS3_NS0_1_15InterpretEscapeEEENS7_INS4_IINS5_IcLc120EEERKS3_SD_EEENS8_14ParseHexEscapeEEENS7_INS4_IISD_NS0_9Optional_ISD_EESI_EEENS8_14ParseOctEscapeEEEEEEEEEEEELb0EE4ImplIN5capnp8compiler5Lexer11ParserInputEcE5applyERKSQ_RSW_@Base 0.5.3
 (optional=templinst)_ZN2kj5parse5Many_INS0_6OneOf_IJNS0_10CharGroup_ERKNS0_9Sequence_IJNS0_13ExactlyConst_IcLc92EEENS2_IJNS0_10Transform_IS3_NS0_1_15InterpretEscapeEEENS7_INS4_IJNS5_IcLc120EEERKS3_SD_EEENS8_14ParseHexEscapeEEENS7_INS4_IJSD_NS0_9Optional_ISD_EESI_EEENS8_14ParseOctEscapeEEEEEEEEEEEELb0EE4ImplIN5capnp8compiler5Lexer11ParserInputEcE5applyERKSQ_RSW_@Base 0.5.3
 (optional=templinst)_ZN2kj5parse5Many_INS0_9Sequence_IINS0_13ExactlyConst_IcLc44EEERNS0_9ParserRefIN5capnp8compiler5Lexer11ParserInputENS_5ArrayINS6_6OrphanINS7_5TokenEEEEEEEEEELb0EE4ImplIS9_SE_E5applyERKSH_RS9_@Base 0.5.3
 (optional=templinst)_ZN2kj5parse5Many_INS0_9Sequence_IIRKNS0_12ConstResult_INS1_INS3_INS0_10CharGroup_ENS_1_5TupleIIEEEEELb0EEES7_EERKNS2_IINS0_13ExactlyConst_IcLc35EEENS3_INS0_9Optional_INSD_IcLc32EEEEES7_EENS0_10Transform_INS1_IS4_Lb0EEENS0_1_13ArrayToStringEEENS0_6OneOf_IINSD_IcLc10EEERKNS0_11EndOfInput_EEEEEEEEEELb1EE4ImplIN5capnp8compiler5Lexer11ParserInputENS_6StringEE5applyERKSX_RS13_@Base 0.5.3
 (optional=templinst)_ZN2kj5parse5Many_INS0_9Sequence_IJNS0_13ExactlyConst_IcLc44EEERNS0_9ParserRefIN5capnp8compiler5Lexer11ParserInputENS_5ArrayINS6_6OrphanINS7_5TokenEEEEEEEEEELb0EE4ImplIS9_SE_E5applyERKSH_RS9_@Base 0.5.3
 (optional=templinst)_ZN2kj5parse5Many_INS0_9Sequence_IJRKNS0_12ConstResult_INS1_INS3_INS0_10CharGroup_ENS_1_5TupleIJEEEEELb0EEES7_EERKNS2_IJNS0_13ExactlyConst_IcLc35EEENS3_INS0_9Optional_INSD_IcLc32EEEEES7_EENS0_10Transform_INS1_IS4_Lb0EEENS0_1_13ArrayToStringEEENS0_6OneOf_IJNSD_IcLc10EEERKNS0_11EndOfInput_EEEEEEEEEELb1EE4ImplIN5capnp8compiler5Lexer11ParserInputENS_6StringEE5applyERKSX_RS13_@Base 0.5.3
 (optional=templinst)_ZN2kj5parse5Many_IRKNS0_10CharGroup_ELb0EE4ImplIN5capnp8compiler5Lexer11ParserInputEcE5applyES4_RSA_@Base 0.5.3
 (optional=templinst)_ZN2kj5parse5Many_IRKNS0_10CharGroup_ELb1EE4ImplIN5capnp8compiler5Lexer11ParserInputEcE5applyES4_RSA_@Base 0.5.3
 (optional=templinst)_ZN2kj5parse5Many_IRNS0_9ParserRefINS0_13IteratorInputIN5capnp8compiler5Token6ReaderENS4_1_16IndexingIteratorIKNS4_4ListIS6_LNS4_4KindE3EE6ReaderES7_EEEENS4_6OrphanINS5_11Declaration21AnnotationApplicationEEEEELb0EE4ImplISG_SK_E5applyESM_RSG_@Base 0.5.3
 (optional=templinst)_ZN2kj5parse9ParserRefIN5capnp8compiler5Lexer11ParserInputENS_1_5TupleIIEEEE19WrapperImplInstanceINS0_9Sequence_IIRKNSB_IIRKNS0_12ConstResult_INS0_5Many_INSC_INS0_10CharGroup_ES8_EELb0EEES8_EENSC_INSD_INSB_IIRKNSB_IINS0_13ExactlyConst_IcLcn17EEENSK_IcLcn69EEENSK_IcLcn65EEEEEESJ_EEELb0EEES8_EEEEENSC_INSD_INSB_IIRKNSB_IINSK_IcLc35EEESH_NS0_6OneOf_IINSK_IcLc10EEERKNS0_11EndOfInput_EEEEEEESW_EEELb0EEES8_EEEEEE8instanceE@Base 0.5.3
 (optional=templinst)_ZN2kj5parse9ParserRefIN5capnp8compiler5Lexer11ParserInputENS_1_5TupleIJEEEE19WrapperImplInstanceINS0_9Sequence_IJRKNSB_IJRKNS0_12ConstResult_INS0_5Many_INSC_INS0_10CharGroup_ES8_EELb0EEES8_EENSC_INSD_INSB_IJRKNSB_IJNS0_13ExactlyConst_IcLcn17EEENSK_IcLcn69EEENSK_IcLcn65EEEEEESJ_EEELb0EEES8_EEEEENSC_INSD_INSB_IJRKNSB_IJNSK_IcLc35EEESH_NS0_6OneOf_IJNSK_IcLc10EEERKNS0_11EndOfInput_EEEEEEESW_EEELb0EEES8_EEEEEE8instanceE@Base 0.5.3
 (optional=templinst)_ZN2kj5parse9ParserRefINS0_13IteratorInputIN5capnp8compiler5Token6ReaderENS3_1_16IndexingIteratorIKNS3_4ListIS5_LNS3_4KindE3EE6ReaderES6_EEEENS4_11CapnpParser16DeclParserResultEE19WrapperImplInstanceINS0_6OneOf_IIRSI_EEEE8instanceE@Base 0.5.3
 (optional=templinst)_ZN2kj5parse9ParserRefINS0_13IteratorInputIN5capnp8compiler5Token6ReaderENS3_1_16IndexingIteratorIKNS3_4ListIS5_LNS3_4KindE3EE6ReaderES6_EEEENS4_11CapnpParser16DeclParserResultEE19WrapperImplInstanceINS0_6OneOf_IIRSI_SL_EEEE8instanceE@Base 0.5.3
 (optional=templinst)_ZN2kj5parse9ParserRefINS0_13IteratorInputIN5capnp8compiler5Token6ReaderENS3_1_16IndexingIteratorIKNS3_4ListIS5_LNS3_4KindE3EE6ReaderES6_EEEENS4_11CapnpParser16DeclParserResultEE19WrapperImplInstanceINS0_6OneOf_IIRSI_SL_SL_SL_EEEE8instanceE@Base 0.5.3
 (optional=templinst)_ZN2kj5parse9ParserRefINS0_13IteratorInputIN5capnp8compiler5Token6ReaderENS3_1_16IndexingIteratorIKNS3_4ListIS5_LNS3_4KindE3EE6ReaderES6_EEEENS4_11CapnpParser16DeclParserResultEE19WrapperImplInstanceINS0_6OneOf_IIRSI_SL_SL_SL_SL_SL_EEEE8instanceE@Base 0.5.3
 (optional=templinst)_ZN2kj5parse9ParserRefINS0_13IteratorInputIN5capnp8compiler5Token6ReaderENS3_1_16IndexingIteratorIKNS3_4ListIS5_LNS3_4KindE3EE6ReaderES6_EEEENS4_11CapnpParser16DeclParserResultEE19WrapperImplInstanceINS0_6OneOf_IJRSI_EEEE8instanceE@Base 0.5.3
 (optional=templinst)_ZN2kj5parse9ParserRefINS0_13IteratorInputIN5capnp8compiler5Token6ReaderENS3_1_16IndexingIteratorIKNS3_4ListIS5_LNS3_4KindE3EE6ReaderES6_EEEENS4_11CapnpParser16DeclParserResultEE19WrapperImplInstanceINS0_6OneOf_IJRSI_SL_EEEE8instanceE@Base 0.5.3
 (optional=templinst)_ZN2kj5parse9ParserRefINS0_13IteratorInputIN5capnp8compiler5Token6ReaderENS3_1_16IndexingIteratorIKNS3_4ListIS5_LNS3_4KindE3EE6ReaderES6_EEEENS4_11CapnpParser16DeclParserResultEE19WrapperImplInstanceINS0_6OneOf_IJRSI_SL_SL_SL_EEEE8instanceE@Base 0.5.3
 (optional=templinst)_ZN2kj5parse9ParserRefINS0_13IteratorInputIN5capnp8compiler5Token6ReaderENS3_1_16IndexingIteratorIKNS3_4ListIS5_LNS3_4KindE3EE6ReaderES6_EEEENS4_11CapnpParser16DeclParserResultEE19WrapperImplInstanceINS0_6OneOf_IJRSI_SL_SL_SL_SL_SL_EEEE8instanceE@Base 0.5.3
 (optional=templinst)_ZN2kj6VectorIN5capnp6OrphanINS1_8compiler10ExpressionEEEE11setCapacityEm@Base 0.5.3
 (optional=templinst)_ZN2kj6VectorIN5capnp6OrphanINS1_8compiler11Declaration21AnnotationApplicationEEEE11setCapacityEm@Base 0.5.3
 (optional=templinst)_ZN2kj6VectorIN5capnp6OrphanINS1_8compiler11DeclarationEEEE11setCapacityEm@Base 0.5.3
 (optional=templinst)_ZN2kj6VectorIN5capnp6OrphanINS1_8compiler5TokenEEEE11setCapacityEm@Base 0.5.3
 (optional=templinst)_ZN2kj6VectorIN5capnp6OrphanINS1_8compiler9StatementEEEE11setCapacityEm@Base 0.5.3
 (optional=templinst)_ZN2kj6VectorINS_5ArrayIN5capnp6OrphanINS2_8compiler5TokenEEEEEE11setCapacityEm@Base 0.5.3
 (optional=templinst)_ZN2kj6VectorINS_6StringEE11setCapacityEm@Base 0.5.3
 (optional=templinst)_ZN2kj6VectorIPN5capnp8compiler14NodeTranslator10BrandScopeEE3addIIRS5_EEES8_DpOT_@Base 0.5.3
 (optional=templinst)_ZN2kj6VectorIPN5capnp8compiler14NodeTranslator10BrandScopeEE3addIJRS5_EEES8_DpOT_@Base 0.5.3
 (optional=templinst)_ZN2kj6VectorIPN5capnp8compiler14NodeTranslator16StructTranslator10MemberInfoEE3addIIRS6_EEES9_DpOT_@Base 0.5.3
 (optional=templinst)_ZN2kj6VectorIPN5capnp8compiler14NodeTranslator16StructTranslator10MemberInfoEE3addIJRS6_EEES9_DpOT_@Base 0.5.3
 (optional=templinst)_ZN2kj6VectorIcE11setCapacityEm@Base 0.5.3
 (optional=templinst)_ZN2kj6VectorIcE6addAllIPKcEEvT_S5_@Base 0.5.3
 (optional=templinst)_ZN2kj6VectorIhE11setCapacityEm@Base 0.5.3
 (optional=templinst)_ZN2kj7strTreeIIRA3_KcNS_10StringTreeES3_EEES4_DpOT_@Base 0.5.3
 (optional=templinst)_ZN2kj7strTreeIJRA3_KcNS_10StringTreeES3_EEES4_DpOT_@Base 0.5.3
 _ZN5capnp10SchemaFile11newDiskFileEN2kj9StringPtrES2_NS1_8ArrayPtrIKS2_EERKNS0_10FileReaderE@Base 0.5.3
 _ZN5capnp10SchemaFile14DiskFileReader8instanceE@Base 0.5.3
 _ZN5capnp12SchemaParser10ModuleImpl11loadContentENS_9OrphanageE@Base 0.5.3
 _ZN5capnp12SchemaParser10ModuleImpl13getSourceNameEv@Base 0.5.3
 _ZN5capnp12SchemaParser10ModuleImpl14importRelativeEN2kj9StringPtrE@Base 0.5.3
 _ZN5capnp12SchemaParser10ModuleImpl8addErrorEjjN2kj9StringPtrE@Base 0.5.3
 _ZN5capnp12SchemaParser10ModuleImpl9hadErrorsEv@Base 0.5.3
 _ZN5capnp12SchemaParser9getLoaderEv@Base 0.5.3
 _ZN5capnp12SchemaParserC1Ev@Base 0.5.3
 _ZN5capnp12SchemaParserC2Ev@Base 0.5.3
 _ZN5capnp12SchemaParserD1Ev@Base 0.5.3
 _ZN5capnp12SchemaParserD2Ev@Base 0.5.3
 (optional=templinst)_ZN5capnp1_13OrphanGetImplINS_6schema4NodeELNS_4KindE3EE5applyERNS0_13OrphanBuilderE@Base 0.5.3
 (optional=templinst)_ZN5capnp1_13OrphanGetImplINS_8compiler10ExpressionELNS_4KindE3EE11applyReaderERKNS0_13OrphanBuilderE@Base 0.5.3
 (optional=templinst)_ZN5capnp1_13OrphanGetImplINS_8compiler10ExpressionELNS_4KindE3EE5applyERNS0_13OrphanBuilderE@Base 0.5.3
 (optional=templinst)_ZN5capnp1_13OrphanGetImplINS_8compiler11DeclarationELNS_4KindE3EE5applyERNS0_13OrphanBuilderE@Base 0.5.3
 (optional=templinst)_ZN5capnp1_13OrphanGetImplINS_8compiler5TokenELNS_4KindE3EE5applyERNS0_13OrphanBuilderE@Base 0.5.3
 (optional=templinst)_ZN5capnp1_14PointerHelpersINS_4ListINS_6schema4Node9ParameterELNS_4KindE3EEELS6_6EE4initENS0_14PointerBuilderEj@Base 0.5.3
 (optional=templinst)_ZN5capnp1_14PointerHelpersINS_4ListINS_6schema5Brand5ScopeELNS_4KindE3EEELS6_6EE4initENS0_14PointerBuilderEj@Base 0.5.3
 (optional=templinst)_ZN5capnp1_14PointerHelpersINS_4ListINS_6schema5Brand7BindingELNS_4KindE3EEELS6_6EE4initENS0_14PointerBuilderEj@Base 0.5.3
 (optional=templinst)_ZN5capnp1_14PointerHelpersINS_4ListINS_8compiler11Declaration21AnnotationApplicationELNS_4KindE3EEELS6_6EE4initENS0_14PointerBuilderEj@Base 0.5.3
 (optional=templinst)_ZN5capnp1_14PointerHelpersINS_6schema4TypeELNS_4KindE3EE4initENS0_14PointerBuilderE@Base 0.5.3
 (optional=templinst)_ZN5capnp1_14PointerHelpersINS_6schema5BrandELNS_4KindE3EE4initENS0_14PointerBuilderE@Base 0.5.3
 (optional=templinst)_ZN5capnp1_14PointerHelpersINS_8compiler11LocatedTextELNS_4KindE3EE4initENS0_14PointerBuilderE@Base 0.5.3
 (optional=templinst)_ZN5capnp4ListINS_8compiler10Expression5ParamELNS_4KindE3EE7BuilderixEj@Base 0.5.3
 (optional=templinst)_ZN5capnp4ListINS_8compiler11Declaration21AnnotationApplicationELNS_4KindE3EE7Builder16adoptWithCaveatsEjONS_6OrphanIS3_EE@Base 0.5.3
 (optional=templinst)_ZN5capnp6OrphanINS_12DynamicValueEEC1EOS2_@Base 0.5.3
 (optional=templinst)_ZN5capnp6OrphanINS_12DynamicValueEEC1INS_4DataEEEONS0_IT_EE@Base 0.5.3
 (optional=templinst)_ZN5capnp6OrphanINS_12DynamicValueEEC2EOS2_@Base 0.5.3
 (optional=templinst)_ZN5capnp6OrphanINS_12DynamicValueEEC2INS_4DataEEEONS0_IT_EE@Base 0.5.3
 _ZN5capnp6schema4Node7Builder10initStructEv@Base 0.5.3
 _ZN5capnp7schemas18s_84e4f3f5a807605cE@Base 0.5.3
 _ZN5capnp7schemas18s_89f0c973c103ae96E@Base 0.5.3
 _ZN5capnp7schemas18s_8e207d4dfe54d0deE@Base 0.5.3
 _ZN5capnp7schemas18s_8f2622208fb358c8E@Base 0.5.3
 _ZN5capnp7schemas18s_90f2a60678fd2367E@Base 0.5.3
 _ZN5capnp7schemas18s_91cc55cd57de5419E@Base 0.5.3
 _ZN5capnp7schemas18s_94099c3f9eb32d6bE@Base 0.5.3
 _ZN5capnp7schemas18s_96efe787c17e83bbE@Base 0.5.3
 _ZN5capnp7schemas18s_991c7a3693d62cf2E@Base 0.5.3
 _ZN5capnp7schemas18s_992a90eaf30235d3E@Base 0.5.3
 _ZN5capnp7schemas18s_9cb9e86e3198037fE@Base 0.5.3
 _ZN5capnp7schemas18s_9e69a92512b19d18E@Base 0.5.3
 _ZN5capnp7schemas18s_a11f97b9d6c73dd4E@Base 0.5.3
 _ZN5capnp7schemas18s_aa28e1400d793359E@Base 0.5.3
 _ZN5capnp7schemas18s_aee8397040b0df7aE@Base 0.5.3
 _ZN5capnp7schemas18s_b348322a8dcf0d0cE@Base 0.5.3
 _ZN5capnp7schemas18s_b3f66e7a79d81bcdE@Base 0.5.3
 _ZN5capnp7schemas18s_c6238c7d62d65173E@Base 0.5.3
 _ZN5capnp7schemas18s_c6725e678d60fa37E@Base 0.5.3
 _ZN5capnp7schemas18s_c90246b71adedbaaE@Base 0.5.3
 _ZN5capnp7schemas18s_d00489d473826290E@Base 0.5.3
 _ZN5capnp7schemas18s_d0d1a21de617951fE@Base 0.5.3
 _ZN5capnp7schemas18s_d5e71144af1ce175E@Base 0.5.3
 _ZN5capnp7schemas18s_e5104515fd88ea47E@Base 0.5.3
 _ZN5capnp7schemas18s_e75816b56529d464E@Base 0.5.3
 _ZN5capnp7schemas18s_e93164a80bfe2ccfE@Base 0.5.3
 _ZN5capnp7schemas18s_eb971847d617c0b9E@Base 0.5.3
 _ZN5capnp7schemas18s_fb5aeed95cdf6af9E@Base 0.5.3
 _ZN5capnp7schemas18s_fffe08a9a697d2a5E@Base 0.5.3
 _ZN5capnp7schemas19bp_84e4f3f5a807605cE@Base 0.5.3
 _ZN5capnp7schemas19bp_89f0c973c103ae96E@Base 0.5.3
 _ZN5capnp7schemas19bp_8e207d4dfe54d0deE@Base 0.5.3
 _ZN5capnp7schemas19bp_8f2622208fb358c8E@Base 0.5.3
 _ZN5capnp7schemas19bp_90f2a60678fd2367E@Base 0.5.3
 _ZN5capnp7schemas19bp_91cc55cd57de5419E@Base 0.5.3
 _ZN5capnp7schemas19bp_94099c3f9eb32d6bE@Base 0.5.3
 _ZN5capnp7schemas19bp_96efe787c17e83bbE@Base 0.5.3
 _ZN5capnp7schemas19bp_991c7a3693d62cf2E@Base 0.5.3
 _ZN5capnp7schemas19bp_992a90eaf30235d3E@Base 0.5.3
 _ZN5capnp7schemas19bp_9cb9e86e3198037fE@Base 0.5.3
 _ZN5capnp7schemas19bp_9e69a92512b19d18E@Base 0.5.3
 _ZN5capnp7schemas19bp_a11f97b9d6c73dd4E@Base 0.5.3
 _ZN5capnp7schemas19bp_aa28e1400d793359E@Base 0.5.3
 _ZN5capnp7schemas19bp_aee8397040b0df7aE@Base 0.5.3
 _ZN5capnp7schemas19bp_b348322a8dcf0d0cE@Base 0.5.3
 _ZN5capnp7schemas19bp_b3f66e7a79d81bcdE@Base 0.5.3
 _ZN5capnp7schemas19bp_c6238c7d62d65173E@Base 0.5.3
 _ZN5capnp7schemas19bp_c6725e678d60fa37E@Base 0.5.3
 _ZN5capnp7schemas19bp_c90246b71adedbaaE@Base 0.5.3
 _ZN5capnp7schemas19bp_d00489d473826290E@Base 0.5.3
 _ZN5capnp7schemas19bp_d0d1a21de617951fE@Base 0.5.3
 _ZN5capnp7schemas19bp_d5e71144af1ce175E@Base 0.5.3
 _ZN5capnp7schemas19bp_e5104515fd88ea47E@Base 0.5.3
 _ZN5capnp7schemas19bp_e75816b56529d464E@Base 0.5.3
 _ZN5capnp7schemas19bp_e93164a80bfe2ccfE@Base 0.5.3
 _ZN5capnp7schemas19bp_eb971847d617c0b9E@Base 0.5.3
 _ZN5capnp7schemas19bp_fb5aeed95cdf6af9E@Base 0.5.3
 _ZN5capnp7schemas19bp_fffe08a9a697d2a5E@Base 0.5.3
 _ZN5capnp8compiler10Expression11Application13_capnpPrivate12dataWordSizeE@Base 0.5.3
 _ZN5capnp8compiler10Expression11Application13_capnpPrivate12pointerCountE@Base 0.5.3
 _ZN5capnp8compiler10Expression11Application13_capnpPrivate4kindE@Base 0.5.3
 _ZN5capnp8compiler10Expression11Application13_capnpPrivate5brandE@Base 0.5.3
 _ZN5capnp8compiler10Expression11Application13_capnpPrivate6schemaE@Base 0.5.3
 _ZN5capnp8compiler10Expression13_capnpPrivate12dataWordSizeE@Base 0.5.3
 _ZN5capnp8compiler10Expression13_capnpPrivate12pointerCountE@Base 0.5.3
 _ZN5capnp8compiler10Expression13_capnpPrivate4kindE@Base 0.5.3
 _ZN5capnp8compiler10Expression13_capnpPrivate5brandE@Base 0.5.3
 _ZN5capnp8compiler10Expression13_capnpPrivate6schemaE@Base 0.5.3
 _ZN5capnp8compiler10Expression5Param13_capnpPrivate12dataWordSizeE@Base 0.5.3
 _ZN5capnp8compiler10Expression5Param13_capnpPrivate12pointerCountE@Base 0.5.3
 _ZN5capnp8compiler10Expression5Param13_capnpPrivate4kindE@Base 0.5.3
 _ZN5capnp8compiler10Expression5Param13_capnpPrivate5brandE@Base 0.5.3
 _ZN5capnp8compiler10Expression5Param13_capnpPrivate6schemaE@Base 0.5.3
 _ZN5capnp8compiler10Expression6Member13_capnpPrivate12dataWordSizeE@Base 0.5.3
 _ZN5capnp8compiler10Expression6Member13_capnpPrivate12pointerCountE@Base 0.5.3
 _ZN5capnp8compiler10Expression6Member13_capnpPrivate4kindE@Base 0.5.3
 _ZN5capnp8compiler10Expression6Member13_capnpPrivate5brandE@Base 0.5.3
 _ZN5capnp8compiler10Expression6Member13_capnpPrivate6schemaE@Base 0.5.3
 _ZN5capnp8compiler10ParsedFile13_capnpPrivate12dataWordSizeE@Base 0.5.3
 _ZN5capnp8compiler10ParsedFile13_capnpPrivate12pointerCountE@Base 0.5.3
 _ZN5capnp8compiler10ParsedFile13_capnpPrivate4kindE@Base 0.5.3
 _ZN5capnp8compiler10ParsedFile13_capnpPrivate5brandE@Base 0.5.3
 _ZN5capnp8compiler10ParsedFile13_capnpPrivate6schemaE@Base 0.5.3
 _ZN5capnp8compiler11CapnpParser14parseStatementENS0_9Statement6ReaderERKN2kj5parse9ParserRefINS5_13IteratorInputINS0_5Token6ReaderENS_1_16IndexingIteratorIKNS_4ListIS8_LNS_4KindE3EE6ReaderES9_EEEENS1_16DeclParserResultEEE@Base 0.5.3
 _ZN5capnp8compiler11CapnpParser16DeclParserResultC1EOS2_@Base 0.5.3
 _ZN5capnp8compiler11CapnpParser16DeclParserResultC2EOS2_@Base 0.5.3
 _ZN5capnp8compiler11CapnpParserC1ENS_9OrphanageERNS0_13ErrorReporterE@Base 0.5.3
 _ZN5capnp8compiler11CapnpParserC2ENS_9OrphanageERNS0_13ErrorReporterE@Base 0.5.3
 _ZN5capnp8compiler11CapnpParserD1Ev@Base 0.5.3
 _ZN5capnp8compiler11CapnpParserD2Ev@Base 0.5.3
 _ZN5capnp8compiler11Declaration10Annotation13_capnpPrivate12dataWordSizeE@Base 0.5.3
 _ZN5capnp8compiler11Declaration10Annotation13_capnpPrivate12pointerCountE@Base 0.5.3
 _ZN5capnp8compiler11Declaration10Annotation13_capnpPrivate4kindE@Base 0.5.3
 _ZN5capnp8compiler11Declaration10Annotation13_capnpPrivate5brandE@Base 0.5.3
 _ZN5capnp8compiler11Declaration10Annotation13_capnpPrivate6schemaE@Base 0.5.3
 _ZN5capnp8compiler11Declaration13_capnpPrivate12dataWordSizeE@Base 0.5.3
 _ZN5capnp8compiler11Declaration13_capnpPrivate12pointerCountE@Base 0.5.3
 _ZN5capnp8compiler11Declaration13_capnpPrivate4kindE@Base 0.5.3
 _ZN5capnp8compiler11Declaration13_capnpPrivate5brandE@Base 0.5.3
 _ZN5capnp8compiler11Declaration13_capnpPrivate6schemaE@Base 0.5.3
 _ZN5capnp8compiler11Declaration14BrandParameter13_capnpPrivate12dataWordSizeE@Base 0.5.3
 _ZN5capnp8compiler11Declaration14BrandParameter13_capnpPrivate12pointerCountE@Base 0.5.3
 _ZN5capnp8compiler11Declaration14BrandParameter13_capnpPrivate4kindE@Base 0.5.3
 _ZN5capnp8compiler11Declaration14BrandParameter13_capnpPrivate5brandE@Base 0.5.3
 _ZN5capnp8compiler11Declaration14BrandParameter13_capnpPrivate6schemaE@Base 0.5.3
 _ZN5capnp8compiler11Declaration21AnnotationApplication13_capnpPrivate12dataWordSizeE@Base 0.5.3
 _ZN5capnp8compiler11Declaration21AnnotationApplication13_capnpPrivate12pointerCountE@Base 0.5.3
 _ZN5capnp8compiler11Declaration21AnnotationApplication13_capnpPrivate4kindE@Base 0.5.3
 _ZN5capnp8compiler11Declaration21AnnotationApplication13_capnpPrivate5brandE@Base 0.5.3
 _ZN5capnp8compiler11Declaration21AnnotationApplication13_capnpPrivate6schemaE@Base 0.5.3
 _ZN5capnp8compiler11Declaration21AnnotationApplication5Value13_capnpPrivate12dataWordSizeE@Base 0.5.3
 _ZN5capnp8compiler11Declaration21AnnotationApplication5Value13_capnpPrivate12pointerCountE@Base 0.5.3
 _ZN5capnp8compiler11Declaration21AnnotationApplication5Value13_capnpPrivate4kindE@Base 0.5.3
 _ZN5capnp8compiler11Declaration21AnnotationApplication5Value13_capnpPrivate5brandE@Base 0.5.3
 _ZN5capnp8compiler11Declaration21AnnotationApplication5Value13_capnpPrivate6schemaE@Base 0.5.3
 _ZN5capnp8compiler11Declaration2Id13_capnpPrivate12dataWordSizeE@Base 0.5.3
 _ZN5capnp8compiler11Declaration2Id13_capnpPrivate12pointerCountE@Base 0.5.3
 _ZN5capnp8compiler11Declaration2Id13_capnpPrivate4kindE@Base 0.5.3
 _ZN5capnp8compiler11Declaration2Id13_capnpPrivate5brandE@Base 0.5.3
 _ZN5capnp8compiler11Declaration2Id13_capnpPrivate6schemaE@Base 0.5.3
 _ZN5capnp8compiler11Declaration5Const13_capnpPrivate12dataWordSizeE@Base 0.5.3
 _ZN5capnp8compiler11Declaration5Const13_capnpPrivate12pointerCountE@Base 0.5.3
 _ZN5capnp8compiler11Declaration5Const13_capnpPrivate4kindE@Base 0.5.3
 _ZN5capnp8compiler11Declaration5Const13_capnpPrivate5brandE@Base 0.5.3
 _ZN5capnp8compiler11Declaration5Const13_capnpPrivate6schemaE@Base 0.5.3
 _ZN5capnp8compiler11Declaration5Field12DefaultValue13_capnpPrivate12dataWordSizeE@Base 0.5.3
 _ZN5capnp8compiler11Declaration5Field12DefaultValue13_capnpPrivate12pointerCountE@Base 0.5.3
 _ZN5capnp8compiler11Declaration5Field12DefaultValue13_capnpPrivate4kindE@Base 0.5.3
 _ZN5capnp8compiler11Declaration5Field12DefaultValue13_capnpPrivate5brandE@Base 0.5.3
 _ZN5capnp8compiler11Declaration5Field12DefaultValue13_capnpPrivate6schemaE@Base 0.5.3
 _ZN5capnp8compiler11Declaration5Field13_capnpPrivate12dataWordSizeE@Base 0.5.3
 _ZN5capnp8compiler11Declaration5Field13_capnpPrivate12pointerCountE@Base 0.5.3
 _ZN5capnp8compiler11Declaration5Field13_capnpPrivate4kindE@Base 0.5.3
 _ZN5capnp8compiler11Declaration5Field13_capnpPrivate5brandE@Base 0.5.3
 _ZN5capnp8compiler11Declaration5Field13_capnpPrivate6schemaE@Base 0.5.3
 _ZN5capnp8compiler11Declaration5Param12DefaultValue13_capnpPrivate12dataWordSizeE@Base 0.5.3
 _ZN5capnp8compiler11Declaration5Param12DefaultValue13_capnpPrivate12pointerCountE@Base 0.5.3
 _ZN5capnp8compiler11Declaration5Param12DefaultValue13_capnpPrivate4kindE@Base 0.5.3
 _ZN5capnp8compiler11Declaration5Param12DefaultValue13_capnpPrivate5brandE@Base 0.5.3
 _ZN5capnp8compiler11Declaration5Param12DefaultValue13_capnpPrivate6schemaE@Base 0.5.3
 _ZN5capnp8compiler11Declaration5Param13_capnpPrivate12dataWordSizeE@Base 0.5.3
 _ZN5capnp8compiler11Declaration5Param13_capnpPrivate12pointerCountE@Base 0.5.3
 _ZN5capnp8compiler11Declaration5Param13_capnpPrivate4kindE@Base 0.5.3
 _ZN5capnp8compiler11Declaration5Param13_capnpPrivate5brandE@Base 0.5.3
 _ZN5capnp8compiler11Declaration5Param13_capnpPrivate6schemaE@Base 0.5.3
 _ZN5capnp8compiler11Declaration5Using13_capnpPrivate12dataWordSizeE@Base 0.5.3
 _ZN5capnp8compiler11Declaration5Using13_capnpPrivate12pointerCountE@Base 0.5.3
 _ZN5capnp8compiler11Declaration5Using13_capnpPrivate4kindE@Base 0.5.3
 _ZN5capnp8compiler11Declaration5Using13_capnpPrivate5brandE@Base 0.5.3
 _ZN5capnp8compiler11Declaration5Using13_capnpPrivate6schemaE@Base 0.5.3
 _ZN5capnp8compiler11Declaration6Method13_capnpPrivate12dataWordSizeE@Base 0.5.3
 _ZN5capnp8compiler11Declaration6Method13_capnpPrivate12pointerCountE@Base 0.5.3
 _ZN5capnp8compiler11Declaration6Method13_capnpPrivate4kindE@Base 0.5.3
 _ZN5capnp8compiler11Declaration6Method13_capnpPrivate5brandE@Base 0.5.3
 _ZN5capnp8compiler11Declaration6Method13_capnpPrivate6schemaE@Base 0.5.3
 _ZN5capnp8compiler11Declaration6Method7Results13_capnpPrivate12dataWordSizeE@Base 0.5.3
 _ZN5capnp8compiler11Declaration6Method7Results13_capnpPrivate12pointerCountE@Base 0.5.3
 _ZN5capnp8compiler11Declaration6Method7Results13_capnpPrivate4kindE@Base 0.5.3
 _ZN5capnp8compiler11Declaration6Method7Results13_capnpPrivate5brandE@Base 0.5.3
 _ZN5capnp8compiler11Declaration6Method7Results13_capnpPrivate6schemaE@Base 0.5.3
 _ZN5capnp8compiler11Declaration9Interface13_capnpPrivate12dataWordSizeE@Base 0.5.3
 _ZN5capnp8compiler11Declaration9Interface13_capnpPrivate12pointerCountE@Base 0.5.3
 _ZN5capnp8compiler11Declaration9Interface13_capnpPrivate4kindE@Base 0.5.3
 _ZN5capnp8compiler11Declaration9Interface13_capnpPrivate5brandE@Base 0.5.3
 _ZN5capnp8compiler11Declaration9Interface13_capnpPrivate6schemaE@Base 0.5.3
 _ZN5capnp8compiler11Declaration9ParamList13_capnpPrivate12dataWordSizeE@Base 0.5.3
 _ZN5capnp8compiler11Declaration9ParamList13_capnpPrivate12pointerCountE@Base 0.5.3
 _ZN5capnp8compiler11Declaration9ParamList13_capnpPrivate4kindE@Base 0.5.3
 _ZN5capnp8compiler11Declaration9ParamList13_capnpPrivate5brandE@Base 0.5.3
 _ZN5capnp8compiler11Declaration9ParamList13_capnpPrivate6schemaE@Base 0.5.3
 _ZN5capnp8compiler11LexedTokens13_capnpPrivate12dataWordSizeE@Base 0.5.3
 _ZN5capnp8compiler11LexedTokens13_capnpPrivate12pointerCountE@Base 0.5.3
 _ZN5capnp8compiler11LexedTokens13_capnpPrivate4kindE@Base 0.5.3
 _ZN5capnp8compiler11LexedTokens13_capnpPrivate5brandE@Base 0.5.3
 _ZN5capnp8compiler11LexedTokens13_capnpPrivate6schemaE@Base 0.5.3
 _ZN5capnp8compiler11LocatedText13_capnpPrivate12dataWordSizeE@Base 0.5.3
 _ZN5capnp8compiler11LocatedText13_capnpPrivate12pointerCountE@Base 0.5.3
 _ZN5capnp8compiler11LocatedText13_capnpPrivate4kindE@Base 0.5.3
 _ZN5capnp8compiler11LocatedText13_capnpPrivate5brandE@Base 0.5.3
 _ZN5capnp8compiler11LocatedText13_capnpPrivate6schemaE@Base 0.5.3
 _ZN5capnp8compiler12LocatedFloat13_capnpPrivate12dataWordSizeE@Base 0.5.3
 _ZN5capnp8compiler12LocatedFloat13_capnpPrivate12pointerCountE@Base 0.5.3
 _ZN5capnp8compiler12LocatedFloat13_capnpPrivate4kindE@Base 0.5.3
 _ZN5capnp8compiler12LocatedFloat13_capnpPrivate5brandE@Base 0.5.3
 _ZN5capnp8compiler12LocatedFloat13_capnpPrivate6schemaE@Base 0.5.3
 _ZN5capnp8compiler14LineBreakTableC1EN2kj8ArrayPtrIKcEE@Base 0.5.3
 _ZN5capnp8compiler14LineBreakTableC2EN2kj8ArrayPtrIKcEE@Base 0.5.3
 _ZN5capnp8compiler14LocatedInteger13_capnpPrivate12dataWordSizeE@Base 0.5.3
 _ZN5capnp8compiler14LocatedInteger13_capnpPrivate12pointerCountE@Base 0.5.3
 _ZN5capnp8compiler14LocatedInteger13_capnpPrivate4kindE@Base 0.5.3
 _ZN5capnp8compiler14LocatedInteger13_capnpPrivate5brandE@Base 0.5.3
 _ZN5capnp8compiler14LocatedInteger13_capnpPrivate6schemaE@Base 0.5.3
 _ZN5capnp8compiler14NodeTranslator10BrandScope13decompileTypeERNS1_8ResolverENS_6schema4Type6ReaderE@Base 0.5.3
 _ZN5capnp8compiler14NodeTranslator10BrandScope13evaluateBrandERNS1_8ResolverENS3_12ResolvedDeclENS_4ListINS_6schema5Brand5ScopeELNS_4KindE3EE6ReaderEj@Base 0.5.3
 _ZN5capnp8compiler14NodeTranslator10BrandScope15lookupParameterERNS1_8ResolverEmj@Base 0.5.3
 _ZN5capnp8compiler14NodeTranslator10BrandScope16interpretResolveERNS1_8ResolverERN2kj5OneOfIINS3_12ResolvedDeclENS3_17ResolvedParameterEEEENS0_10Expression6ReaderE@Base 0.5.3
 _ZN5capnp8compiler14NodeTranslator10BrandScope16interpretResolveERNS1_8ResolverERN2kj5OneOfIJNS3_12ResolvedDeclENS3_17ResolvedParameterEEEENS0_10Expression6ReaderE@Base 0.5.3
 _ZN5capnp8compiler14NodeTranslator10BrandScope21compileDeclExpressionENS0_10Expression6ReaderERNS1_8ResolverENS1_14ImplicitParamsE@Base 0.5.3
 _ZN5capnp8compiler14NodeTranslator10BrandScope3popEm@Base 0.5.3
 _ZN5capnp8compiler14NodeTranslator10BrandScope4pushEmj@Base 0.5.3
 _ZN5capnp8compiler14NodeTranslator10BrandScope9getParamsEm@Base 0.5.3
 _ZN5capnp8compiler14NodeTranslator10BrandScope9setParamsEN2kj5ArrayINS1_11BrandedDeclEEENS0_11Declaration5WhichENS0_10Expression6ReaderE@Base 0.5.3
 _ZN5capnp8compiler14NodeTranslator10BrandScopeC1ERNS0_13ErrorReporterEmjRNS1_8ResolverE@Base 0.5.3
 _ZN5capnp8compiler14NodeTranslator10BrandScopeC2ERNS0_13ErrorReporterEmjRNS1_8ResolverE@Base 0.5.3
 _ZN5capnp8compiler14NodeTranslator10BrandScopeD0Ev@Base 0.5.3
 _ZN5capnp8compiler14NodeTranslator10BrandScopeD1Ev@Base 0.5.3
 _ZN5capnp8compiler14NodeTranslator10BrandScopeD2Ev@Base 0.5.3
 _ZN5capnp8compiler14NodeTranslator11BrandedDecl10asVariableEv@Base 0.5.3
 _ZN5capnp8compiler14NodeTranslator11BrandedDecl11applyParamsEN2kj5ArrayIS2_EENS0_10Expression6ReaderE@Base 0.5.3
 _ZN5capnp8compiler14NodeTranslator11BrandedDecl12getListParamEv@Base 0.5.3
 _ZN5capnp8compiler14NodeTranslator11BrandedDecl13compileAsTypeERNS0_13ErrorReporterENS_6schema4Type7BuilderE@Base 0.5.3
 _ZN5capnp8compiler14NodeTranslator11BrandedDecl13toDebugStringEv@Base 0.5.3
 _ZN5capnp8compiler14NodeTranslator11BrandedDecl15asResolveResultEmNS_6schema5Brand7BuilderE@Base 0.5.3
 _ZN5capnp8compiler14NodeTranslator11BrandedDecl7getKindEv@Base 0.5.3
 _ZN5capnp8compiler14NodeTranslator11BrandedDecl8addErrorERNS0_13ErrorReporterEN2kj9StringPtrE@Base 0.5.3
 _ZN5capnp8compiler14NodeTranslator11BrandedDecl8toStringEv@Base 0.5.3
 _ZN5capnp8compiler14NodeTranslator11BrandedDecl9getMemberEN2kj9StringPtrENS0_10Expression6ReaderE@Base 0.5.3
 _ZN5capnp8compiler14NodeTranslator11BrandedDeclC1ERS2_@Base 0.5.3
 _ZN5capnp8compiler14NodeTranslator11BrandedDeclC2ERS2_@Base 0.5.3
 _ZN5capnp8compiler14NodeTranslator11BrandedDeclD1Ev@Base 0.5.3
 _ZN5capnp8compiler14NodeTranslator11BrandedDeclD2Ev@Base 0.5.3
 _ZN5capnp8compiler14NodeTranslator11BrandedDeclaSERS2_@Base 0.5.3
 _ZN5capnp8compiler14NodeTranslator11compileDeclEmjRNS1_8ResolverERNS0_13ErrorReporterENS0_10Expression6ReaderENS_6schema5Brand7BuilderE@Base 0.5.3
 _ZN5capnp8compiler14NodeTranslator11compileEnumENS_4VoidENS_4ListINS0_11DeclarationELNS_4KindE3EE6ReaderENS_6schema4Node7BuilderE@Base 0.5.3
 _ZN5capnp8compiler14NodeTranslator11compileNodeENS0_11Declaration6ReaderENS_6schema4Node7BuilderE@Base 0.5.3
 _ZN5capnp8compiler14NodeTranslator11compileTypeENS0_10Expression6ReaderENS_6schema4Type7BuilderENS1_14ImplicitParamsE@Base 0.5.3
 _ZN5capnp8compiler14NodeTranslator12StructLayout3Top10addPointerEv@Base 0.5.3
 _ZN5capnp8compiler14NodeTranslator12StructLayout3Top13tryExpandDataEjjj@Base 0.5.3
 _ZN5capnp8compiler14NodeTranslator12StructLayout3Top7addDataEj@Base 0.5.3
 _ZN5capnp8compiler14NodeTranslator12StructLayout3Top7addVoidEv@Base 0.5.3
 _ZN5capnp8compiler14NodeTranslator12StructLayout5Group10addPointerEv@Base 0.5.3
 _ZN5capnp8compiler14NodeTranslator12StructLayout5Group13tryExpandDataEjjj@Base 0.5.3
 _ZN5capnp8compiler14NodeTranslator12StructLayout5Group7addDataEj@Base 0.5.3
 _ZN5capnp8compiler14NodeTranslator12StructLayout5Group7addVoidEv@Base 0.5.3
 (optional=templinst)_ZN5capnp8compiler14NodeTranslator12StructLayout7HoleSetIhE11tryAllocateEh@Base 0.5.3
 (optional=templinst)_ZN5capnp8compiler14NodeTranslator12StructLayout7HoleSetIjE11tryAllocateEj@Base 0.5.3
 _ZN5capnp8compiler14NodeTranslator12compileConstENS0_11Declaration5Const6ReaderENS_6schema4Node5Const7BuilderE@Base 0.5.3
 _ZN5capnp8compiler14NodeTranslator12compileValueENS0_10Expression6ReaderENS_6schema4Type6ReaderENS_6SchemaENS4_5Value7BuilderEb@Base 0.5.3
 _ZN5capnp8compiler14NodeTranslator12readConstantENS0_10Expression6ReaderEb@Base 0.5.3
 _ZN5capnp8compiler14NodeTranslator13compileStructENS_4VoidENS_4ListINS0_11DeclarationELNS_4KindE3EE6ReaderENS_6schema4Node7BuilderE@Base 0.5.3
 _ZN5capnp8compiler14NodeTranslator16StructTranslator10MemberInfo11finishGroupEv@Base 0.5.3
 _ZN5capnp8compiler14NodeTranslator16StructTranslator10MemberInfo9getSchemaEv@Base 0.5.3
 _ZN5capnp8compiler14NodeTranslator16StructTranslator10MemberInfoC1ERS3_jRKNS0_11Declaration6ReaderERNS1_12StructLayout13StructOrGroupEb@Base 0.5.3
 _ZN5capnp8compiler14NodeTranslator16StructTranslator10MemberInfoC2ERS3_jRKNS0_11Declaration6ReaderERNS1_12StructLayout13StructOrGroupEb@Base 0.5.3
 _ZN5capnp8compiler14NodeTranslator16StructTranslator12newGroupNodeENS_6schema4Node6ReaderEN2kj9StringPtrE@Base 0.5.3
 _ZN5capnp8compiler14NodeTranslator16StructTranslator13traverseUnionERKNS0_11Declaration6ReaderENS_4ListIS3_LNS_4KindE3EE6ReaderERNS2_10MemberInfoERNS1_12StructLayout5UnionERj@Base 0.5.3
 _ZN5capnp8compiler14NodeTranslator16StructTranslator17translateInternalERNS2_10MemberInfoENS_6schema4Node7BuilderE@Base 0.5.3
 _ZN5capnp8compiler14NodeTranslator16StructTranslator18traverseTopOrGroupENS_4ListINS0_11DeclarationELNS_4KindE3EE6ReaderERNS2_10MemberInfoERNS1_12StructLayout13StructOrGroupE@Base 0.5.3
 _ZN5capnp8compiler14NodeTranslator16StructTranslator9translateENS_4ListINS0_11Declaration5ParamELNS_4KindE3EE6ReaderENS_6schema4Node7BuilderE@Base 0.5.3
 _ZN5capnp8compiler14NodeTranslator16StructTranslatorD1Ev@Base 0.5.3
 _ZN5capnp8compiler14NodeTranslator16StructTranslatorD2Ev@Base 0.5.3
 _ZN5capnp8compiler14NodeTranslator16compileInterfaceENS0_11Declaration9Interface6ReaderENS_4ListIS2_LNS_4KindE3EE6ReaderENS_6schema4Node7BuilderE@Base 0.5.3
 _ZN5capnp8compiler14NodeTranslator16getBootstrapNodeEv@Base 0.5.3
 _ZN5capnp8compiler14NodeTranslator17compileAnnotationENS0_11Declaration10Annotation6ReaderENS_6schema4Node10Annotation7BuilderE@Base 0.5.3
 _ZN5capnp8compiler14NodeTranslator21DuplicateNameDetector5checkENS_4ListINS0_11DeclarationELNS_4KindE3EE6ReaderENS4_5WhichE@Base 0.5.3
 _ZN5capnp8compiler14NodeTranslator21compileBootstrapValueENS0_10Expression6ReaderENS_6schema4Type6ReaderENS4_5Value7BuilderENS_6SchemaE@Base 0.5.3
 _ZN5capnp8compiler14NodeTranslator21compileDeclExpressionENS0_10Expression6ReaderENS1_14ImplicitParamsE@Base 0.5.3
 _ZN5capnp8compiler14NodeTranslator24DuplicateOrdinalDetector5checkENS0_14LocatedInteger6ReaderE@Base 0.5.3
 _ZN5capnp8compiler14NodeTranslator26compileDefaultDefaultValueENS_6schema4Type6ReaderENS2_5Value7BuilderE@Base 0.5.3
 _ZN5capnp8compiler14NodeTranslator29compileAnnotationApplicationsENS_4ListINS0_11Declaration21AnnotationApplicationELNS_4KindE3EE6ReaderEN2kj9StringPtrE@Base 0.5.3
 _ZN5capnp8compiler14NodeTranslator6finishEv@Base 0.5.3
 _ZN5capnp8compiler14NodeTranslator8Resolver12ResolvedDeclC1ERKS3_@Base 0.5.3
 _ZN5capnp8compiler14NodeTranslator8Resolver12ResolvedDeclC2ERKS3_@Base 0.5.3
 _ZN5capnp8compiler14NodeTranslatorC1ERNS1_8ResolverERNS0_13ErrorReporterERKNS0_11Declaration6ReaderENS_6OrphanINS_6schema4NodeEEEb@Base 0.5.3
 _ZN5capnp8compiler14NodeTranslatorC2ERNS1_8ResolverERNS0_13ErrorReporterERKNS0_11Declaration6ReaderENS_6OrphanINS_6schema4NodeEEEb@Base 0.5.3
 _ZN5capnp8compiler14NodeTranslatorD1Ev@Base 0.5.3
 _ZN5capnp8compiler14NodeTranslatorD2Ev@Base 0.5.3
 _ZN5capnp8compiler15LexedStatements13_capnpPrivate12dataWordSizeE@Base 0.5.3
 _ZN5capnp8compiler15LexedStatements13_capnpPrivate12pointerCountE@Base 0.5.3
 _ZN5capnp8compiler15LexedStatements13_capnpPrivate4kindE@Base 0.5.3
 _ZN5capnp8compiler15LexedStatements13_capnpPrivate5brandE@Base 0.5.3
 _ZN5capnp8compiler15LexedStatements13_capnpPrivate6schemaE@Base 0.5.3
 _ZN5capnp8compiler15ValueTranslator12compileValueENS0_10Expression6ReaderENS_4TypeE@Base 0.5.3
 _ZN5capnp8compiler15ValueTranslator12makeNodeNameENS_6SchemaE@Base 0.5.3
 _ZN5capnp8compiler15ValueTranslator12makeTypeNameENS_4TypeE@Base 0.5.3
 _ZN5capnp8compiler15ValueTranslator15fillStructValueENS_13DynamicStruct7BuilderENS_4ListINS0_10Expression5ParamELNS_4KindE3EE6ReaderE@Base 0.5.3
 _ZN5capnp8compiler15ValueTranslator17compileValueInnerENS0_10Expression6ReaderENS_4TypeE@Base 0.5.3
 _ZN5capnp8compiler15generateChildIdEmN2kj9StringPtrE@Base 0.5.3
 _ZN5capnp8compiler15generateGroupIdEmt@Base 0.5.3
 _ZN5capnp8compiler16generateRandomIdEv@Base 0.5.3
 _ZN5capnp8compiler22generateMethodParamsIdEmtb@Base 0.5.3
 _ZN5capnp8compiler3Md511finishAsHexEv@Base 0.5.3
 _ZN5capnp8compiler3Md54bodyEPKhm@Base 0.5.3
 _ZN5capnp8compiler3Md56finishEv@Base 0.5.3
 _ZN5capnp8compiler3Md56updateEN2kj8ArrayPtrIKhEE@Base 0.5.3
 _ZN5capnp8compiler3Md5C1Ev@Base 0.5.3
 _ZN5capnp8compiler3Md5C2Ev@Base 0.5.3
 _ZN5capnp8compiler3lexEN2kj8ArrayPtrIKcEENS0_11LexedTokens7BuilderERNS0_13ErrorReporterE@Base 0.5.3
 _ZN5capnp8compiler3lexEN2kj8ArrayPtrIKcEENS0_15LexedStatements7BuilderERNS0_13ErrorReporterE@Base 0.5.3
 _ZN5capnp8compiler5LexerC1ENS_9OrphanageERNS0_13ErrorReporterE@Base 0.5.3
 _ZN5capnp8compiler5LexerC2ENS_9OrphanageERNS0_13ErrorReporterE@Base 0.5.3
 _ZN5capnp8compiler5LexerD1Ev@Base 0.5.3
 _ZN5capnp8compiler5LexerD2Ev@Base 0.5.3
 _ZN5capnp8compiler5Token13_capnpPrivate12dataWordSizeE@Base 0.5.3
 _ZN5capnp8compiler5Token13_capnpPrivate12pointerCountE@Base 0.5.3
 _ZN5capnp8compiler5Token13_capnpPrivate4kindE@Base 0.5.3
 _ZN5capnp8compiler5Token13_capnpPrivate5brandE@Base 0.5.3
 _ZN5capnp8compiler5Token13_capnpPrivate6schemaE@Base 0.5.3
 _ZN5capnp8compiler8Compiler14CompiledModule14importRelativeEN2kj9StringPtrE@Base 0.5.3
 _ZN5capnp8compiler8Compiler14CompiledModule18getFileImportTableENS_9OrphanageE@Base 0.5.3
 _ZN5capnp8compiler8Compiler14CompiledModuleC1ERNS1_4ImplERNS0_6ModuleE@Base 0.5.3
 _ZN5capnp8compiler8Compiler14CompiledModuleC2ERNS1_4ImplERNS0_6ModuleE@Base 0.5.3
 _ZN5capnp8compiler8Compiler4Impl10getBuiltinENS0_11Declaration5WhichE@Base 0.5.3
 _ZN5capnp8compiler8Compiler4Impl11addInternalERNS0_6ModuleE@Base 0.5.3
 _ZN5capnp8compiler8Compiler4Impl13lookupBuiltinEN2kj9StringPtrE@Base 0.5.3
 _ZN5capnp8compiler8Compiler4Impl14clearWorkspaceEv@Base 0.5.3
 _ZN5capnp8compiler8Compiler4Impl14eagerlyCompileEmjRKNS_12SchemaLoaderE@Base 0.5.3
 _ZN5capnp8compiler8Compiler4Impl18getFileImportTableERNS0_6ModuleENS_9OrphanageE@Base 0.5.3
 _ZN5capnp8compiler8Compiler4Impl3addERNS0_6ModuleE@Base 0.5.3
 _ZN5capnp8compiler8Compiler4Impl6lookupEmN2kj9StringPtrE@Base 0.5.3
 _ZN5capnp8compiler8Compiler4Impl7addNodeEmRNS1_4NodeE@Base 0.5.3
 _ZN5capnp8compiler8Compiler4Impl8findNodeEm@Base 0.5.3
 _ZN5capnp8compiler8Compiler4Impl9loadFinalERKNS_12SchemaLoaderEm@Base 0.5.3
 _ZN5capnp8compiler8Compiler4ImplC1ENS1_14AnnotationFlagE@Base 0.5.3
 _ZN5capnp8compiler8Compiler4ImplC2ENS1_14AnnotationFlagE@Base 0.5.3
 _ZN5capnp8compiler8Compiler4ImplD0Ev@Base 0.5.3
 _ZN5capnp8compiler8Compiler4ImplD1Ev@Base 0.5.3
 _ZN5capnp8compiler8Compiler4ImplD2Ev@Base 0.5.3
 _ZN5capnp8compiler8Compiler4Node10generateIdEmN2kj9StringPtrENS0_11Declaration2Id6ReaderE@Base 0.5.3
 _ZN5capnp8compiler8Compiler4Node10getContentENS2_7Content5StateE@Base 0.5.3
 _ZN5capnp8compiler8Compiler4Node11getTopScopeEv@Base 0.5.3
 _ZN5capnp8compiler8Compiler4Node12traverseTypeERKNS_6schema4Type6ReaderEjRSt13unordered_mapIPS2_jSt4hashIS9_ESt8equal_toIS9_ESaISt4pairIKS9_jEEERKNS_12SchemaLoaderE@Base 0.5.3
 _ZN5capnp8compiler8Compiler4Node13resolveImportEN2kj9StringPtrE@Base 0.5.3
 _ZN5capnp8compiler8Compiler4Node13resolveMemberEN2kj9StringPtrE@Base 0.5.3
 _ZN5capnp8compiler8Compiler4Node13traverseBrandERKNS_6schema5Brand6ReaderEjRSt13unordered_mapIPS2_jSt4hashIS9_ESt8equal_toIS9_ESaISt4pairIKS9_jEEERKNS_12SchemaLoaderE@Base 0.5.3
 _ZN5capnp8compiler8Compiler4Node14getFinalSchemaEv@Base 0.5.3
 _ZN5capnp8compiler8Compiler4Node14resolveBuiltinENS0_11Declaration5WhichE@Base 0.5.3
 _ZN5capnp8compiler8Compiler4Node15joinDisplayNameERN2kj5ArenaERS2_NS3_9StringPtrE@Base 0.5.3
 _ZN5capnp8compiler8Compiler4Node15loadFinalSchemaERKNS_12SchemaLoaderE@Base 0.5.3
 _ZN5capnp8compiler8Compiler4Node18getBootstrapSchemaEv@Base 0.5.3
 _ZN5capnp8compiler8Compiler4Node18resolveFinalSchemaEm@Base 0.5.3
 _ZN5capnp8compiler8Compiler4Node18traverseDependencyEmjRSt13unordered_mapIPS2_jSt4hashIS4_ESt8equal_toIS4_ESaISt4pairIKS4_jEEERKNS_12SchemaLoaderEb@Base 0.5.3
 _ZN5capnp8compiler8Compiler4Node19traverseAnnotationsERKNS_4ListINS_6schema10AnnotationELNS_4KindE3EE6ReaderEjRSt13unordered_mapIPS2_jSt4hashISC_ESt8equal_toISC_ESaISt4pairIKSC_jEEERKNS_12SchemaLoaderE@Base 0.5.3
 _ZN5capnp8compiler8Compiler4Node20resolveBootstrapTypeENS_6schema4Type6ReaderENS_6SchemaE@Base 0.5.3
 _ZN5capnp8compiler8Compiler4Node22resolveBootstrapSchemaEmNS_6schema5Brand6ReaderE@Base 0.5.3
 _ZN5capnp8compiler8Compiler4Node24traverseNodeDependenciesERKNS_6schema4Node6ReaderEjRSt13unordered_mapIPS2_jSt4hashIS9_ESt8equal_toIS9_ESaISt4pairIKS9_jEEERKNS_12SchemaLoaderE@Base 0.5.3
 _ZN5capnp8compiler8Compiler4Node7ContentD1Ev@Base 0.5.3
 _ZN5capnp8compiler8Compiler4Node7ContentD2Ev@Base 0.5.3
 _ZN5capnp8compiler8Compiler4Node7resolveEN2kj9StringPtrE@Base 0.5.3
 _ZN5capnp8compiler8Compiler4Node8addErrorEN2kj9StringPtrE@Base 0.5.3
 _ZN5capnp8compiler8Compiler4Node8traverseEjRSt13unordered_mapIPS2_jSt4hashIS4_ESt8equal_toIS4_ESaISt4pairIKS4_jEEERKNS_12SchemaLoaderE@Base 0.5.3
 _ZN5capnp8compiler8Compiler4Node9getParentEv@Base 0.5.3
 _ZN5capnp8compiler8Compiler4Node9resolveIdEm@Base 0.5.3
 _ZN5capnp8compiler8Compiler4NodeC1EN2kj9StringPtrENS0_11Declaration5WhichENS_4ListINS5_14BrandParameterELNS_4KindE3EE6ReaderE@Base 0.5.3
 _ZN5capnp8compiler8Compiler4NodeC1ERNS1_14CompiledModuleE@Base 0.5.3
 _ZN5capnp8compiler8Compiler4NodeC1ERS2_RKNS0_11Declaration6ReaderE@Base 0.5.3
 _ZN5capnp8compiler8Compiler4NodeC2EN2kj9StringPtrENS0_11Declaration5WhichENS_4ListINS5_14BrandParameterELNS_4KindE3EE6ReaderE@Base 0.5.3
 _ZN5capnp8compiler8Compiler4NodeC2ERNS1_14CompiledModuleE@Base 0.5.3
 _ZN5capnp8compiler8Compiler4NodeC2ERS2_RKNS0_11Declaration6ReaderE@Base 0.5.3
 _ZN5capnp8compiler8Compiler5Alias7compileEv@Base 0.5.3
 _ZN5capnp8compiler8CompilerC1ENS1_14AnnotationFlagE@Base 0.5.3
 _ZN5capnp8compiler8CompilerC2ENS1_14AnnotationFlagE@Base 0.5.3
 _ZN5capnp8compiler8CompilerD1Ev@Base 0.5.3
 _ZN5capnp8compiler8CompilerD2Ev@Base 0.5.3
 _ZN5capnp8compiler9Statement13_capnpPrivate12dataWordSizeE@Base 0.5.3
 _ZN5capnp8compiler9Statement13_capnpPrivate12pointerCountE@Base 0.5.3
 _ZN5capnp8compiler9Statement13_capnpPrivate4kindE@Base 0.5.3
 _ZN5capnp8compiler9Statement13_capnpPrivate5brandE@Base 0.5.3
 _ZN5capnp8compiler9Statement13_capnpPrivate6schemaE@Base 0.5.3
 _ZN5capnp8compiler9parseFileENS_4ListINS0_9StatementELNS_4KindE3EE6ReaderENS0_10ParsedFile7BuilderERNS0_13ErrorReporterE@Base 0.5.3
 (optional=templinst)_ZNK2kj1_12HeapDisposerIN5capnp10SchemaFile14DiskSchemaFileEE11disposeImplEPv@Base 0.5.3
 (optional=templinst)_ZNK2kj1_12HeapDisposerIN5capnp12SchemaParser10ModuleImplEE11disposeImplEPv@Base 0.5.3
 (optional=templinst)_ZNK2kj1_12HeapDisposerIN5capnp12SchemaParser4ImplEE11disposeImplEPv@Base 0.5.3
 (optional=templinst)_ZNK2kj1_12HeapDisposerIN5capnp8compiler8Compiler14CompiledModuleEE11disposeImplEPv@Base 0.5.3
 (optional=templinst)_ZNK2kj1_12HeapDisposerIN5capnp8compiler8Compiler4ImplEE11disposeImplEPv@Base 0.5.3
 (optional=templinst)_ZNK2kj22DestructorOnlyDisposerIN5capnp8compiler8Compiler4NodeEE11disposeImplEPv@Base 0.5.3
 (optional=templinst)_ZNK2kj22DestructorOnlyDisposerIN5capnp8compiler8Compiler5AliasEE11disposeImplEPv@Base 0.5.3
 (optional=templinst)_ZNK2kj22DestructorOnlyDisposerINS_6VectorIjEEE11disposeImplEPv@Base 0.5.3
 _ZNK2kj5parse10CharGroup_5orAnyEPKc@Base 0.5.3
 (optional=templinst)_ZNK2kj5parse10Transform_INS0_9Sequence_IINS0_5Many_IRKNS0_10CharGroup_ELb1EEENS0_9Optional_INS2_IINS0_13ExactlyConst_IcLc46EEENS3_IS6_Lb0EEEEEEEENS8_INS2_IINS0_12ConstResult_IS4_NS_1_5TupleIIEEEEENS8_IS4_EESB_EEEEENS0_13NotLookingAt_IS4_EEEEENS0_1_10ParseFloatEEclIN5capnp8compiler5Lexer11ParserInputEEENS_5MaybeIDTcl5applycl8instanceIRSQ_EEcl8instanceIONS0_11OutputType_IDTclcl8instanceIRSO_EEcl8instanceIRT_EEEEE4TypeEEEEEEES12_@Base 0.5.3
 (optional=templinst)_ZNK2kj5parse10Transform_INS0_9Sequence_IJNS0_5Many_IRKNS0_10CharGroup_ELb1EEENS0_9Optional_INS2_IJNS0_13ExactlyConst_IcLc46EEENS3_IS6_Lb0EEEEEEEENS8_INS2_IJNS0_12ConstResult_IS4_NS_1_5TupleIJEEEEENS8_IS4_EESB_EEEEENS0_13NotLookingAt_IS4_EEEEENS0_1_10ParseFloatEEclIN5capnp8compiler5Lexer11ParserInputEEENS_5MaybeIDTcl5applycl8instanceIRSQ_EEcl8instanceIONS0_11OutputType_IDTclcl8instanceIRSO_EEcl8instanceIRT_EEEEE4TypeEEEEEEES12_@Base 0.5.3
 (optional=templinst)_ZNK2kj5parse6OneOf_IINS0_10Transform_INS0_9Sequence_IINS0_13ExactlyConst_IcLc48EEENS0_5Many_IRKNS0_10CharGroup_ELb0EEEEEENS0_1_12ParseIntegerILj8EEEEENS2_INS3_IIS7_SA_EEENSD_ILj10EEEEEEEclIN5capnp8compiler5Lexer11ParserInputEEENS_5MaybeINS0_11OutputType_IDTclcl8instanceIRSF_EEcl8instanceIRT_EEEEE4TypeEEEST_@Base 0.5.3
 (optional=templinst)_ZNK2kj5parse6OneOf_IIRNS0_9ParserRefINS0_13IteratorInputIN5capnp8compiler5Token6ReaderENS4_1_16IndexingIteratorIKNS4_4ListIS6_LNS4_4KindE3EE6ReaderES7_EEEENS5_11CapnpParser16DeclParserResultEEEEEclISG_EENS_5MaybeINS0_11OutputType_IDTclcl8instanceISK_EEcl8instanceIRT_EEEEE4TypeEEESQ_@Base 0.5.3
 (optional=templinst)_ZNK2kj5parse6OneOf_IIRNS0_9ParserRefINS0_13IteratorInputIN5capnp8compiler5Token6ReaderENS4_1_16IndexingIteratorIKNS4_4ListIS6_LNS4_4KindE3EE6ReaderES7_EEEENS5_11CapnpParser16DeclParserResultEEESK_EEclISG_EENS_5MaybeINS0_11OutputType_IDTclcl8instanceISK_EEcl8instanceIRT_EEEEE4TypeEEESQ_@Base 0.5.3
 (optional=templinst)_ZNK2kj5parse6OneOf_IIRNS0_9ParserRefINS0_13IteratorInputIN5capnp8compiler5Token6ReaderENS4_1_16IndexingIteratorIKNS4_4ListIS6_LNS4_4KindE3EE6ReaderES7_EEEENS5_11CapnpParser16DeclParserResultEEESK_SK_EEclISG_EENS_5MaybeINS0_11OutputType_IDTclcl8instanceISK_EEcl8instanceIRT_EEEEE4TypeEEESQ_@Base 0.5.3
 (optional=templinst)_ZNK2kj5parse6OneOf_IIRNS0_9ParserRefINS0_13IteratorInputIN5capnp8compiler5Token6ReaderENS4_1_16IndexingIteratorIKNS4_4ListIS6_LNS4_4KindE3EE6ReaderES7_EEEENS5_11CapnpParser16DeclParserResultEEESK_SK_SK_EEclISG_EENS_5MaybeINS0_11OutputType_IDTclcl8instanceISK_EEcl8instanceIRT_EEEEE4TypeEEESQ_@Base 0.5.3
 (optional=templinst)_ZNK2kj5parse6OneOf_IIRNS0_9ParserRefINS0_13IteratorInputIN5capnp8compiler5Token6ReaderENS4_1_16IndexingIteratorIKNS4_4ListIS6_LNS4_4KindE3EE6ReaderES7_EEEENS5_11CapnpParser16DeclParserResultEEESK_SK_SK_SK_EEclISG_EENS_5MaybeINS0_11OutputType_IDTclcl8instanceISK_EEcl8instanceIRT_EEEEE4TypeEEESQ_@Base 0.5.3
 (optional=templinst)_ZNK2kj5parse6OneOf_IIRNS0_9ParserRefINS0_13IteratorInputIN5capnp8compiler5Token6ReaderENS4_1_16IndexingIteratorIKNS4_4ListIS6_LNS4_4KindE3EE6ReaderES7_EEEENS5_11CapnpParser16DeclParserResultEEESK_SK_SK_SK_SK_EEclISG_EENS_5MaybeINS0_11OutputType_IDTclcl8instanceISK_EEcl8instanceIRT_EEEEE4TypeEEESQ_@Base 0.5.3
 (optional=templinst)_ZNK2kj5parse6OneOf_IJNS0_10Transform_INS0_9Sequence_IJNS0_13ExactlyConst_IcLc48EEENS0_5Many_IRKNS0_10CharGroup_ELb0EEEEEENS0_1_12ParseIntegerILj8EEEEENS2_INS3_IJS7_SA_EEENSD_ILj10EEEEEEEclIN5capnp8compiler5Lexer11ParserInputEEENS_5MaybeINS0_11OutputType_IDTclcl8instanceIRSF_EEcl8instanceIRT_EEEEE4TypeEEEST_@Base 0.5.3
 (optional=templinst)_ZNK2kj5parse6OneOf_IJRNS0_9ParserRefINS0_13IteratorInputIN5capnp8compiler5Token6ReaderENS4_1_16IndexingIteratorIKNS4_4ListIS6_LNS4_4KindE3EE6ReaderES7_EEEENS5_11CapnpParser16DeclParserResultEEEEEclISG_EENS_5MaybeINS0_11OutputType_IDTclcl8instanceISK_EEcl8instanceIRT_EEEEE4TypeEEESQ_@Base 0.5.3
 (optional=templinst)_ZNK2kj5parse6OneOf_IJRNS0_9ParserRefINS0_13IteratorInputIN5capnp8compiler5Token6ReaderENS4_1_16IndexingIteratorIKNS4_4ListIS6_LNS4_4KindE3EE6ReaderES7_EEEENS5_11CapnpParser16DeclParserResultEEESK_EEclISG_EENS_5MaybeINS0_11OutputType_IDTclcl8instanceISK_EEcl8instanceIRT_EEEEE4TypeEEESQ_@Base 0.5.3
 (optional=templinst)_ZNK2kj5parse6OneOf_IJRNS0_9ParserRefINS0_13IteratorInputIN5capnp8compiler5Token6ReaderENS4_1_16IndexingIteratorIKNS4_4ListIS6_LNS4_4KindE3EE6ReaderES7_EEEENS5_11CapnpParser16DeclParserResultEEESK_SK_EEclISG_EENS_5MaybeINS0_11OutputType_IDTclcl8instanceISK_EEcl8instanceIRT_EEEEE4TypeEEESQ_@Base 0.5.3
 (optional=templinst)_ZNK2kj5parse6OneOf_IJRNS0_9ParserRefINS0_13IteratorInputIN5capnp8compiler5Token6ReaderENS4_1_16IndexingIteratorIKNS4_4ListIS6_LNS4_4KindE3EE6ReaderES7_EEEENS5_11CapnpParser16DeclParserResultEEESK_SK_SK_EEclISG_EENS_5MaybeINS0_11OutputType_IDTclcl8instanceISK_EEcl8instanceIRT_EEEEE4TypeEEESQ_@Base 0.5.3
 (optional=templinst)_ZNK2kj5parse6OneOf_IJRNS0_9ParserRefINS0_13IteratorInputIN5capnp8compiler5Token6ReaderENS4_1_16IndexingIteratorIKNS4_4ListIS6_LNS4_4KindE3EE6ReaderES7_EEEENS5_11CapnpParser16DeclParserResultEEESK_SK_SK_SK_EEclISG_EENS_5MaybeINS0_11OutputType_IDTclcl8instanceISK_EEcl8instanceIRT_EEEEE4TypeEEESQ_@Base 0.5.3
 (optional=templinst)_ZNK2kj5parse6OneOf_IJRNS0_9ParserRefINS0_13IteratorInputIN5capnp8compiler5Token6ReaderENS4_1_16IndexingIteratorIKNS4_4ListIS6_LNS4_4KindE3EE6ReaderES7_EEEENS5_11CapnpParser16DeclParserResultEEESK_SK_SK_SK_SK_EEclISG_EENS_5MaybeINS0_11OutputType_IDTclcl8instanceISK_EEcl8instanceIRT_EEEEE4TypeEEESQ_@Base 0.5.3
 (optional=templinst)_ZNK2kj5parse9Optional_INS0_9Sequence_IINS0_12ConstResult_INS0_10CharGroup_ENS_1_5TupleIIEEEEENS1_IS4_EENS0_5Many_IRKS4_Lb0EEEEEEEclIN5capnp8compiler5Lexer11ParserInputEEENS_5MaybeINSL_INS0_11OutputType_IDTclcl8instanceIRSE_EEcl8instanceIRT_EEEEE4TypeEEEEESP_@Base 0.5.3
 (optional=templinst)_ZNK2kj5parse9Optional_INS0_9Sequence_IIRKNS0_12ConstResult_INS0_5Many_INS3_INS0_10CharGroup_ENS_1_5TupleIIEEEEELb0EEES8_EENS3_INS1_IRKNS0_6OneOf_IINS0_13ExactlyConst_IcLc10EEENS2_IINSF_IcLc13EEENS3_INS1_ISG_EES8_EEEEEEEEEES8_EENS4_INS2_IISD_RKNS2_IINSF_IcLc35EEENS3_INS1_INSF_IcLc32EEEEES8_EENS0_10Transform_INS4_IS5_Lb0EEENS0_1_13ArrayToStringEEENSE_IISG_RKNS0_11EndOfInput_EEEEEEEEEELb1EEEEEEEclIN5capnp8compiler5Lexer11ParserInputEEENS_5MaybeINS1F_INS0_11OutputType_IDTclcl8instanceIRS18_EEcl8instanceIRT_EEEEE4TypeEEEEES1J_@Base 0.5.3
 (optional=templinst)_ZNK2kj5parse9Optional_INS0_9Sequence_IJNS0_12ConstResult_INS0_10CharGroup_ENS_1_5TupleIJEEEEENS1_IS4_EENS0_5Many_IRKS4_Lb0EEEEEEEclIN5capnp8compiler5Lexer11ParserInputEEENS_5MaybeINSL_INS0_11OutputType_IDTclcl8instanceIRSE_EEcl8instanceIRT_EEEEE4TypeEEEEESP_@Base 0.5.3
 (optional=templinst)_ZNK2kj5parse9Optional_INS0_9Sequence_IJRKNS0_12ConstResult_INS0_5Many_INS3_INS0_10CharGroup_ENS_1_5TupleIJEEEEELb0EEES8_EENS3_INS1_IRKNS0_6OneOf_IJNS0_13ExactlyConst_IcLc10EEENS2_IJNSF_IcLc13EEENS3_INS1_ISG_EES8_EEEEEEEEEES8_EENS4_INS2_IJSD_RKNS2_IJNSF_IcLc35EEENS3_INS1_INSF_IcLc32EEEEES8_EENS0_10Transform_INS4_IS5_Lb0EEENS0_1_13ArrayToStringEEENSE_IJSG_RKNS0_11EndOfInput_EEEEEEEEEELb1EEEEEEEclIN5capnp8compiler5Lexer11ParserInputEEENS_5MaybeINS1F_INS0_11OutputType_IDTclcl8instanceIRS18_EEcl8instanceIRT_EEEEE4TypeEEEEES1J_@Base 0.5.3
 (optional=templinst)_ZNK2kj5parse9Optional_IRKNS0_10CharGroup_EEclIN5capnp8compiler5Lexer11ParserInputEEENS_5MaybeINSB_INS0_11OutputType_IDTclcl8instanceIS4_EEcl8instanceIRT_EEEEE4TypeEEEEESE_@Base 0.5.3
 (optional=templinst)_ZNK2kj5parse9Optional_IRNS0_9ParserRefINS0_13IteratorInputIN5capnp8compiler5Token6ReaderENS4_1_16IndexingIteratorIKNS4_4ListIS6_LNS4_4KindE3EE6ReaderES7_EEEENS4_6OrphanINS5_14LocatedIntegerEEEEEEclISG_EENS_5MaybeINSO_INS0_11OutputType_IDTclcl8instanceISL_EEcl8instanceIRT_EEEEE4TypeEEEEESR_@Base 0.5.3
 (optional=templinst)_ZNK2kj5parse9ParserRefIN5capnp8compiler5Lexer11ParserInputENS_1_5TupleIIEEEE11WrapperImplINS0_9Sequence_IIRKNSB_IIRKNS0_12ConstResult_INS0_5Many_INSC_INS0_10CharGroup_ES8_EELb0EEES8_EENSC_INSD_INSB_IIRKNSB_IINS0_13ExactlyConst_IcLcn17EEENSK_IcLcn69EEENSK_IcLcn65EEEEEESJ_EEELb0EEES8_EEEEENSC_INSD_INSB_IIRKNSB_IINSK_IcLc35EEESH_NS0_6OneOf_IINSK_IcLc10EEERKNS0_11EndOfInput_EEEEEEESW_EEELb0EEES8_EEEEEE5parseEPKvRS5_@Base 0.5.3
 (optional=templinst)_ZNK2kj5parse9ParserRefIN5capnp8compiler5Lexer11ParserInputENS_1_5TupleIJEEEE11WrapperImplINS0_9Sequence_IJRKNSB_IJRKNS0_12ConstResult_INS0_5Many_INSC_INS0_10CharGroup_ES8_EELb0EEES8_EENSC_INSD_INSB_IJRKNSB_IJNS0_13ExactlyConst_IcLcn17EEENSK_IcLcn69EEENSK_IcLcn65EEEEEESJ_EEELb0EEES8_EEEEENSC_INSD_INSB_IJRKNSB_IJNSK_IcLc35EEESH_NS0_6OneOf_IJNSK_IcLc10EEERKNS0_11EndOfInput_EEEEEEESW_EEELb0EEES8_EEEEEE5parseEPKvRS5_@Base 0.5.3
 (optional=templinst)_ZNK2kj5parse9ParserRefINS0_13IteratorInputIN5capnp8compiler5Token6ReaderENS3_1_16IndexingIteratorIKNS3_4ListIS5_LNS3_4KindE3EE6ReaderES6_EEEENS4_11CapnpParser16DeclParserResultEE11WrapperImplINS0_6OneOf_IIRSI_EEEE5parseEPKvRSF_@Base 0.5.3
 (optional=templinst)_ZNK2kj5parse9ParserRefINS0_13IteratorInputIN5capnp8compiler5Token6ReaderENS3_1_16IndexingIteratorIKNS3_4ListIS5_LNS3_4KindE3EE6ReaderES6_EEEENS4_11CapnpParser16DeclParserResultEE11WrapperImplINS0_6OneOf_IIRSI_SL_EEEE5parseEPKvRSF_@Base 0.5.3
 (optional=templinst)_ZNK2kj5parse9ParserRefINS0_13IteratorInputIN5capnp8compiler5Token6ReaderENS3_1_16IndexingIteratorIKNS3_4ListIS5_LNS3_4KindE3EE6ReaderES6_EEEENS4_11CapnpParser16DeclParserResultEE11WrapperImplINS0_6OneOf_IIRSI_SL_SL_SL_EEEE5parseEPKvRSF_@Base 0.5.3
 (optional=templinst)_ZNK2kj5parse9ParserRefINS0_13IteratorInputIN5capnp8compiler5Token6ReaderENS3_1_16IndexingIteratorIKNS3_4ListIS5_LNS3_4KindE3EE6ReaderES6_EEEENS4_11CapnpParser16DeclParserResultEE11WrapperImplINS0_6OneOf_IIRSI_SL_SL_SL_SL_SL_EEEE5parseEPKvRSF_@Base 0.5.3
 (optional=templinst)_ZNK2kj5parse9ParserRefINS0_13IteratorInputIN5capnp8compiler5Token6ReaderENS3_1_16IndexingIteratorIKNS3_4ListIS5_LNS3_4KindE3EE6ReaderES6_EEEENS4_11CapnpParser16DeclParserResultEE11WrapperImplINS0_6OneOf_IJRSI_EEEE5parseEPKvRSF_@Base 0.5.3
 (optional=templinst)_ZNK2kj5parse9ParserRefINS0_13IteratorInputIN5capnp8compiler5Token6ReaderENS3_1_16IndexingIteratorIKNS3_4ListIS5_LNS3_4KindE3EE6ReaderES6_EEEENS4_11CapnpParser16DeclParserResultEE11WrapperImplINS0_6OneOf_IJRSI_SL_EEEE5parseEPKvRSF_@Base 0.5.3
 (optional=templinst)_ZNK2kj5parse9ParserRefINS0_13IteratorInputIN5capnp8compiler5Token6ReaderENS3_1_16IndexingIteratorIKNS3_4ListIS5_LNS3_4KindE3EE6ReaderES6_EEEENS4_11CapnpParser16DeclParserResultEE11WrapperImplINS0_6OneOf_IJRSI_SL_SL_SL_EEEE5parseEPKvRSF_@Base 0.5.3
 (optional=templinst)_ZNK2kj5parse9ParserRefINS0_13IteratorInputIN5capnp8compiler5Token6ReaderENS3_1_16IndexingIteratorIKNS3_4ListIS5_LNS3_4KindE3EE6ReaderES6_EEEENS4_11CapnpParser16DeclParserResultEE11WrapperImplINS0_6OneOf_IJRSI_SL_SL_SL_SL_SL_EEEE5parseEPKvRSF_@Base 0.5.3
 (optional=templinst)_ZNK2kj5parse9Sequence_IINS0_5Many_IRKNS0_10CharGroup_ELb0EEEEE9parseNextIN5capnp8compiler5Lexer11ParserInputEINS_1_5TupleIIEEEEEENS_5MaybeIDTcl5tuplespcl3fwdIT0_Efp0_Ecl8instanceINS0_11OutputType_IDTclcl8instanceIRS6_EEcl8instanceIRT_EEEEE4TypeEEEEEEESL_DpOSH_@Base 0.5.3
 (optional=templinst)_ZNK2kj5parse9Sequence_IINS0_5Many_IRKNS0_10CharGroup_ELb0EEEEE9parseNextIN5capnp8compiler5Lexer11ParserInputEIcEEENS_5MaybeIDTcl5tuplespcl3fwdIT0_Efp0_Ecl8instanceINS0_11OutputType_IDTclcl8instanceIRS6_EEcl8instanceIRT_EEEEE4TypeEEEEEEESI_DpOSE_@Base 0.5.3
 (optional=templinst)_ZNK2kj5parse9Sequence_IIRKNS0_12ConstResult_INS0_5Many_INS2_INS0_10CharGroup_ENS_1_5TupleIIEEEEELb0EEES7_EENS2_INS3_INS1_IIRKNS1_IINS0_13ExactlyConst_IcLcn17EEENSD_IcLcn69EEENSD_IcLcn65EEEEEESC_EEELb0EEES7_EEEE9parseNextIN5capnp8compiler5Lexer11ParserInputEIEEENS_5MaybeIDTcl5tuplespcl3fwdIT0_Efp0_Ecl8instanceINS0_11OutputType_IDTclcl8instanceISC_EEcl8instanceIRT_EEEEE4TypeEEEcl8instanceINSV_IDTclcl8instanceIRSM_EEcl8instanceISX_EEEEE4TypeEEEEEEESX_DpOSU_@Base 0.5.3
 (optional=templinst)_ZNK2kj5parse9Sequence_IIRKNS1_IIRKNS0_12ConstResult_INS0_5Many_INS2_INS0_10CharGroup_ENS_1_5TupleIIEEEEELb0EEES7_EENS2_INS3_INS1_IIRKNS1_IINS0_13ExactlyConst_IcLcn17EEENSD_IcLcn69EEENSD_IcLcn65EEEEEESC_EEELb0EEES7_EEEEENS2_INS3_INS1_IIRKNS1_IINSD_IcLc35EEESA_NS0_6OneOf_IINSD_IcLc10EEERKNS0_11EndOfInput_EEEEEEESP_EEELb0EEES7_EEEE9parseNextIN5capnp8compiler5Lexer11ParserInputEIEEENS_5MaybeIDTcl5tuplespcl3fwdIT0_Efp0_Ecl8instanceINS0_11OutputType_IDTclcl8instanceISP_EEcl8instanceIRT_EEEEE4TypeEEEcl8instanceINS1B_IDTclcl8instanceIRS12_EEcl8instanceIS1D_EEEEE4TypeEEEEEEES1D_DpOS1A_@Base 0.5.3
 _ZNK2kj5parse9Sequence_IIRNS0_9ParserRefIN5capnp8compiler5Lexer11ParserInputENS_5ArrayINS3_6OrphanINS4_5TokenEEEEEEENS0_5Many_INS1_IINS0_13ExactlyConst_IcLc44EEESD_EEELb0EEEEE9parseNextIS6_IEEENS_5MaybeIDTcl5tuplespcl3fwdIT0_Efp0_Ecl8instanceINS0_11OutputType_IDTclcl8instanceISD_EEcl8instanceIRT_EEEEE4TypeEEEcl8instanceINSN_IDTclcl8instanceIRSI_EEcl8instanceISP_EEEEE4TypeEEEEEEESP_DpOSM_@Base 0.5.3
 _ZNK2kj5parse9Sequence_IIRNS0_9ParserRefIN5capnp8compiler5Lexer11ParserInputENS_5ArrayINS3_6OrphanINS4_9StatementEEEEEEENS0_13ExactlyConst_IcLc125EEERKNS0_9Optional_INS1_IIRKNS0_12ConstResult_INS0_5Many_INSH_INS0_10CharGroup_ENS_1_5TupleIIEEEEELb0EEESM_EENSH_INSG_IRKNS0_6OneOf_IINSE_IcLc10EEENS1_IINSE_IcLc13EEENSH_INSG_IST_EESM_EEEEEEEEEESM_EENSI_INS1_IISR_RKNS1_IINSE_IcLc35EEENSH_INSG_INSE_IcLc32EEEEESM_EENS0_10Transform_INSI_ISJ_Lb0EEENS0_1_13ArrayToStringEEENSS_IIST_RKNS0_11EndOfInput_EEEEEEEEEELb1EEEEEEEEEE9parseNextIS6_ISM_NS_5MaybeINS7_INS_6StringEEEEEEEENS1R_IDTcl5tuplespcl3fwdIT0_Efp0_Ecl8instanceINS0_11OutputType_IDTclcl8instanceISD_EEcl8instanceIRT_EEEEE4TypeEEEcl8instanceINS1W_IDTclcl8instanceIRSF_EEcl8instanceIS1Y_EEEEE4TypeEEEcl8instanceINS1W_IDTclcl8instanceIS1O_EEcl8instanceIS1Y_EEEEE4TypeEEEEEEES1Y_DpOS1V_@Base 0.5.3
 _ZNK2kj5parse9Sequence_IIRNS0_9ParserRefINS0_13IteratorInputIN5capnp8compiler5Token6ReaderENS4_1_16IndexingIteratorIKNS4_4ListIS6_LNS4_4KindE3EE6ReaderES7_EEEENS4_6OrphanINS5_10ExpressionEEEEEEE9parseNextISG_INS_1_5TupleIIEEEEEENS_5MaybeIDTcl5tuplespcl3fwdIT0_Efp0_Ecl8instanceINS0_11OutputType_IDTclcl8instanceISL_EEcl8instanceIRT_EEEEE4TypeEEEEEEESV_DpOSS_@Base 0.5.3
 (optional=templinst)_ZNK2kj5parse9Sequence_IJNS0_5Many_IRKNS0_10CharGroup_ELb0EEEEE9parseNextIN5capnp8compiler5Lexer11ParserInputEJNS_1_5TupleIJEEEEEENS_5MaybeIDTcl5tuplespcl3fwdIT0_Efp0_Ecl8instanceINS0_11OutputType_IDTclcl8instanceIRS6_EEcl8instanceIRT_EEEEE4TypeEEEEEEESL_DpOSH_@Base 0.5.3
 (optional=templinst)_ZNK2kj5parse9Sequence_IJNS0_5Many_IRKNS0_10CharGroup_ELb0EEEEE9parseNextIN5capnp8compiler5Lexer11ParserInputEJcEEENS_5MaybeIDTcl5tuplespcl3fwdIT0_Efp0_Ecl8instanceINS0_11OutputType_IDTclcl8instanceIRS6_EEcl8instanceIRT_EEEEE4TypeEEEEEEESI_DpOSE_@Base 0.5.3
 (optional=templinst)_ZNK2kj5parse9Sequence_IJRKNS0_12ConstResult_INS0_5Many_INS2_INS0_10CharGroup_ENS_1_5TupleIJEEEEELb0EEES7_EENS2_INS3_INS1_IJRKNS1_IJNS0_13ExactlyConst_IcLcn17EEENSD_IcLcn69EEENSD_IcLcn65EEEEEESC_EEELb0EEES7_EEEE9parseNextIN5capnp8compiler5Lexer11ParserInputEJEEENS_5MaybeIDTcl5tuplespcl3fwdIT0_Efp0_Ecl8instanceINS0_11OutputType_IDTclcl8instanceISC_EEcl8instanceIRT_EEEEE4TypeEEEcl8instanceINSV_IDTclcl8instanceIRSM_EEcl8instanceISX_EEEEE4TypeEEEEEEESX_DpOSU_@Base 0.5.3
 (optional=templinst)_ZNK2kj5parse9Sequence_IJRKNS1_IJRKNS0_12ConstResult_INS0_5Many_INS2_INS0_10CharGroup_ENS_1_5TupleIJEEEEELb0EEES7_EENS2_INS3_INS1_IJRKNS1_IJNS0_13ExactlyConst_IcLcn17EEENSD_IcLcn69EEENSD_IcLcn65EEEEEESC_EEELb0EEES7_EEEEENS2_INS3_INS1_IJRKNS1_IJNSD_IcLc35EEESA_NS0_6OneOf_IJNSD_IcLc10EEERKNS0_11EndOfInput_EEEEEEESP_EEELb0EEES7_EEEE9parseNextIN5capnp8compiler5Lexer11ParserInputEJEEENS_5MaybeIDTcl5tuplespcl3fwdIT0_Efp0_Ecl8instanceINS0_11OutputType_IDTclcl8instanceISP_EEcl8instanceIRT_EEEEE4TypeEEEcl8instanceINS1B_IDTclcl8instanceIRS12_EEcl8instanceIS1D_EEEEE4TypeEEEEEEES1D_DpOS1A_@Base 0.5.3
 (optional=templinst)_ZNK2kj5parse9Sequence_IJRNS0_9ParserRefIN5capnp8compiler5Lexer11ParserInputENS_5ArrayINS3_6OrphanINS4_5TokenEEEEEEENS0_5Many_INS1_IJNS0_13ExactlyConst_IcLc44EEESD_EEELb0EEEEE9parseNextIS6_JEEENS_5MaybeIDTcl5tuplespcl3fwdIT0_Efp0_Ecl8instanceINS0_11OutputType_IDTclcl8instanceISD_EEcl8instanceIRT_EEEEE4TypeEEEcl8instanceINSN_IDTclcl8instanceIRSI_EEcl8instanceISP_EEEEE4TypeEEEEEEESP_DpOSM_@Base 0.5.3
 (optional=templinst)_ZNK2kj5parse9Sequence_IJRNS0_9ParserRefIN5capnp8compiler5Lexer11ParserInputENS_5ArrayINS3_6OrphanINS4_9StatementEEEEEEENS0_13ExactlyConst_IcLc125EEERKNS0_9Optional_INS1_IJRKNS0_12ConstResult_INS0_5Many_INSH_INS0_10CharGroup_ENS_1_5TupleIJEEEEELb0EEESM_EENSH_INSG_IRKNS0_6OneOf_IJNSE_IcLc10EEENS1_IJNSE_IcLc13EEENSH_INSG_IST_EESM_EEEEEEEEEESM_EENSI_INS1_IJSR_RKNS1_IJNSE_IcLc35EEENSH_INSG_INSE_IcLc32EEEEESM_EENS0_10Transform_INSI_ISJ_Lb0EEENS0_1_13ArrayToStringEEENSS_IJST_RKNS0_11EndOfInput_EEEEEEEEEELb1EEEEEEEEEE9parseNextIS6_JSM_NS_5MaybeINS7_INS_6StringEEEEEEEENS1R_IDTcl5tuplespcl3fwdIT0_Efp0_Ecl8instanceINS0_11OutputType_IDTclcl8instanceISD_EEcl8instanceIRT_EEEEE4TypeEEEcl8instanceINS1W_IDTclcl8instanceIRSF_EEcl8instanceIS1Y_EEEEE4TypeEEEcl8instanceINS1W_IDTclcl8instanceIS1O_EEcl8instanceIS1Y_EEEEE4TypeEEEEEEES1Y_DpOS1V_@Base 0.5.3
 (optional=templinst)_ZNK2kj5parse9Sequence_IJRNS0_9ParserRefINS0_13IteratorInputIN5capnp8compiler5Token6ReaderENS4_1_16IndexingIteratorIKNS4_4ListIS6_LNS4_4KindE3EE6ReaderES7_EEEENS4_6OrphanINS5_10ExpressionEEEEEEE9parseNextISG_JNS_1_5TupleIJEEEEEENS_5MaybeIDTcl5tuplespcl3fwdIT0_Efp0_Ecl8instanceINS0_11OutputType_IDTclcl8instanceISL_EEcl8instanceIRT_EEEEE4TypeEEEEEEESV_DpOSS_@Base 0.5.3
 _ZNK2kj9StringPtreqERKS0_@Base 0.5.3
 _ZNK5capnp10SchemaFile14DiskFileReader4readEN2kj9StringPtrE@Base 0.5.3
 _ZNK5capnp10SchemaFile14DiskFileReader6existsEN2kj9StringPtrE@Base 0.5.3
 _ZNK5capnp10SchemaFile14DiskSchemaFile11readContentEv@Base 0.5.3
 _ZNK5capnp10SchemaFile14DiskSchemaFile11reportErrorENS0_9SourcePosES2_N2kj9StringPtrE@Base 0.5.3
 _ZNK5capnp10SchemaFile14DiskSchemaFile14getDisplayNameEv@Base 0.5.3
 _ZNK5capnp10SchemaFile14DiskSchemaFile6importEN2kj9StringPtrE@Base 0.5.3
 _ZNK5capnp10SchemaFile14DiskSchemaFile8hashCodeEv@Base 0.5.3
 _ZNK5capnp10SchemaFile14DiskSchemaFileeqERKS0_@Base 0.5.3
 _ZNK5capnp10SchemaFile14DiskSchemaFileneERKS0_@Base 0.5.3
 _ZNK5capnp12ParsedSchema10findNestedEN2kj9StringPtrE@Base 0.5.3
 _ZNK5capnp12ParsedSchema9getNestedEN2kj9StringPtrE@Base 0.5.3
 _ZNK5capnp12SchemaParser13getModuleImplEON2kj3OwnINS_10SchemaFileEEE@Base 0.5.3
 _ZNK5capnp12SchemaParser13parseDiskFileEN2kj9StringPtrES2_NS1_8ArrayPtrIKS2_EE@Base 0.5.3
 _ZNK5capnp12SchemaParser9parseFileEON2kj3OwnINS_10SchemaFileEEE@Base 0.5.3
 _ZNK5capnp6schema4Type9Interface6Reader8getBrandEv@Base 0.5.3
 _ZNK5capnp6schema5Brand6Reader9getScopesEv@Base 0.5.3
 _ZNK5capnp6schema5Field6Reader7getNameEv@Base 0.5.3
 _ZNK5capnp8compiler10Expression6Member6Reader7getNameEv@Base 0.5.3
 _ZNK5capnp8compiler10Expression6Reader8getTupleEv@Base 0.5.3
 _ZNK5capnp8compiler11Declaration2Id6Reader10getOrdinalEv@Base 0.5.3
 _ZNK5capnp8compiler11Declaration5Param6Reader7getNameEv@Base 0.5.3
 _ZNK5capnp8compiler11Declaration6Reader14getNestedDeclsEv@Base 0.5.3
 _ZNK5capnp8compiler11Declaration9ParamList6Reader7getTypeEv@Base 0.5.3
 _ZNK5capnp8compiler14LineBreakTable11toSourcePosEj@Base 0.5.3
 _ZNK5capnp8compiler8Compiler14clearWorkspaceEv@Base 0.5.3
 _ZNK5capnp8compiler8Compiler14eagerlyCompileEmj@Base 0.5.3
 _ZNK5capnp8compiler8Compiler18getFileImportTableERNS0_6ModuleENS_9OrphanageE@Base 0.5.3
 _ZNK5capnp8compiler8Compiler3addERNS0_6ModuleE@Base 0.5.3
 _ZNK5capnp8compiler8Compiler4Impl4loadERKNS_12SchemaLoaderEm@Base 0.5.3
 _ZNK5capnp8compiler8Compiler4loadERKNS_12SchemaLoaderEm@Base 0.5.3
 _ZNK5capnp8compiler8Compiler6lookupEmN2kj9StringPtrE@Base 0.5.3
 (optional=templinst)_ZNK5capnp9Orphanage9newOrphanINS_6schema4NodeEEENS_6OrphanIT_EEv@Base 0.5.3
 (optional=templinst)_ZNK5capnp9Orphanage9newOrphanINS_8compiler10ExpressionEEENS_6OrphanIT_EEv@Base 0.5.3
 (optional=templinst)_ZNK5capnp9Orphanage9newOrphanINS_8compiler11Declaration21AnnotationApplicationEEENS_6OrphanIT_EEv@Base 0.5.3
 (optional=templinst)_ZNK5capnp9Orphanage9newOrphanINS_8compiler11Declaration9ParamListEEENS_6OrphanIT_EEv@Base 0.5.3
 (optional=templinst)_ZNK5capnp9Orphanage9newOrphanINS_8compiler11DeclarationEEENS_6OrphanIT_EEv@Base 0.5.3
 (optional=templinst)_ZNK5capnp9Orphanage9newOrphanINS_8compiler5TokenEEENS_6OrphanIT_EEv@Base 0.5.3
 (optional=templinst)_ZNK5capnp9Orphanage9newOrphanINS_8compiler9StatementEEENS_6OrphanIT_EEv@Base 0.5.3
 (optional=templinst)_ZNSt10_HashtableIPN5capnp8compiler6ModuleESt4pairIKS3_N2kj3OwnINS1_8Compiler14CompiledModuleEEEESaISB_ENSt8__detail10_Select1stESt8equal_toIS3_ESt4hashIS3_ENSD_18_Mod_range_hashingENSD_20_Default_ranged_hashENSD_20_Prime_rehash_policyENSD_17_Hashtable_traitsILb0ELb0ELb1EEEE21_M_insert_unique_nodeEmmPNSD_10_Hash_nodeISB_Lb0EEE@Base 0.5.3
 (optional=templinst)_ZNSt10_HashtableIPN5capnp8compiler6ModuleESt4pairIKS3_N2kj3OwnINS1_8Compiler14CompiledModuleEEEESaISB_ENSt8__detail10_Select1stESt8equal_toIS3_ESt4hashIS3_ENSD_18_Mod_range_hashingENSD_20_Default_ranged_hashENSD_20_Prime_rehash_policyENSD_17_Hashtable_traitsILb0ELb0ELb1EEEE9_M_rehashEmRKm@Base 0.5.3
 (optional=templinst)_ZNSt10_HashtableIPN5capnp8compiler6ModuleESt4pairIKS3_N2kj3OwnINS1_8Compiler14CompiledModuleEEEESaISB_ENSt8__detail10_Select1stESt8equal_toIS3_ESt4hashIS3_ENSD_18_Mod_range_hashingENSD_20_Default_ranged_hashENSD_20_Prime_rehash_policyENSD_17_Hashtable_traitsILb0ELb0ELb1EEEED1Ev@Base 0.5.3
 (optional=templinst)_ZNSt10_HashtableIPN5capnp8compiler6ModuleESt4pairIKS3_N2kj3OwnINS1_8Compiler14CompiledModuleEEEESaISB_ENSt8__detail10_Select1stESt8equal_toIS3_ESt4hashIS3_ENSD_18_Mod_range_hashingENSD_20_Default_ranged_hashENSD_20_Prime_rehash_policyENSD_17_Hashtable_traitsILb0ELb0ELb1EEEED2Ev@Base 0.5.3
 (optional=templinst)_ZNSt10_HashtableIPN5capnp8compiler8Compiler4NodeESt4pairIKS4_jESaIS7_ENSt8__detail10_Select1stESt8equal_toIS4_ESt4hashIS4_ENS9_18_Mod_range_hashingENS9_20_Default_ranged_hashENS9_20_Prime_rehash_policyENS9_17_Hashtable_traitsILb0ELb0ELb1EEEE21_M_insert_unique_nodeEmmPNS9_10_Hash_nodeIS7_Lb0EEE@Base 0.5.3
 (optional=templinst)_ZNSt10_HashtableIPN5capnp8compiler8Compiler4NodeESt4pairIKS4_jESaIS7_ENSt8__detail10_Select1stESt8equal_toIS4_ESt4hashIS4_ENS9_18_Mod_range_hashingENS9_20_Default_ranged_hashENS9_20_Prime_rehash_policyENS9_17_Hashtable_traitsILb0ELb0ELb1EEEE9_M_rehashEmRKm@Base 0.5.3
 (optional=templinst)_ZNSt10_HashtableIPN5capnp8compiler8Compiler4NodeESt4pairIKS4_jESaIS7_ENSt8__detail10_Select1stESt8equal_toIS4_ESt4hashIS4_ENS9_18_Mod_range_hashingENS9_20_Default_ranged_hashENS9_20_Prime_rehash_policyENS9_17_Hashtable_traitsILb0ELb0ELb1EEEED1Ev@Base 0.5.3
 (optional=templinst)_ZNSt10_HashtableIPN5capnp8compiler8Compiler4NodeESt4pairIKS4_jESaIS7_ENSt8__detail10_Select1stESt8equal_toIS4_ESt4hashIS4_ENS9_18_Mod_range_hashingENS9_20_Default_ranged_hashENS9_20_Prime_rehash_policyENS9_17_Hashtable_traitsILb0ELb0ELb1EEEED2Ev@Base 0.5.3
 (optional=templinst)_ZNSt10_HashtableImSt4pairIKmPN5capnp8compiler8Compiler4NodeEESaIS7_ENSt8__detail10_Select1stESt8equal_toImESt4hashImENS9_18_Mod_range_hashingENS9_20_Default_ranged_hashENS9_20_Prime_rehash_policyENS9_17_Hashtable_traitsILb0ELb0ELb1EEEED1Ev@Base 0.5.3
 (optional=templinst)_ZNSt10_HashtableImSt4pairIKmPN5capnp8compiler8Compiler4NodeEESaIS7_ENSt8__detail10_Select1stESt8equal_toImESt4hashImENS9_18_Mod_range_hashingENS9_20_Default_ranged_hashENS9_20_Prime_rehash_policyENS9_17_Hashtable_traitsILb0ELb0ELb1EEEED2Ev@Base 0.5.3
 (optional=templinst)_ZNSt8_Rb_treeIN2kj9StringPtrES1_St9_IdentityIS1_ESt4lessIS1_ESaIS1_EE16_M_insert_uniqueIS1_EESt4pairISt17_Rb_tree_iteratorIS1_EbEOT_@Base 0.5.3
 (optional=templinst)_ZNSt8_Rb_treeIN2kj9StringPtrES1_St9_IdentityIS1_ESt4lessIS1_ESaIS1_EE8_M_eraseEPSt13_Rb_tree_nodeIS1_E@Base 0.5.3
 (optional=templinst)_ZNSt8_Rb_treeIN2kj9StringPtrESt4pairIKS1_N5capnp8compiler11LocatedText6ReaderEESt10_Select1stIS8_ESt4lessIS1_ESaIS8_EE8_M_eraseEPSt13_Rb_tree_nodeIS8_E@Base 0.5.3
 (optional=templinst)_ZNSt8_Rb_treeIN2kj9StringPtrESt4pairIKS1_NS0_3OwnIN5capnp8compiler8Compiler4NodeEEEESt10_Select1stISA_ESt4lessIS1_ESaISA_EE15_M_insert_equalIS2_IS1_S9_EEESt17_Rb_tree_iteratorISA_EOT_@Base 0.5.3
 (optional=templinst)_ZNSt8_Rb_treeIN2kj9StringPtrESt4pairIKS1_NS0_3OwnIN5capnp8compiler8Compiler4NodeEEEESt10_Select1stISA_ESt4lessIS1_ESaISA_EE24_M_get_insert_unique_posERS3_@Base 0.5.3
 (optional=templinst)_ZNSt8_Rb_treeIN2kj9StringPtrESt4pairIKS1_NS0_3OwnIN5capnp8compiler8Compiler4NodeEEEESt10_Select1stISA_ESt4lessIS1_ESaISA_EE29_M_get_insert_hint_unique_posESt23_Rb_tree_const_iteratorISA_ERS3_@Base 0.5.3
 (optional=templinst)_ZNSt8_Rb_treeIN2kj9StringPtrESt4pairIKS1_NS0_3OwnIN5capnp8compiler8Compiler4NodeEEEESt10_Select1stISA_ESt4lessIS1_ESaISA_EE4findERS3_@Base 0.5.3
 (optional=templinst)_ZNSt8_Rb_treeIN2kj9StringPtrESt4pairIKS1_NS0_3OwnIN5capnp8compiler8Compiler4NodeEEEESt10_Select1stISA_ESt4lessIS1_ESaISA_EE8_M_eraseEPSt13_Rb_tree_nodeISA_E@Base 0.5.3
 (optional=templinst)_ZNSt8_Rb_treeIN2kj9StringPtrESt4pairIKS1_NS0_3OwnIN5capnp8compiler8Compiler5AliasEEEESt10_Select1stISA_ESt4lessIS1_ESaISA_EE15_M_insert_equalIS2_IS1_S9_EEESt17_Rb_tree_iteratorISA_EOT_@Base 0.5.3
 (optional=templinst)_ZNSt8_Rb_treeIN2kj9StringPtrESt4pairIKS1_NS0_3OwnIN5capnp8compiler8Compiler5AliasEEEESt10_Select1stISA_ESt4lessIS1_ESaISA_EE8_M_eraseEPSt13_Rb_tree_nodeISA_E@Base 0.5.3
 (optional=templinst)_ZNSt8_Rb_treeIN5capnp8compiler11Declaration5WhichESt4pairIKS3_PNS1_8Compiler4NodeEESt10_Select1stIS9_ESt4lessIS3_ESaIS9_EE24_M_get_insert_unique_posERS5_@Base 0.5.3
 (optional=templinst)_ZNSt8_Rb_treeIN5capnp8compiler11Declaration5WhichESt4pairIKS3_PNS1_8Compiler4NodeEESt10_Select1stIS9_ESt4lessIS3_ESaIS9_EE29_M_get_insert_hint_unique_posESt23_Rb_tree_const_iteratorIS9_ERS5_@Base 0.5.3
 (optional=templinst)_ZNSt8_Rb_treeIN5capnp8compiler11Declaration5WhichESt4pairIKS3_PNS1_8Compiler4NodeEESt10_Select1stIS9_ESt4lessIS3_ESaIS9_EE8_M_eraseEPSt13_Rb_tree_nodeIS9_E@Base 0.5.3
 (optional=templinst)_ZNSt8_Rb_treeIjSt4pairIKjPN5capnp8compiler14NodeTranslator16StructTranslator10MemberInfoEESt10_Select1stIS8_ESt4lessIjESaIS8_EE15_M_insert_equalIS0_IjS7_EEESt17_Rb_tree_iteratorIS8_EOT_@Base 0.5.3
 (optional=templinst)_ZNSt8_Rb_treeIjSt4pairIKjPN5capnp8compiler14NodeTranslator16StructTranslator10MemberInfoEESt10_Select1stIS8_ESt4lessIjESaIS8_EE8_M_eraseEPSt13_Rb_tree_nodeIS8_E@Base 0.5.3
 (optional=templinst)_ZNSt8_Rb_treeIjSt4pairIKjS0_IjN5capnp8compiler11Declaration6ReaderEEESt10_Select1stIS7_ESt4lessIjESaIS7_EE15_M_insert_equalIS0_ImS6_EEESt17_Rb_tree_iteratorIS7_EOT_@Base 0.5.3
 (optional=templinst)_ZNSt8_Rb_treeIjSt4pairIKjS0_IjN5capnp8compiler11Declaration6ReaderEEESt10_Select1stIS7_ESt4lessIjESaIS7_EE8_M_eraseEPSt13_Rb_tree_nodeIS7_E@Base 0.5.3
 (optional=templinst)_ZNSt8__detail9_Map_baseIPN5capnp8compiler6ModuleESt4pairIKS4_N2kj3OwnINS2_8Compiler14CompiledModuleEEEESaISC_ENS_10_Select1stESt8equal_toIS4_ESt4hashIS4_ENS_18_Mod_range_hashingENS_20_Default_ranged_hashENS_20_Prime_rehash_policyENS_17_Hashtable_traitsILb0ELb0ELb1EEELb1EEixEOS4_@Base 0.5.3
 (optional=templinst)_ZNSt8__detail9_Map_baseIPN5capnp8compiler8Compiler4NodeESt4pairIKS5_jESaIS8_ENS_10_Select1stESt8equal_toIS5_ESt4hashIS5_ENS_18_Mod_range_hashingENS_20_Default_ranged_hashENS_20_Prime_rehash_policyENS_17_Hashtable_traitsILb0ELb0ELb1EEELb1EEixEOS5_@Base 0.5.3
 _ZTIN2kj13ArrayDisposerE@Base 0.5.3
 _ZTIN2kj1_12HeapDisposerIN5capnp10SchemaFile14DiskSchemaFileEEE@Base 0.5.3
 _ZTIN2kj1_12HeapDisposerIN5capnp12SchemaParser10ModuleImplEEE@Base 0.5.3
 _ZTIN2kj1_12HeapDisposerIN5capnp12SchemaParser4ImplEEE@Base 0.5.3
 _ZTIN2kj1_12HeapDisposerIN5capnp8compiler8Compiler14CompiledModuleEEE@Base 0.5.3
 _ZTIN2kj1_12HeapDisposerIN5capnp8compiler8Compiler4ImplEEE@Base 0.5.3
 _ZTIN2kj1_4Once11InitializerE@Base 0.5.3
 _ZTIN2kj1_8RunnableE@Base 0.5.3
 _ZTIN2kj22DestructorOnlyDisposerIN5capnp8compiler8Compiler4NodeEEE@Base 0.5.3
 _ZTIN2kj22DestructorOnlyDisposerIN5capnp8compiler8Compiler5AliasEEE@Base 0.5.3
 _ZTIN2kj22DestructorOnlyDisposerINS_6VectorIjEEEE@Base 0.5.3
 _ZTIN2kj4LazyINS_6VectorIjEEE8InitImplIZN5capnp12SchemaParser10ModuleImpl11loadContentENS5_9OrphanageEEUlRNS_8SpaceForIS2_EEE_EE@Base 0.5.3
 _ZTIN2kj4LazyINS_6VectorIjEEE8InitImplIZN5capnp12SchemaParser10ModuleImpl8addErrorEjjNS_9StringPtrEEUlRNS_8SpaceForIS2_EEE_EE@Base 0.5.3
 _ZTIN2kj5parse9ParserRefIN5capnp8compiler5Lexer11ParserInputENS2_6OrphanINS3_5TokenEEEE7WrapperE@Base 0.5.3
 _ZTIN2kj5parse9ParserRefIN5capnp8compiler5Lexer11ParserInputENS2_6OrphanINS3_9StatementEEEE7WrapperE@Base 0.5.3
 _ZTIN2kj5parse9ParserRefIN5capnp8compiler5Lexer11ParserInputENS_1_5TupleIJEEEE11WrapperImplINS0_9Sequence_IJRKNSB_IJRKNS0_12ConstResult_INS0_5Many_INSC_INS0_10CharGroup_ES8_EELb0EEES8_EENSC_INSD_INSB_IJRKNSB_IJNS0_13ExactlyConst_IcLcn17EEENSK_IcLcn69EEENSK_IcLcn65EEEEEESJ_EEELb0EEES8_EEEEENSC_INSD_INSB_IJRKNSB_IJNSK_IcLc35EEESH_NS0_6OneOf_IJNSK_IcLc10EEERKNS0_11EndOfInput_EEEEEEESW_EEELb0EEES8_EEEEEEE@Base 0.5.3
 _ZTIN2kj5parse9ParserRefIN5capnp8compiler5Lexer11ParserInputENS_1_5TupleIJEEEE7WrapperE@Base 0.5.3
 _ZTIN2kj5parse9ParserRefIN5capnp8compiler5Lexer11ParserInputENS_5ArrayINS2_6OrphanINS3_5TokenEEEEEE7WrapperE@Base 0.5.3
 _ZTIN2kj5parse9ParserRefIN5capnp8compiler5Lexer11ParserInputENS_5ArrayINS2_6OrphanINS3_9StatementEEEEEE7WrapperE@Base 0.5.3
 _ZTIN2kj5parse9ParserRefINS0_13IteratorInputIN5capnp8compiler5Token6ReaderENS3_1_16IndexingIteratorIKNS3_4ListIS5_LNS3_4KindE3EE6ReaderES6_EEEENS3_6OrphanINS4_10ExpressionEEEE7WrapperE@Base 0.5.3
 _ZTIN2kj5parse9ParserRefINS0_13IteratorInputIN5capnp8compiler5Token6ReaderENS3_1_16IndexingIteratorIKNS3_4ListIS5_LNS3_4KindE3EE6ReaderES6_EEEENS3_6OrphanINS4_11Declaration21AnnotationApplicationEEEE7WrapperE@Base 0.5.3
 _ZTIN2kj5parse9ParserRefINS0_13IteratorInputIN5capnp8compiler5Token6ReaderENS3_1_16IndexingIteratorIKNS3_4ListIS5_LNS3_4KindE3EE6ReaderES6_EEEENS3_6OrphanINS4_11Declaration5ParamEEEE7WrapperE@Base 0.5.3
 _ZTIN2kj5parse9ParserRefINS0_13IteratorInputIN5capnp8compiler5Token6ReaderENS3_1_16IndexingIteratorIKNS3_4ListIS5_LNS3_4KindE3EE6ReaderES6_EEEENS3_6OrphanINS4_14LocatedIntegerEEEE7WrapperE@Base 0.5.3
 _ZTIN2kj5parse9ParserRefINS0_13IteratorInputIN5capnp8compiler5Token6ReaderENS3_1_16IndexingIteratorIKNS3_4ListIS5_LNS3_4KindE3EE6ReaderES6_EEEENS4_11CapnpParser16DeclParserResultEE11WrapperImplINS0_6OneOf_IJRSI_EEEEE@Base 0.5.3
 _ZTIN2kj5parse9ParserRefINS0_13IteratorInputIN5capnp8compiler5Token6ReaderENS3_1_16IndexingIteratorIKNS3_4ListIS5_LNS3_4KindE3EE6ReaderES6_EEEENS4_11CapnpParser16DeclParserResultEE11WrapperImplINS0_6OneOf_IJRSI_SL_EEEEE@Base 0.5.3
 _ZTIN2kj5parse9ParserRefINS0_13IteratorInputIN5capnp8compiler5Token6ReaderENS3_1_16IndexingIteratorIKNS3_4ListIS5_LNS3_4KindE3EE6ReaderES6_EEEENS4_11CapnpParser16DeclParserResultEE11WrapperImplINS0_6OneOf_IJRSI_SL_SL_SL_EEEEE@Base 0.5.3
 _ZTIN2kj5parse9ParserRefINS0_13IteratorInputIN5capnp8compiler5Token6ReaderENS3_1_16IndexingIteratorIKNS3_4ListIS5_LNS3_4KindE3EE6ReaderES6_EEEENS4_11CapnpParser16DeclParserResultEE11WrapperImplINS0_6OneOf_IJRSI_SL_SL_SL_SL_SL_EEEEE@Base 0.5.3
 _ZTIN2kj5parse9ParserRefINS0_13IteratorInputIN5capnp8compiler5Token6ReaderENS3_1_16IndexingIteratorIKNS3_4ListIS5_LNS3_4KindE3EE6ReaderES6_EEEENS4_11CapnpParser16DeclParserResultEE7WrapperE@Base 0.5.3
 _ZTIN2kj8DisposerE@Base 0.5.3
 _ZTIN5capnp10SchemaFile10FileReaderE@Base 0.5.3
 _ZTIN5capnp10SchemaFile14DiskFileReaderE@Base 0.5.3
 _ZTIN5capnp10SchemaFile14DiskSchemaFileE@Base 0.5.3
 _ZTIN5capnp10SchemaFileE@Base 0.5.3
 _ZTIN5capnp12SchemaLoader16LazyLoadCallbackE@Base 0.5.3
 _ZTIN5capnp12SchemaParser10ModuleImplE@Base 0.5.3
 _ZTIN5capnp8compiler13ErrorReporterE@Base 0.5.3
 _ZTIN5capnp8compiler14NodeTranslator10BrandScopeE@Base 0.5.3
 _ZTIN5capnp8compiler14NodeTranslator12StructLayout13StructOrGroupE@Base 0.5.3
 _ZTIN5capnp8compiler14NodeTranslator12StructLayout3TopE@Base 0.5.3
 _ZTIN5capnp8compiler14NodeTranslator12StructLayout5GroupE@Base 0.5.3
 _ZTIN5capnp8compiler14NodeTranslator8ResolverE@Base 0.5.3
 _ZTIN5capnp8compiler15ValueTranslator8ResolverE@Base 0.5.3
 _ZTIN5capnp8compiler6ModuleE@Base 0.5.3
 _ZTIN5capnp8compiler8Compiler4ImplE@Base 0.5.3
 _ZTIN5capnp8compiler8Compiler4NodeE@Base 0.5.3
 _ZTIN5capnp8compiler8CompilerE@Base 0.5.3
 _ZTSN2kj13ArrayDisposerE@Base 0.5.3
 _ZTSN2kj1_12HeapDisposerIN5capnp10SchemaFile14DiskSchemaFileEEE@Base 0.5.3
 _ZTSN2kj1_12HeapDisposerIN5capnp12SchemaParser10ModuleImplEEE@Base 0.5.3
 _ZTSN2kj1_12HeapDisposerIN5capnp12SchemaParser4ImplEEE@Base 0.5.3
 _ZTSN2kj1_12HeapDisposerIN5capnp8compiler8Compiler14CompiledModuleEEE@Base 0.5.3
 _ZTSN2kj1_12HeapDisposerIN5capnp8compiler8Compiler4ImplEEE@Base 0.5.3
 _ZTSN2kj1_4Once11InitializerE@Base 0.5.3
 _ZTSN2kj1_8RunnableE@Base 0.5.3
 _ZTSN2kj22DestructorOnlyDisposerIN5capnp8compiler8Compiler4NodeEEE@Base 0.5.3
 _ZTSN2kj22DestructorOnlyDisposerIN5capnp8compiler8Compiler5AliasEEE@Base 0.5.3
 _ZTSN2kj22DestructorOnlyDisposerINS_6VectorIjEEEE@Base 0.5.3
 _ZTSN2kj4LazyINS_6VectorIjEEE8InitImplIZN5capnp12SchemaParser10ModuleImpl11loadContentENS5_9OrphanageEEUlRNS_8SpaceForIS2_EEE_EE@Base 0.5.3
 _ZTSN2kj4LazyINS_6VectorIjEEE8InitImplIZN5capnp12SchemaParser10ModuleImpl8addErrorEjjNS_9StringPtrEEUlRNS_8SpaceForIS2_EEE_EE@Base 0.5.3
 _ZTSN2kj5parse9ParserRefIN5capnp8compiler5Lexer11ParserInputENS2_6OrphanINS3_5TokenEEEE7WrapperE@Base 0.5.3
 _ZTSN2kj5parse9ParserRefIN5capnp8compiler5Lexer11ParserInputENS2_6OrphanINS3_9StatementEEEE7WrapperE@Base 0.5.3
 _ZTSN2kj5parse9ParserRefIN5capnp8compiler5Lexer11ParserInputENS_1_5TupleIJEEEE11WrapperImplINS0_9Sequence_IJRKNSB_IJRKNS0_12ConstResult_INS0_5Many_INSC_INS0_10CharGroup_ES8_EELb0EEES8_EENSC_INSD_INSB_IJRKNSB_IJNS0_13ExactlyConst_IcLcn17EEENSK_IcLcn69EEENSK_IcLcn65EEEEEESJ_EEELb0EEES8_EEEEENSC_INSD_INSB_IJRKNSB_IJNSK_IcLc35EEESH_NS0_6OneOf_IJNSK_IcLc10EEERKNS0_11EndOfInput_EEEEEEESW_EEELb0EEES8_EEEEEEE@Base 0.5.3
 _ZTSN2kj5parse9ParserRefIN5capnp8compiler5Lexer11ParserInputENS_1_5TupleIJEEEE7WrapperE@Base 0.5.3
 _ZTSN2kj5parse9ParserRefIN5capnp8compiler5Lexer11ParserInputENS_5ArrayINS2_6OrphanINS3_5TokenEEEEEE7WrapperE@Base 0.5.3
 _ZTSN2kj5parse9ParserRefIN5capnp8compiler5Lexer11ParserInputENS_5ArrayINS2_6OrphanINS3_9StatementEEEEEE7WrapperE@Base 0.5.3
 _ZTSN2kj5parse9ParserRefINS0_13IteratorInputIN5capnp8compiler5Token6ReaderENS3_1_16IndexingIteratorIKNS3_4ListIS5_LNS3_4KindE3EE6ReaderES6_EEEENS3_6OrphanINS4_10ExpressionEEEE7WrapperE@Base 0.5.3
 _ZTSN2kj5parse9ParserRefINS0_13IteratorInputIN5capnp8compiler5Token6ReaderENS3_1_16IndexingIteratorIKNS3_4ListIS5_LNS3_4KindE3EE6ReaderES6_EEEENS3_6OrphanINS4_11Declaration21AnnotationApplicationEEEE7WrapperE@Base 0.5.3
 _ZTSN2kj5parse9ParserRefINS0_13IteratorInputIN5capnp8compiler5Token6ReaderENS3_1_16IndexingIteratorIKNS3_4ListIS5_LNS3_4KindE3EE6ReaderES6_EEEENS3_6OrphanINS4_11Declaration5ParamEEEE7WrapperE@Base 0.5.3
 _ZTSN2kj5parse9ParserRefINS0_13IteratorInputIN5capnp8compiler5Token6ReaderENS3_1_16IndexingIteratorIKNS3_4ListIS5_LNS3_4KindE3EE6ReaderES6_EEEENS3_6OrphanINS4_14LocatedIntegerEEEE7WrapperE@Base 0.5.3
 _ZTSN2kj5parse9ParserRefINS0_13IteratorInputIN5capnp8compiler5Token6ReaderENS3_1_16IndexingIteratorIKNS3_4ListIS5_LNS3_4KindE3EE6ReaderES6_EEEENS4_11CapnpParser16DeclParserResultEE11WrapperImplINS0_6OneOf_IJRSI_EEEEE@Base 0.5.3
 _ZTSN2kj5parse9ParserRefINS0_13IteratorInputIN5capnp8compiler5Token6ReaderENS3_1_16IndexingIteratorIKNS3_4ListIS5_LNS3_4KindE3EE6ReaderES6_EEEENS4_11CapnpParser16DeclParserResultEE11WrapperImplINS0_6OneOf_IJRSI_SL_EEEEE@Base 0.5.3
 _ZTSN2kj5parse9ParserRefINS0_13IteratorInputIN5capnp8compiler5Token6ReaderENS3_1_16IndexingIteratorIKNS3_4ListIS5_LNS3_4KindE3EE6ReaderES6_EEEENS4_11CapnpParser16DeclParserResultEE11WrapperImplINS0_6OneOf_IJRSI_SL_SL_SL_EEEEE@Base 0.5.3
 _ZTSN2kj5parse9ParserRefINS0_13IteratorInputIN5capnp8compiler5Token6ReaderENS3_1_16IndexingIteratorIKNS3_4ListIS5_LNS3_4KindE3EE6ReaderES6_EEEENS4_11CapnpParser16DeclParserResultEE11WrapperImplINS0_6OneOf_IJRSI_SL_SL_SL_SL_SL_EEEEE@Base 0.5.3
 _ZTSN2kj5parse9ParserRefINS0_13IteratorInputIN5capnp8compiler5Token6ReaderENS3_1_16IndexingIteratorIKNS3_4ListIS5_LNS3_4KindE3EE6ReaderES6_EEEENS4_11CapnpParser16DeclParserResultEE7WrapperE@Base 0.5.3
 _ZTSN2kj8DisposerE@Base 0.5.3
 _ZTSN5capnp10SchemaFile10FileReaderE@Base 0.5.3
 _ZTSN5capnp10SchemaFile14DiskFileReaderE@Base 0.5.3
 _ZTSN5capnp10SchemaFile14DiskSchemaFileE@Base 0.5.3
 _ZTSN5capnp10SchemaFileE@Base 0.5.3
 _ZTSN5capnp12SchemaLoader16LazyLoadCallbackE@Base 0.5.3
 _ZTSN5capnp12SchemaParser10ModuleImplE@Base 0.5.3
 _ZTSN5capnp8compiler13ErrorReporterE@Base 0.5.3
 _ZTSN5capnp8compiler14NodeTranslator10BrandScopeE@Base 0.5.3
 _ZTSN5capnp8compiler14NodeTranslator12StructLayout13StructOrGroupE@Base 0.5.3
 _ZTSN5capnp8compiler14NodeTranslator12StructLayout3TopE@Base 0.5.3
 _ZTSN5capnp8compiler14NodeTranslator12StructLayout5GroupE@Base 0.5.3
 _ZTSN5capnp8compiler14NodeTranslator8ResolverE@Base 0.5.3
 _ZTSN5capnp8compiler15ValueTranslator8ResolverE@Base 0.5.3
 _ZTSN5capnp8compiler6ModuleE@Base 0.5.3
 _ZTSN5capnp8compiler8Compiler4ImplE@Base 0.5.3
 _ZTSN5capnp8compiler8Compiler4NodeE@Base 0.5.3
 _ZTSN5capnp8compiler8CompilerE@Base 0.5.3
 _ZTVN2kj1_12HeapDisposerIN5capnp10SchemaFile14DiskSchemaFileEEE@Base 0.5.3
 _ZTVN2kj1_12HeapDisposerIN5capnp12SchemaParser10ModuleImplEEE@Base 0.5.3
 _ZTVN2kj1_12HeapDisposerIN5capnp12SchemaParser4ImplEEE@Base 0.5.3
 _ZTVN2kj1_12HeapDisposerIN5capnp8compiler8Compiler14CompiledModuleEEE@Base 0.5.3
 _ZTVN2kj1_12HeapDisposerIN5capnp8compiler8Compiler4ImplEEE@Base 0.5.3
 _ZTVN2kj22DestructorOnlyDisposerIN5capnp8compiler8Compiler4NodeEEE@Base 0.5.3
 _ZTVN2kj22DestructorOnlyDisposerIN5capnp8compiler8Compiler5AliasEEE@Base 0.5.3
 _ZTVN2kj22DestructorOnlyDisposerINS_6VectorIjEEEE@Base 0.5.3
 _ZTVN2kj4LazyINS_6VectorIjEEE8InitImplIZN5capnp12SchemaParser10ModuleImpl11loadContentENS5_9OrphanageEEUlRNS_8SpaceForIS2_EEE_EE@Base 0.5.3
 _ZTVN2kj4LazyINS_6VectorIjEEE8InitImplIZN5capnp12SchemaParser10ModuleImpl8addErrorEjjNS_9StringPtrEEUlRNS_8SpaceForIS2_EEE_EE@Base 0.5.3
 _ZTVN2kj5parse9ParserRefIN5capnp8compiler5Lexer11ParserInputENS_1_5TupleIJEEEE11WrapperImplINS0_9Sequence_IJRKNSB_IJRKNS0_12ConstResult_INS0_5Many_INSC_INS0_10CharGroup_ES8_EELb0EEES8_EENSC_INSD_INSB_IJRKNSB_IJNS0_13ExactlyConst_IcLcn17EEENSK_IcLcn69EEENSK_IcLcn65EEEEEESJ_EEELb0EEES8_EEEEENSC_INSD_INSB_IJRKNSB_IJNSK_IcLc35EEESH_NS0_6OneOf_IJNSK_IcLc10EEERKNS0_11EndOfInput_EEEEEEESW_EEELb0EEES8_EEEEEEE@Base 0.5.3
 _ZTVN2kj5parse9ParserRefINS0_13IteratorInputIN5capnp8compiler5Token6ReaderENS3_1_16IndexingIteratorIKNS3_4ListIS5_LNS3_4KindE3EE6ReaderES6_EEEENS4_11CapnpParser16DeclParserResultEE11WrapperImplINS0_6OneOf_IJRSI_EEEEE@Base 0.5.3
 _ZTVN2kj5parse9ParserRefINS0_13IteratorInputIN5capnp8compiler5Token6ReaderENS3_1_16IndexingIteratorIKNS3_4ListIS5_LNS3_4KindE3EE6ReaderES6_EEEENS4_11CapnpParser16DeclParserResultEE11WrapperImplINS0_6OneOf_IJRSI_SL_EEEEE@Base 0.5.3
 _ZTVN2kj5parse9ParserRefINS0_13IteratorInputIN5capnp8compiler5Token6ReaderENS3_1_16IndexingIteratorIKNS3_4ListIS5_LNS3_4KindE3EE6ReaderES6_EEEENS4_11CapnpParser16DeclParserResultEE11WrapperImplINS0_6OneOf_IJRSI_SL_SL_SL_EEEEE@Base 0.5.3
 _ZTVN2kj5parse9ParserRefINS0_13IteratorInputIN5capnp8compiler5Token6ReaderENS3_1_16IndexingIteratorIKNS3_4ListIS5_LNS3_4KindE3EE6ReaderES6_EEEENS4_11CapnpParser16DeclParserResultEE11WrapperImplINS0_6OneOf_IJRSI_SL_SL_SL_SL_SL_EEEEE@Base 0.5.3
 _ZTVN5capnp10SchemaFile14DiskFileReaderE@Base 0.5.3
 _ZTVN5capnp10SchemaFile14DiskSchemaFileE@Base 0.5.3
 _ZTVN5capnp12SchemaParser10ModuleImplE@Base 0.5.3
 _ZTVN5capnp8compiler14NodeTranslator10BrandScopeE@Base 0.5.3
 _ZTVN5capnp8compiler14NodeTranslator12StructLayout3TopE@Base 0.5.3
 _ZTVN5capnp8compiler14NodeTranslator12StructLayout5GroupE@Base 0.5.3
 _ZTVN5capnp8compiler8Compiler4ImplE@Base 0.5.3
 _ZTVN5capnp8compiler8Compiler4NodeE@Base 0.5.3
 _ZTVN5capnp8compiler8CompilerE@Base 0.5.3
 (optional=templinst)_ZZN5capnp12SchemaParser10ModuleImpl8addErrorEjjN2kj9StringPtrEENKUlRNS2_8SpaceForINS2_6VectorIjEEEEE_clES8_@Base 0.5.3
 (optional=templinst)_ZZN5capnp12SchemaParser10ModuleImpl8addErrorEjjN2kj9StringPtrEENUlRNS2_8SpaceForINS2_6VectorIjEEEEE_4_FUNES8_@Base 0.5.3
libkj-async.so.2 libcapnp2 #MINVER#
 (optional=templinst)_ZN2kj12ArrayBuilderINS_16AncillaryMessageEE7disposeEv@Base 0.5.3
 (optional=templinst)_ZN2kj12ArrayBuilderINS_3OwnINS_1_11TaskSetImpl4TaskEEEE7disposeEv@Base 0.5.3
 (optional=templinst)_ZN2kj12ArrayBuilderINS_6StringEE7disposeEv@Base 0.5.3
 _ZN2kj12DatagramPort10getsockoptEiiPvPj@Base 0.5.3
 _ZN2kj12DatagramPort10setsockoptEiiPKvj@Base 0.5.3
 _ZN2kj12joinPromisesEONS_5ArrayINS_7PromiseIvEEEE@Base 0.5.3
 _ZN2kj12setupAsyncIoEv@Base 0.5.3
 (optional=templinst)_ZN2kj13ArrayDisposer8Dispose_INS_1_11ExceptionOrINS2_4VoidEEELb0EE8destructEPv@Base 0.5.3
 (optional=templinst)_ZN2kj13ArrayDisposer8Dispose_INS_1_24ArrayJoinPromiseNodeBase6BranchELb0EE8destructEPv@Base 0.5.3
 (optional=templinst)_ZN2kj13ArrayDisposer8Dispose_INS_3OwnINS_1_11PromiseNodeEEELb0EE8destructEPv@Base 0.5.3
 (optional=templinst)_ZN2kj13ArrayDisposer8Dispose_INS_3OwnINS_1_11TaskSetImpl4TaskEEELb0EE8destructEPv@Base 0.5.3
 (optional=templinst)_ZN2kj13ArrayDisposer8Dispose_INS_6StringELb0EE8destructEPv@Base 0.5.3
 _ZN2kj13AsyncIoStream10getsockoptEiiPvPj@Base 0.5.3
 _ZN2kj13AsyncIoStream10setsockoptEiiPKvj@Base 0.5.3
 _ZN2kj13AsyncIoStream11getpeernameEP8sockaddrPj@Base 0.5.3
 _ZN2kj13AsyncIoStream11getsocknameEP8sockaddrPj@Base 0.5.3
 _ZN2kj13AsyncIoStream9abortReadEv@Base 0.5.3
 _ZN2kj13UnixEventPort10FdObserver19whenBecomesReadableEv@Base 0.5.3
 _ZN2kj13UnixEventPort10FdObserver19whenBecomesWritableEv@Base 0.5.3
 _ZN2kj13UnixEventPort10FdObserver4fireEs@Base 0.5.3
 _ZN2kj13UnixEventPort10FdObserverC1ERS0_ij@Base 0.5.3
 _ZN2kj13UnixEventPort10FdObserverC2ERS0_ij@Base 0.5.3
 _ZN2kj13UnixEventPort10FdObserverD1Ev@Base 0.5.3
 _ZN2kj13UnixEventPort10FdObserverD2Ev@Base 0.5.3
 _ZN2kj13UnixEventPort11doEpollWaitEi@Base 0.5.3
 _ZN2kj13UnixEventPort12atSteadyTimeENS_8AbsoluteINS_8QuantityIlNS_1_15NanosecondLabelEEENS3_9TimeLabelEEE@Base 0.5.3
 _ZN2kj13UnixEventPort13captureSignalEi@Base 0.5.3
 _ZN2kj13UnixEventPort13processTimersEv@Base 0.5.3
 _ZN2kj13UnixEventPort17currentSteadyTimeEv@Base 0.5.3
 _ZN2kj13UnixEventPort17setReservedSignalEi@Base 0.5.3
 _ZN2kj13UnixEventPort4pollEv@Base 0.5.3
 _ZN2kj13UnixEventPort4waitEv@Base 0.5.3
 _ZN2kj13UnixEventPort8TimerSet11TimerBeforeclEPNS0_19TimerPromiseAdapterES4_@Base 0.5.3
 _ZN2kj13UnixEventPort8onSignalEi@Base 0.5.3
 _ZN2kj13UnixEventPort9gotSignalERK9siginfo_t@Base 0.5.3
 _ZN2kj13UnixEventPortC1Ev@Base 0.5.3
 _ZN2kj13UnixEventPortC2Ev@Base 0.5.3
 _ZN2kj13UnixEventPortD1Ev@Base 0.5.3
 _ZN2kj13UnixEventPortD2Ev@Base 0.5.3
 _ZN2kj14NetworkAddress16bindDatagramPortEv@Base 0.5.3
 _ZN2kj16AsyncInputStream4readEPvm@Base 0.5.3
 _ZN2kj18ConnectionReceiver10getsockoptEiiPvPj@Base 0.5.3
 _ZN2kj18ConnectionReceiver10setsockoptEiiPKvj@Base 0.5.3
 _ZN2kj18newAsyncIoProviderERNS_23LowLevelAsyncIoProviderE@Base 0.5.3
 (optional=templinst)_ZN2kj1_11ExceptionOrINS_3OwnINS_13AsyncIoStreamEEEED1Ev@Base 0.5.3
 (optional=templinst)_ZN2kj1_11ExceptionOrINS_3OwnINS_13AsyncIoStreamEEEED2Ev@Base 0.5.3
 (optional=templinst)_ZN2kj1_11ExceptionOrINS_3OwnINS_14NetworkAddressEEEED1Ev@Base 0.5.3
 (optional=templinst)_ZN2kj1_11ExceptionOrINS_3OwnINS_14NetworkAddressEEEED2Ev@Base 0.5.3
 (optional=templinst)_ZN2kj1_11ExceptionOrINS_7PromiseINS_3OwnINS_13AsyncIoStreamEEEEEED1Ev@Base 0.5.3
 (optional=templinst)_ZN2kj1_11ExceptionOrINS_7PromiseINS_3OwnINS_13AsyncIoStreamEEEEEED2Ev@Base 0.5.3
 (optional=templinst)_ZN2kj1_11ExceptionOrINS_7PromiseImEEED1Ev@Base 0.5.3
 (optional=templinst)_ZN2kj1_11ExceptionOrINS_7PromiseImEEED2Ev@Base 0.5.3
 (optional=templinst)_ZN2kj1_11ExceptionOrINS_7PromiseIvEEED1Ev@Base 0.5.3
 (optional=templinst)_ZN2kj1_11ExceptionOrINS_7PromiseIvEEED2Ev@Base 0.5.3
 _ZN2kj1_11ForkHubBase16getInnerForTraceEv@Base 0.5.3
 _ZN2kj1_11ForkHubBase4fireEv@Base 0.5.3
 _ZN2kj1_11ForkHubBaseC1EONS_3OwnINS0_11PromiseNodeEEERNS0_16ExceptionOrValueE@Base 0.5.3
 _ZN2kj1_11ForkHubBaseC2EONS_3OwnINS0_11PromiseNodeEEERNS0_16ExceptionOrValueE@Base 0.5.3
 _ZN2kj1_11ForkHubBaseD0Ev@Base 0.5.3
 _ZN2kj1_11ForkHubBaseD1Ev@Base 0.5.3
 _ZN2kj1_11ForkHubBaseD2Ev@Base 0.5.3
 _ZN2kj1_11PromiseBase5traceEv@Base 0.5.3
 _ZN2kj1_11PromiseNode12OnReadyEvent3armEv@Base 0.5.3
 _ZN2kj1_11PromiseNode12OnReadyEvent4initERNS0_5EventE@Base 0.5.3
 _ZN2kj1_11PromiseNode14setSelfPointerEPNS_3OwnIS1_EE@Base 0.5.3
 _ZN2kj1_11PromiseNode16getInnerForTraceEv@Base 0.5.3
 _ZN2kj1_11TaskSetImpl4Task16getInnerForTraceEv@Base 0.5.3
 _ZN2kj1_11TaskSetImpl4Task4fireEv@Base 0.5.3
 _ZN2kj1_12HeapDisposerINS0_11TaskSetImpl4TaskEE8instanceE@Base 0.5.3
 _ZN2kj1_12HeapDisposerINS0_11TaskSetImplEE8instanceE@Base 0.5.3
 _ZN2kj1_12HeapDisposerINS0_16ChainPromiseNodeEE8instanceE@Base 0.5.3
 _ZN2kj1_12HeapDisposerINS0_18AdapterPromiseNodeI9siginfo_tNS_13UnixEventPort20SignalPromiseAdapterEEEE8instanceE@Base 0.5.3
 _ZN2kj1_12HeapDisposerINS0_18AdapterPromiseNodeINS0_4VoidENS0_26PromiseAndFulfillerAdapterIvEEEEE8instanceE@Base 0.5.3
 _ZN2kj1_12HeapDisposerINS0_18AdapterPromiseNodeINS0_4VoidENS_13UnixEventPort19TimerPromiseAdapterEEEE8instanceE@Base 0.5.3
 _ZN2kj1_12HeapDisposerINS0_20ArrayJoinPromiseNodeIvEEE8instanceE@Base 0.5.3
 _ZN2kj1_12HeapDisposerINS0_20ImmediatePromiseNodeINS0_4VoidEEEE8instanceE@Base 0.5.3
 _ZN2kj1_12HeapDisposerINS0_20ImmediatePromiseNodeINS_3OwnINS_13AsyncIoStreamEEEEEE8instanceE@Base 0.5.3
 _ZN2kj1_12HeapDisposerINS0_20ImmediatePromiseNodeImEEE8instanceE@Base 0.5.3
 _ZN2kj1_12HeapDisposerINS0_26ImmediateBrokenPromiseNodeEE8instanceE@Base 0.5.3
 _ZN2kj1_12HeapDisposerINS_13UnixEventPort8TimerSetEE8instanceE@Base 0.5.3
 _ZN2kj1_12HeapDisposerINS_6ThreadEE8instanceE@Base 0.5.3
 (optional=templinst)_ZN2kj1_12RunnableImplIZNS0_11TaskSetImpl4Task4fireEvEUlvE_E3runEv@Base 0.5.3
 _ZN2kj1_13NullEventPort4pollEv@Base 0.5.3
 _ZN2kj1_13NullEventPort4waitEv@Base 0.5.3
 _ZN2kj1_13NullEventPort8instanceE@Base 0.5.3
 (optional=templinst)_ZN2kj1_13NullableValueINS_7PromiseImEEEaSEOS4_@Base 0.5.3
 (optional=templinst)_ZN2kj1_13NullableValueINS_9ExceptionEEaSEOS3_@Base 0.5.3
 (optional=templinst)_ZN2kj1_13WeakFulfillerIvE6rejectEONS_9ExceptionE@Base 0.5.3
 (optional=templinst)_ZN2kj1_13WeakFulfillerIvE7fulfillEONS0_4VoidE@Base 0.5.3
 (optional=templinst)_ZN2kj1_13WeakFulfillerIvE9isWaitingEv@Base 0.5.3
 _ZN2kj1_14ForkBranchBase10releaseHubERNS0_16ExceptionOrValueE@Base 0.5.3
 _ZN2kj1_14ForkBranchBase16getInnerForTraceEv@Base 0.5.3
 _ZN2kj1_14ForkBranchBase7onReadyERNS0_5EventE@Base 0.5.3
 _ZN2kj1_14ForkBranchBase8hubReadyEv@Base 0.5.3
 _ZN2kj1_14ForkBranchBaseC1EONS_3OwnINS0_11ForkHubBaseEEE@Base 0.5.3
 _ZN2kj1_14ForkBranchBaseC2EONS_3OwnINS0_11ForkHubBaseEEE@Base 0.5.3
 _ZN2kj1_14ForkBranchBaseD1Ev@Base 0.5.3
 _ZN2kj1_14ForkBranchBaseD2Ev@Base 0.5.3
 _ZN2kj1_16ChainPromiseNode14setSelfPointerEPNS_3OwnINS0_11PromiseNodeEEE@Base 0.5.3
 _ZN2kj1_16ChainPromiseNode16getInnerForTraceEv@Base 0.5.3
 _ZN2kj1_16ChainPromiseNode3getERNS0_16ExceptionOrValueE@Base 0.5.3
 _ZN2kj1_16ChainPromiseNode4fireEv@Base 0.5.3
 _ZN2kj1_16ChainPromiseNode7onReadyERNS0_5EventE@Base 0.5.3
 _ZN2kj1_16ChainPromiseNodeC1ENS_3OwnINS0_11PromiseNodeEEE@Base 0.5.3
 _ZN2kj1_16ChainPromiseNodeC2ENS_3OwnINS0_11PromiseNodeEEE@Base 0.5.3
 _ZN2kj1_16ChainPromiseNodeD1Ev@Base 0.5.3
 _ZN2kj1_16ChainPromiseNodeD2Ev@Base 0.5.3
 (optional=templinst)_ZN2kj1_17HeapArrayDisposer9Allocate_INS0_11ExceptionOrINS0_4VoidEEELb0ELb0EE8destructEPv@Base 0.5.3
 (optional=templinst)_ZN2kj1_17HeapArrayDisposer9Allocate_INS0_11ExceptionOrINS0_4VoidEEELb0ELb0EE9constructEPv@Base 0.5.3
 (optional=templinst)_ZN2kj1_17HeapArrayDisposer9Allocate_INS_8ArrayPtrIKcEELb0ELb0EE8destructEPv@Base 0.5.3
 (optional=templinst)_ZN2kj1_17HeapArrayDisposer9Allocate_INS_8ArrayPtrIKcEELb0ELb0EE9constructEPv@Base 0.5.3
 (optional=templinst)_ZN2kj1_18AdapterPromiseNodeI9siginfo_tNS_13UnixEventPort20SignalPromiseAdapterEE3getERNS0_16ExceptionOrValueE@Base 0.5.3
 (optional=templinst)_ZN2kj1_18AdapterPromiseNodeI9siginfo_tNS_13UnixEventPort20SignalPromiseAdapterEE6rejectEONS_9ExceptionE@Base 0.5.3
 (optional=templinst)_ZN2kj1_18AdapterPromiseNodeI9siginfo_tNS_13UnixEventPort20SignalPromiseAdapterEE7fulfillEOS2_@Base 0.5.3
 (optional=templinst)_ZN2kj1_18AdapterPromiseNodeI9siginfo_tNS_13UnixEventPort20SignalPromiseAdapterEE9isWaitingEv@Base 0.5.3
 (optional=templinst)_ZN2kj1_18AdapterPromiseNodeINS0_4VoidENS0_26PromiseAndFulfillerAdapterIvEEE3getERNS0_16ExceptionOrValueE@Base 0.5.3
 (optional=templinst)_ZN2kj1_18AdapterPromiseNodeINS0_4VoidENS0_26PromiseAndFulfillerAdapterIvEEE6rejectEONS_9ExceptionE@Base 0.5.3
 (optional=templinst)_ZN2kj1_18AdapterPromiseNodeINS0_4VoidENS0_26PromiseAndFulfillerAdapterIvEEE7fulfillEOS2_@Base 0.5.3
 (optional=templinst)_ZN2kj1_18AdapterPromiseNodeINS0_4VoidENS0_26PromiseAndFulfillerAdapterIvEEE9isWaitingEv@Base 0.5.3
 (optional=templinst)_ZN2kj1_18AdapterPromiseNodeINS0_4VoidENS_13UnixEventPort19TimerPromiseAdapterEE3getERNS0_16ExceptionOrValueE@Base 0.5.3
 (optional=templinst)_ZN2kj1_18AdapterPromiseNodeINS0_4VoidENS_13UnixEventPort19TimerPromiseAdapterEE6rejectEONS_9ExceptionE@Base 0.5.3
 (optional=templinst)_ZN2kj1_18AdapterPromiseNodeINS0_4VoidENS_13UnixEventPort19TimerPromiseAdapterEE7fulfillEOS2_@Base 0.5.3
 (optional=templinst)_ZN2kj1_18AdapterPromiseNodeINS0_4VoidENS_13UnixEventPort19TimerPromiseAdapterEE9isWaitingEv@Base 0.5.3
 _ZN2kj1_19LoggingErrorHandler10taskFailedEONS_9ExceptionE@Base 0.5.3
 _ZN2kj1_19LoggingErrorHandler8instanceE@Base 0.5.3
 (optional=templinst)_ZN2kj1_20ArrayJoinPromiseNodeIvE10getNoErrorERNS0_16ExceptionOrValueE@Base 0.5.3
 (optional=templinst)_ZN2kj1_20ArrayJoinPromiseNodeIvEC1ENS_5ArrayINS_3OwnINS0_11PromiseNodeEEEEENS3_INS0_11ExceptionOrINS0_4VoidEEEEE@Base 0.5.3
 (optional=templinst)_ZN2kj1_20ArrayJoinPromiseNodeIvEC2ENS_5ArrayINS_3OwnINS0_11PromiseNodeEEEEENS3_INS0_11ExceptionOrINS0_4VoidEEEEE@Base 0.5.3
 (optional=templinst)_ZN2kj1_20ArrayJoinPromiseNodeIvED1Ev@Base 0.5.3
 (optional=templinst)_ZN2kj1_20ArrayJoinPromiseNodeIvED2Ev@Base 0.5.3
 _ZN2kj1_20EagerPromiseNodeBase16getInnerForTraceEv@Base 0.5.3
 _ZN2kj1_20EagerPromiseNodeBase4fireEv@Base 0.5.3
 _ZN2kj1_20EagerPromiseNodeBase7onReadyERNS0_5EventE@Base 0.5.3
 _ZN2kj1_20EagerPromiseNodeBaseC1EONS_3OwnINS0_11PromiseNodeEEERNS0_16ExceptionOrValueE@Base 0.5.3
 _ZN2kj1_20EagerPromiseNodeBaseC2EONS_3OwnINS0_11PromiseNodeEEERNS0_16ExceptionOrValueE@Base 0.5.3
 (optional=templinst)_ZN2kj1_20ImmediatePromiseNodeINS0_4VoidEE3getERNS0_16ExceptionOrValueE@Base 0.5.3
 (optional=templinst)_ZN2kj1_20ImmediatePromiseNodeINS_3OwnINS_13AsyncIoStreamEEEE3getERNS0_16ExceptionOrValueE@Base 0.5.3
 (optional=templinst)_ZN2kj1_20ImmediatePromiseNodeImE3getERNS0_16ExceptionOrValueE@Base 0.5.3
 _ZN2kj1_22AdapterPromiseNodeBase7onReadyERNS0_5EventE@Base 0.5.3
 _ZN2kj1_24ArrayJoinPromiseNodeBase16getInnerForTraceEv@Base 0.5.3
 _ZN2kj1_24ArrayJoinPromiseNodeBase3getERNS0_16ExceptionOrValueE@Base 0.5.3
 _ZN2kj1_24ArrayJoinPromiseNodeBase6Branch16getInnerForTraceEv@Base 0.5.3
 _ZN2kj1_24ArrayJoinPromiseNodeBase6Branch4fireEv@Base 0.5.3
 _ZN2kj1_24ArrayJoinPromiseNodeBase6Branch7getPartEv@Base 0.5.3
 _ZN2kj1_24ArrayJoinPromiseNodeBase6BranchC1ERS1_NS_3OwnINS0_11PromiseNodeEEERNS0_16ExceptionOrValueE@Base 0.5.3
 _ZN2kj1_24ArrayJoinPromiseNodeBase6BranchC2ERS1_NS_3OwnINS0_11PromiseNodeEEERNS0_16ExceptionOrValueE@Base 0.5.3
 _ZN2kj1_24ArrayJoinPromiseNodeBase6BranchD1Ev@Base 0.5.3
 _ZN2kj1_24ArrayJoinPromiseNodeBase6BranchD2Ev@Base 0.5.3
 _ZN2kj1_24ArrayJoinPromiseNodeBase7onReadyERNS0_5EventE@Base 0.5.3
 _ZN2kj1_24ArrayJoinPromiseNodeBaseC1ENS_5ArrayINS_3OwnINS0_11PromiseNodeEEEEEPNS0_16ExceptionOrValueEm@Base 0.5.3
 _ZN2kj1_24ArrayJoinPromiseNodeBaseC2ENS_5ArrayINS_3OwnINS0_11PromiseNodeEEEEEPNS0_16ExceptionOrValueEm@Base 0.5.3
 _ZN2kj1_24ArrayJoinPromiseNodeBaseD1Ev@Base 0.5.3
 _ZN2kj1_24ArrayJoinPromiseNodeBaseD2Ev@Base 0.5.3
 _ZN2kj1_24ExclusiveJoinPromiseNode16getInnerForTraceEv@Base 0.5.3
 _ZN2kj1_24ExclusiveJoinPromiseNode3getERNS0_16ExceptionOrValueE@Base 0.5.3
 _ZN2kj1_24ExclusiveJoinPromiseNode6Branch16getInnerForTraceEv@Base 0.5.3
 _ZN2kj1_24ExclusiveJoinPromiseNode6Branch3getERNS0_16ExceptionOrValueE@Base 0.5.3
 _ZN2kj1_24ExclusiveJoinPromiseNode6Branch4fireEv@Base 0.5.3
 _ZN2kj1_24ExclusiveJoinPromiseNode6BranchC1ERS1_NS_3OwnINS0_11PromiseNodeEEE@Base 0.5.3
 _ZN2kj1_24ExclusiveJoinPromiseNode6BranchC2ERS1_NS_3OwnINS0_11PromiseNodeEEE@Base 0.5.3
 _ZN2kj1_24ExclusiveJoinPromiseNode6BranchD1Ev@Base 0.5.3
 _ZN2kj1_24ExclusiveJoinPromiseNode6BranchD2Ev@Base 0.5.3
 _ZN2kj1_24ExclusiveJoinPromiseNode7onReadyERNS0_5EventE@Base 0.5.3
 _ZN2kj1_24ExclusiveJoinPromiseNodeC1ENS_3OwnINS0_11PromiseNodeEEES4_@Base 0.5.3
 _ZN2kj1_24ExclusiveJoinPromiseNodeC2ENS_3OwnINS0_11PromiseNodeEEES4_@Base 0.5.3
 _ZN2kj1_24ExclusiveJoinPromiseNodeD1Ev@Base 0.5.3
 _ZN2kj1_24ExclusiveJoinPromiseNodeD2Ev@Base 0.5.3
 _ZN2kj1_24ImmediatePromiseNodeBase7onReadyERNS0_5EventE@Base 0.5.3
 _ZN2kj1_24ImmediatePromiseNodeBaseC1Ev@Base 0.5.3
 _ZN2kj1_24ImmediatePromiseNodeBaseC2Ev@Base 0.5.3
 _ZN2kj1_24ImmediatePromiseNodeBaseD1Ev@Base 0.5.3
 _ZN2kj1_24ImmediatePromiseNodeBaseD2Ev@Base 0.5.3
 _ZN2kj1_24TransformPromiseNodeBase12getDepResultERNS0_16ExceptionOrValueE@Base 0.5.3
 _ZN2kj1_24TransformPromiseNodeBase14dropDependencyEv@Base 0.5.3
 _ZN2kj1_24TransformPromiseNodeBase16getInnerForTraceEv@Base 0.5.3
 _ZN2kj1_24TransformPromiseNodeBase3getERNS0_16ExceptionOrValueE@Base 0.5.3
 _ZN2kj1_24TransformPromiseNodeBase7onReadyERNS0_5EventE@Base 0.5.3
 _ZN2kj1_24TransformPromiseNodeBaseC1EONS_3OwnINS0_11PromiseNodeEEE@Base 0.5.3
 _ZN2kj1_24TransformPromiseNodeBaseC2EONS_3OwnINS0_11PromiseNodeEEE@Base 0.5.3
 _ZN2kj1_25AttachmentPromiseNodeBase14dropDependencyEv@Base 0.5.3
 _ZN2kj1_25AttachmentPromiseNodeBase16getInnerForTraceEv@Base 0.5.3
 _ZN2kj1_25AttachmentPromiseNodeBase3getERNS0_16ExceptionOrValueE@Base 0.5.3
 _ZN2kj1_25AttachmentPromiseNodeBase7onReadyERNS0_5EventE@Base 0.5.3
 _ZN2kj1_25AttachmentPromiseNodeBaseC1EONS_3OwnINS0_11PromiseNodeEEE@Base 0.5.3
 _ZN2kj1_25AttachmentPromiseNodeBaseC2EONS_3OwnINS0_11PromiseNodeEEE@Base 0.5.3
 _ZN2kj1_26ImmediateBrokenPromiseNode3getERNS0_16ExceptionOrValueE@Base 0.5.3
 _ZN2kj1_26ImmediateBrokenPromiseNodeC1EONS_9ExceptionE@Base 0.5.3
 _ZN2kj1_26ImmediateBrokenPromiseNodeC2EONS_9ExceptionE@Base 0.5.3
 (optional=templinst)_ZN2kj1_5Debug15makeDescriptionIIRA20_KcEEENS_6StringEPS3_DpOT_@Base 0.5.3
 (optional=templinst)_ZN2kj1_5Debug15makeDescriptionIIRA69_KcEEENS_6StringEPS3_DpOT_@Base 0.5.3
 (optional=templinst)_ZN2kj1_5Debug15makeDescriptionIJRA20_KcEEENS_6StringEPS3_DpOT_@Base 0.5.3
 (optional=templinst)_ZN2kj1_5Debug15makeDescriptionIJRA69_KcEEENS_6StringEPS3_DpOT_@Base 0.5.3
 (optional=templinst)_ZN2kj1_5Debug3logIIRA173_KcNS_6StringEEEEvPS3_iNS_11LogSeverityES7_DpOT_@Base 0.5.3
 (optional=templinst)_ZN2kj1_5Debug3logIIRA39_KcRNS_9ExceptionEEEEvPS3_iNS_11LogSeverityES8_DpOT_@Base 0.5.3
 (optional=templinst)_ZN2kj1_5Debug3logIJRA173_KcNS_6StringEEEEvPS3_iNS_11LogSeverityES7_DpOT_@Base 0.5.3
 (optional=templinst)_ZN2kj1_5Debug3logIJRA39_KcRNS_9ExceptionEEEEvPS3_iNS_11LogSeverityES8_DpOT_@Base 0.5.3
 (optional=templinst)_ZN2kj1_5Debug5FaultC1IINS_6StringEEEEPKciiS6_S6_DpOT_@Base 0.5.3
 (optional=templinst)_ZN2kj1_5Debug5FaultC1IIRA11_KcEEEPS4_iNS_9Exception4TypeES7_S7_DpOT_@Base 0.5.3
 (optional=templinst)_ZN2kj1_5Debug5FaultC1IIRA120_KcEEEPS4_iNS_9Exception4TypeES7_S7_DpOT_@Base 0.5.3
 (optional=templinst)_ZN2kj1_5Debug5FaultC1IIRA129_KcEEEPS4_iNS_9Exception4TypeES7_S7_DpOT_@Base 0.5.3
 (optional=templinst)_ZN2kj1_5Debug5FaultC1IIRA136_KcEEEPS4_iNS_9Exception4TypeES7_S7_DpOT_@Base 0.5.3
 (optional=templinst)_ZN2kj1_5Debug5FaultC1IIRA144_KcEEEPS4_iNS_9Exception4TypeES7_S7_DpOT_@Base 0.5.3
 (optional=templinst)_ZN2kj1_5Debug5FaultC1IIRA14_KcEEEPS4_iNS_9Exception4TypeES7_S7_DpOT_@Base 0.5.3
 (optional=templinst)_ZN2kj1_5Debug5FaultC1IIRA19_KcRNS_6StringES8_PS4_EEES9_iNS_9Exception4TypeES9_S9_DpOT_@Base 0.5.3
 (optional=templinst)_ZN2kj1_5Debug5FaultC1IIRA21_KcRNS_8ArrayPtrIS4_EEEEEPS4_iNS_9Exception4TypeESA_SA_DpOT_@Base 0.5.3
 (optional=templinst)_ZN2kj1_5Debug5FaultC1IIRA23_KcEEEPS4_iNS_9Exception4TypeES7_S7_DpOT_@Base 0.5.3
 (optional=templinst)_ZN2kj1_5Debug5FaultC1IIRA24_KcEEEPS4_iNS_9Exception4TypeES7_S7_DpOT_@Base 0.5.3
 (optional=templinst)_ZN2kj1_5Debug5FaultC1IIRA27_KcEEEPS4_iNS_9Exception4TypeES7_S7_DpOT_@Base 0.5.3
 (optional=templinst)_ZN2kj1_5Debug5FaultC1IIRA28_KcEEEPS4_iNS_9Exception4TypeES7_S7_DpOT_@Base 0.5.3
 (optional=templinst)_ZN2kj1_5Debug5FaultC1IIRA32_KcRNS_9StringPtrEEEEPS4_iNS_9Exception4TypeES9_S9_DpOT_@Base 0.5.3
 (optional=templinst)_ZN2kj1_5Debug5FaultC1IIRA33_KcEEEPS4_iNS_9Exception4TypeES7_S7_DpOT_@Base 0.5.3
 (optional=templinst)_ZN2kj1_5Debug5FaultC1IIRA34_KcEEEPS4_iNS_9Exception4TypeES7_S7_DpOT_@Base 0.5.3
 (optional=templinst)_ZN2kj1_5Debug5FaultC1IIRA35_KcEEEPS4_iNS_9Exception4TypeES7_S7_DpOT_@Base 0.5.3
 (optional=templinst)_ZN2kj1_5Debug5FaultC1IIRA37_KcEEEPS4_iNS_9Exception4TypeES7_S7_DpOT_@Base 0.5.3
 (optional=templinst)_ZN2kj1_5Debug5FaultC1IIRA38_KcEEEPS4_iNS_9Exception4TypeES7_S7_DpOT_@Base 0.5.3
 (optional=templinst)_ZN2kj1_5Debug5FaultC1IIRA40_KcEEEPS4_iNS_9Exception4TypeES7_S7_DpOT_@Base 0.5.3
 (optional=templinst)_ZN2kj1_5Debug5FaultC1IIRA40_KcRNS_9StringPtrEEEEPS4_iNS_9Exception4TypeES9_S9_DpOT_@Base 0.5.3
 (optional=templinst)_ZN2kj1_5Debug5FaultC1IIRA41_KcEEEPS4_iNS_9Exception4TypeES7_S7_DpOT_@Base 0.5.3
 (optional=templinst)_ZN2kj1_5Debug5FaultC1IIRA42_KcEEEPS4_iNS_9Exception4TypeES7_S7_DpOT_@Base 0.5.3
 (optional=templinst)_ZN2kj1_5Debug5FaultC1IIRA51_KcEEEPS4_iNS_9Exception4TypeES7_S7_DpOT_@Base 0.5.3
 (optional=templinst)_ZN2kj1_5Debug5FaultC1IIRA53_KcEEEPS4_iNS_9Exception4TypeES7_S7_DpOT_@Base 0.5.3
 (optional=templinst)_ZN2kj1_5Debug5FaultC1IIRA56_KcEEEPS4_iNS_9Exception4TypeES7_S7_DpOT_@Base 0.5.3
 (optional=templinst)_ZN2kj1_5Debug5FaultC1IIRA57_KcRiEEEPS4_iNS_9Exception4TypeES8_S8_DpOT_@Base 0.5.3
 (optional=templinst)_ZN2kj1_5Debug5FaultC1IIRA66_KcEEEPS4_iNS_9Exception4TypeES7_S7_DpOT_@Base 0.5.3
 (optional=templinst)_ZN2kj1_5Debug5FaultC1IIRA66_KcNS_6StringEEEEPS4_iNS_9Exception4TypeES8_S8_DpOT_@Base 0.5.3
 (optional=templinst)_ZN2kj1_5Debug5FaultC1IIRKiEEEPKciiS7_S7_DpOT_@Base 0.5.3
 (optional=templinst)_ZN2kj1_5Debug5FaultC1IIRNS_6StringES5_EEEPKciiS7_S7_DpOT_@Base 0.5.3
 (optional=templinst)_ZN2kj1_5Debug5FaultC1IIRiRNS_8ArrayPtrIKcEEEEEPS6_iiS9_S9_DpOT_@Base 0.5.3
 (optional=templinst)_ZN2kj1_5Debug5FaultC1IJNS_6StringEEEEPKciiS6_S6_DpOT_@Base 0.5.3
 (optional=templinst)_ZN2kj1_5Debug5FaultC1IJRA11_KcEEEPS4_iNS_9Exception4TypeES7_S7_DpOT_@Base 0.5.3
 (optional=templinst)_ZN2kj1_5Debug5FaultC1IJRA120_KcEEEPS4_iNS_9Exception4TypeES7_S7_DpOT_@Base 0.5.3
 (optional=templinst)_ZN2kj1_5Debug5FaultC1IJRA129_KcEEEPS4_iNS_9Exception4TypeES7_S7_DpOT_@Base 0.5.3
 (optional=templinst)_ZN2kj1_5Debug5FaultC1IJRA136_KcEEEPS4_iNS_9Exception4TypeES7_S7_DpOT_@Base 0.5.3
 (optional=templinst)_ZN2kj1_5Debug5FaultC1IJRA144_KcEEEPS4_iNS_9Exception4TypeES7_S7_DpOT_@Base 0.5.3
 (optional=templinst)_ZN2kj1_5Debug5FaultC1IJRA14_KcEEEPS4_iNS_9Exception4TypeES7_S7_DpOT_@Base 0.5.3
 (optional=templinst)_ZN2kj1_5Debug5FaultC1IJRA19_KcRNS_6StringES8_PS4_EEES9_iNS_9Exception4TypeES9_S9_DpOT_@Base 0.5.3
 (optional=templinst)_ZN2kj1_5Debug5FaultC1IJRA21_KcRNS_8ArrayPtrIS4_EEEEEPS4_iNS_9Exception4TypeESA_SA_DpOT_@Base 0.5.3
 (optional=templinst)_ZN2kj1_5Debug5FaultC1IJRA23_KcEEEPS4_iNS_9Exception4TypeES7_S7_DpOT_@Base 0.5.3
 (optional=templinst)_ZN2kj1_5Debug5FaultC1IJRA24_KcEEEPS4_iNS_9Exception4TypeES7_S7_DpOT_@Base 0.5.3
 (optional=templinst)_ZN2kj1_5Debug5FaultC1IJRA27_KcEEEPS4_iNS_9Exception4TypeES7_S7_DpOT_@Base 0.5.3
 (optional=templinst)_ZN2kj1_5Debug5FaultC1IJRA28_KcEEEPS4_iNS_9Exception4TypeES7_S7_DpOT_@Base 0.5.3
 (optional=templinst)_ZN2kj1_5Debug5FaultC1IJRA32_KcRNS_9StringPtrEEEEPS4_iNS_9Exception4TypeES9_S9_DpOT_@Base 0.5.3
 (optional=templinst)_ZN2kj1_5Debug5FaultC1IJRA33_KcEEEPS4_iNS_9Exception4TypeES7_S7_DpOT_@Base 0.5.3
 (optional=templinst)_ZN2kj1_5Debug5FaultC1IJRA34_KcEEEPS4_iNS_9Exception4TypeES7_S7_DpOT_@Base 0.5.3
 (optional=templinst)_ZN2kj1_5Debug5FaultC1IJRA35_KcEEEPS4_iNS_9Exception4TypeES7_S7_DpOT_@Base 0.5.3
 (optional=templinst)_ZN2kj1_5Debug5FaultC1IJRA37_KcEEEPS4_iNS_9Exception4TypeES7_S7_DpOT_@Base 0.5.3
 (optional=templinst)_ZN2kj1_5Debug5FaultC1IJRA38_KcEEEPS4_iNS_9Exception4TypeES7_S7_DpOT_@Base 0.5.3
 (optional=templinst)_ZN2kj1_5Debug5FaultC1IJRA40_KcEEEPS4_iNS_9Exception4TypeES7_S7_DpOT_@Base 0.5.3
 (optional=templinst)_ZN2kj1_5Debug5FaultC1IJRA40_KcRNS_9StringPtrEEEEPS4_iNS_9Exception4TypeES9_S9_DpOT_@Base 0.5.3
 (optional=templinst)_ZN2kj1_5Debug5FaultC1IJRA41_KcEEEPS4_iNS_9Exception4TypeES7_S7_DpOT_@Base 0.5.3
 (optional=templinst)_ZN2kj1_5Debug5FaultC1IJRA42_KcEEEPS4_iNS_9Exception4TypeES7_S7_DpOT_@Base 0.5.3
 (optional=templinst)_ZN2kj1_5Debug5FaultC1IJRA51_KcEEEPS4_iNS_9Exception4TypeES7_S7_DpOT_@Base 0.5.3
 (optional=templinst)_ZN2kj1_5Debug5FaultC1IJRA53_KcEEEPS4_iNS_9Exception4TypeES7_S7_DpOT_@Base 0.5.3
 (optional=templinst)_ZN2kj1_5Debug5FaultC1IJRA56_KcEEEPS4_iNS_9Exception4TypeES7_S7_DpOT_@Base 0.5.3
 (optional=templinst)_ZN2kj1_5Debug5FaultC1IJRA57_KcRiEEEPS4_iNS_9Exception4TypeES8_S8_DpOT_@Base 0.5.3
 (optional=templinst)_ZN2kj1_5Debug5FaultC1IJRA66_KcEEEPS4_iNS_9Exception4TypeES7_S7_DpOT_@Base 0.5.3
 (optional=templinst)_ZN2kj1_5Debug5FaultC1IJRA66_KcNS_6StringEEEEPS4_iNS_9Exception4TypeES8_S8_DpOT_@Base 0.5.3
 (optional=templinst)_ZN2kj1_5Debug5FaultC1IJRKiEEEPKciiS7_S7_DpOT_@Base 0.5.3
 (optional=templinst)_ZN2kj1_5Debug5FaultC1IJRNS_6StringES5_EEEPKciiS7_S7_DpOT_@Base 0.5.3
 (optional=templinst)_ZN2kj1_5Debug5FaultC1IJRiRNS_8ArrayPtrIKcEEEEEPS6_iiS9_S9_DpOT_@Base 0.5.3
 (optional=templinst)_ZN2kj1_5Debug5FaultC2IINS_6StringEEEEPKciiS6_S6_DpOT_@Base 0.5.3
 (optional=templinst)_ZN2kj1_5Debug5FaultC2IIRA19_KcRNS_6StringES8_PS4_EEES9_iNS_9Exception4TypeES9_S9_DpOT_@Base 0.5.3
 (optional=templinst)_ZN2kj1_5Debug5FaultC2IIRA21_KcRNS_8ArrayPtrIS4_EEEEEPS4_iNS_9Exception4TypeESA_SA_DpOT_@Base 0.5.3
 (optional=templinst)_ZN2kj1_5Debug5FaultC2IIRA27_KcEEEPS4_iNS_9Exception4TypeES7_S7_DpOT_@Base 0.5.3
 (optional=templinst)_ZN2kj1_5Debug5FaultC2IIRA32_KcRNS_9StringPtrEEEEPS4_iNS_9Exception4TypeES9_S9_DpOT_@Base 0.5.3
 (optional=templinst)_ZN2kj1_5Debug5FaultC2IIRA42_KcEEEPS4_iNS_9Exception4TypeES7_S7_DpOT_@Base 0.5.3
 (optional=templinst)_ZN2kj1_5Debug5FaultC2IIRA57_KcRiEEEPS4_iNS_9Exception4TypeES8_S8_DpOT_@Base 0.5.3
 (optional=templinst)_ZN2kj1_5Debug5FaultC2IIRA66_KcNS_6StringEEEEPS4_iNS_9Exception4TypeES8_S8_DpOT_@Base 0.5.3
 (optional=templinst)_ZN2kj1_5Debug5FaultC2IIRKiEEEPKciiS7_S7_DpOT_@Base 0.5.3
 (optional=templinst)_ZN2kj1_5Debug5FaultC2IIRNS_6StringES5_EEEPKciiS7_S7_DpOT_@Base 0.5.3
 (optional=templinst)_ZN2kj1_5Debug5FaultC2IIRiRNS_8ArrayPtrIKcEEEEEPS6_iiS9_S9_DpOT_@Base 0.5.3
 (optional=templinst)_ZN2kj1_5Debug5FaultC2IJNS_6StringEEEEPKciiS6_S6_DpOT_@Base 0.5.3
 (optional=templinst)_ZN2kj1_5Debug5FaultC2IJRA11_KcEEEPS4_iNS_9Exception4TypeES7_S7_DpOT_@Base 0.5.3
 (optional=templinst)_ZN2kj1_5Debug5FaultC2IJRA120_KcEEEPS4_iNS_9Exception4TypeES7_S7_DpOT_@Base 0.5.3
 (optional=templinst)_ZN2kj1_5Debug5FaultC2IJRA129_KcEEEPS4_iNS_9Exception4TypeES7_S7_DpOT_@Base 0.5.3
 (optional=templinst)_ZN2kj1_5Debug5FaultC2IJRA136_KcEEEPS4_iNS_9Exception4TypeES7_S7_DpOT_@Base 0.5.3
 (optional=templinst)_ZN2kj1_5Debug5FaultC2IJRA144_KcEEEPS4_iNS_9Exception4TypeES7_S7_DpOT_@Base 0.5.3
 (optional=templinst)_ZN2kj1_5Debug5FaultC2IJRA14_KcEEEPS4_iNS_9Exception4TypeES7_S7_DpOT_@Base 0.5.3
 (optional=templinst)_ZN2kj1_5Debug5FaultC2IJRA19_KcRNS_6StringES8_PS4_EEES9_iNS_9Exception4TypeES9_S9_DpOT_@Base 0.5.3
 (optional=templinst)_ZN2kj1_5Debug5FaultC2IJRA21_KcRNS_8ArrayPtrIS4_EEEEEPS4_iNS_9Exception4TypeESA_SA_DpOT_@Base 0.5.3
 (optional=templinst)_ZN2kj1_5Debug5FaultC2IJRA23_KcEEEPS4_iNS_9Exception4TypeES7_S7_DpOT_@Base 0.5.3
 (optional=templinst)_ZN2kj1_5Debug5FaultC2IJRA24_KcEEEPS4_iNS_9Exception4TypeES7_S7_DpOT_@Base 0.5.3
 (optional=templinst)_ZN2kj1_5Debug5FaultC2IJRA27_KcEEEPS4_iNS_9Exception4TypeES7_S7_DpOT_@Base 0.5.3
 (optional=templinst)_ZN2kj1_5Debug5FaultC2IJRA28_KcEEEPS4_iNS_9Exception4TypeES7_S7_DpOT_@Base 0.5.3
 (optional=templinst)_ZN2kj1_5Debug5FaultC2IJRA32_KcRNS_9StringPtrEEEEPS4_iNS_9Exception4TypeES9_S9_DpOT_@Base 0.5.3
 (optional=templinst)_ZN2kj1_5Debug5FaultC2IJRA33_KcEEEPS4_iNS_9Exception4TypeES7_S7_DpOT_@Base 0.5.3
 (optional=templinst)_ZN2kj1_5Debug5FaultC2IJRA34_KcEEEPS4_iNS_9Exception4TypeES7_S7_DpOT_@Base 0.5.3
 (optional=templinst)_ZN2kj1_5Debug5FaultC2IJRA35_KcEEEPS4_iNS_9Exception4TypeES7_S7_DpOT_@Base 0.5.3
 (optional=templinst)_ZN2kj1_5Debug5FaultC2IJRA37_KcEEEPS4_iNS_9Exception4TypeES7_S7_DpOT_@Base 0.5.3
 (optional=templinst)_ZN2kj1_5Debug5FaultC2IJRA38_KcEEEPS4_iNS_9Exception4TypeES7_S7_DpOT_@Base 0.5.3
 (optional=templinst)_ZN2kj1_5Debug5FaultC2IJRA40_KcEEEPS4_iNS_9Exception4TypeES7_S7_DpOT_@Base 0.5.3
 (optional=templinst)_ZN2kj1_5Debug5FaultC2IJRA40_KcRNS_9StringPtrEEEEPS4_iNS_9Exception4TypeES9_S9_DpOT_@Base 0.5.3
 (optional=templinst)_ZN2kj1_5Debug5FaultC2IJRA41_KcEEEPS4_iNS_9Exception4TypeES7_S7_DpOT_@Base 0.5.3
 (optional=templinst)_ZN2kj1_5Debug5FaultC2IJRA42_KcEEEPS4_iNS_9Exception4TypeES7_S7_DpOT_@Base 0.5.3
 (optional=templinst)_ZN2kj1_5Debug5FaultC2IJRA51_KcEEEPS4_iNS_9Exception4TypeES7_S7_DpOT_@Base 0.5.3
 (optional=templinst)_ZN2kj1_5Debug5FaultC2IJRA53_KcEEEPS4_iNS_9Exception4TypeES7_S7_DpOT_@Base 0.5.3
 (optional=templinst)_ZN2kj1_5Debug5FaultC2IJRA56_KcEEEPS4_iNS_9Exception4TypeES7_S7_DpOT_@Base 0.5.3
 (optional=templinst)_ZN2kj1_5Debug5FaultC2IJRA57_KcRiEEEPS4_iNS_9Exception4TypeES8_S8_DpOT_@Base 0.5.3
 (optional=templinst)_ZN2kj1_5Debug5FaultC2IJRA66_KcEEEPS4_iNS_9Exception4TypeES7_S7_DpOT_@Base 0.5.3
 (optional=templinst)_ZN2kj1_5Debug5FaultC2IJRA66_KcNS_6StringEEEEPS4_iNS_9Exception4TypeES8_S8_DpOT_@Base 0.5.3
 (optional=templinst)_ZN2kj1_5Debug5FaultC2IJRKiEEEPKciiS7_S7_DpOT_@Base 0.5.3
 (optional=templinst)_ZN2kj1_5Debug5FaultC2IJRNS_6StringES5_EEEPKciiS7_S7_DpOT_@Base 0.5.3
 (optional=templinst)_ZN2kj1_5Debug5FaultC2IJRiRNS_8ArrayPtrIKcEEEEEPS6_iiS9_S9_DpOT_@Base 0.5.3
 _ZN2kj1_5Event13armDepthFirstEv@Base 0.5.3
 _ZN2kj1_5Event15armBreadthFirstEv@Base 0.5.3
 _ZN2kj1_5Event16getInnerForTraceEv@Base 0.5.3
 _ZN2kj1_5Event5traceEv@Base 0.5.3
 _ZN2kj1_5EventC1Ev@Base 0.5.3
 _ZN2kj1_5EventC2Ev@Base 0.5.3
 _ZN2kj1_5EventD1Ev@Base 0.5.3
 _ZN2kj1_5EventD2Ev@Base 0.5.3
 _ZN2kj1_5yieldEv@Base 0.5.3
 (optional=templinst)_ZN2kj1_6concatIINS_8ArrayPtrIKcEEEEENS_6StringEDpOT_@Base 0.5.3
 (optional=templinst)_ZN2kj1_6concatIJNS_8ArrayPtrIKcEEEEENS_6StringEDpOT_@Base 0.5.3
 _ZN2kj1_6detachEONS_7PromiseIvEE@Base 0.5.3
 _ZN2kj1_8waitImplEONS_3OwnINS0_11PromiseNodeEEERNS0_16ExceptionOrValueERNS_9WaitScopeE@Base 0.5.3
 _ZN2kj1_9neverDoneEv@Base 0.5.3
 (optional=templinst)_ZN2kj20PromiseFulfillerPairIvED1Ev@Base 0.5.3
 (optional=templinst)_ZN2kj20PromiseFulfillerPairIvED2Ev@Base 0.5.3
 (optional=templinst)_ZN2kj22newPromiseAndFulfillerIvEENS_20PromiseFulfillerPairIT_EEv@Base 0.5.3
 _ZN2kj23LowLevelAsyncIoProvider20wrapDatagramSocketFdEij@Base 0.5.3
 (optional=templinst)_ZN2kj3strIIRA25_KcRKtRA2_S1_EEENS_6StringEDpOT_@Base 0.5.3
 (optional=templinst)_ZN2kj3strIIRA27_KcEEENS_6StringEDpOT_@Base 0.5.3
 (optional=templinst)_ZN2kj3strIIRA28_KcEEENS_6StringEDpOT_@Base 0.5.3
 (optional=templinst)_ZN2kj3strIIRA3_KcjEEENS_6StringEDpOT_@Base 0.5.3
 (optional=templinst)_ZN2kj3strIIRA42_KcEEENS_6StringEDpOT_@Base 0.5.3
 (optional=templinst)_ZN2kj3strIIRA46_cctEEENS_6StringEDpOT_@Base 0.5.3
 (optional=templinst)_ZN2kj3strIIRA6_KcRA108_S1_EEENS_6StringEDpOT_@Base 0.5.3
 (optional=templinst)_ZN2kj3strIIRiEEENS_6StringEDpOT_@Base 0.5.3
 (optional=templinst)_ZN2kj3strIIcRA46_cRA3_KctEEENS_6StringEDpOT_@Base 0.5.3
 (optional=templinst)_ZN2kj3strIJRA25_KcRKtRA2_S1_EEENS_6StringEDpOT_@Base 0.5.3
 (optional=templinst)_ZN2kj3strIJRA27_KcEEENS_6StringEDpOT_@Base 0.5.3
 (optional=templinst)_ZN2kj3strIJRA28_KcEEENS_6StringEDpOT_@Base 0.5.3
 (optional=templinst)_ZN2kj3strIJRA3_KcjEEENS_6StringEDpOT_@Base 0.5.3
 (optional=templinst)_ZN2kj3strIJRA42_KcEEENS_6StringEDpOT_@Base 0.5.3
 (optional=templinst)_ZN2kj3strIJRA46_cctEEENS_6StringEDpOT_@Base 0.5.3
 (optional=templinst)_ZN2kj3strIJRA6_KcRA108_S1_EEENS_6StringEDpOT_@Base 0.5.3
 (optional=templinst)_ZN2kj3strIJRiEEENS_6StringEDpOT_@Base 0.5.3
 (optional=templinst)_ZN2kj3strIJcRA46_cRA3_KctEEENS_6StringEDpOT_@Base 0.5.3
 (optional=templinst)_ZN2kj4heapINS_1_11TaskSetImplEIRNS1_19LoggingErrorHandlerEEEENS_3OwnIT_EEDpOT0_@Base 0.5.3
 (optional=templinst)_ZN2kj4heapINS_1_11TaskSetImplEJRNS1_19LoggingErrorHandlerEEEENS_3OwnIT_EEDpOT0_@Base 0.5.3
 (optional=templinst)_ZN2kj4heapINS_1_16ChainPromiseNodeEINS_3OwnINS1_11PromiseNodeEEEEEENS3_IT_EEDpOT0_@Base 0.5.3
 (optional=templinst)_ZN2kj4heapINS_1_16ChainPromiseNodeEJNS_3OwnINS1_11PromiseNodeEEEEEENS3_IT_EEDpOT0_@Base 0.5.3
 (optional=templinst)_ZN2kj4heapINS_1_20ArrayJoinPromiseNodeIvEEINS_5ArrayINS_3OwnINS1_11PromiseNodeEEEEENS4_INS1_11ExceptionOrINS1_4VoidEEEEEEEENS5_IT_EEDpOT0_@Base 0.5.3
 (optional=templinst)_ZN2kj4heapINS_1_20ArrayJoinPromiseNodeIvEEJNS_5ArrayINS_3OwnINS1_11PromiseNodeEEEEENS4_INS1_11ExceptionOrINS1_4VoidEEEEEEEENS5_IT_EEDpOT0_@Base 0.5.3
 (optional=templinst)_ZN2kj4heapINS_1_20ImmediatePromiseNodeINS1_4VoidEEEIS3_EEENS_3OwnIT_EEDpOT0_@Base 0.5.3
 (optional=templinst)_ZN2kj4heapINS_1_20ImmediatePromiseNodeINS1_4VoidEEEJS3_EEENS_3OwnIT_EEDpOT0_@Base 0.5.3
 (optional=templinst)_ZN2kj4heapINS_1_20ImmediatePromiseNodeINS_3OwnINS_13AsyncIoStreamEEEEEIS5_EEENS3_IT_EEDpOT0_@Base 0.5.3
 (optional=templinst)_ZN2kj4heapINS_1_20ImmediatePromiseNodeINS_3OwnINS_13AsyncIoStreamEEEEEJS5_EEENS3_IT_EEDpOT0_@Base 0.5.3
 (optional=templinst)_ZN2kj4heapINS_1_20ImmediatePromiseNodeImEEImEEENS_3OwnIT_EEDpOT0_@Base 0.5.3
 (optional=templinst)_ZN2kj4heapINS_1_20ImmediatePromiseNodeImEEJmEEENS_3OwnIT_EEDpOT0_@Base 0.5.3
 (optional=templinst)_ZN2kj4heapINS_1_26ImmediateBrokenPromiseNodeEINS_9ExceptionEEEENS_3OwnIT_EEDpOT0_@Base 0.5.3
 (optional=templinst)_ZN2kj4heapINS_1_26ImmediateBrokenPromiseNodeEJNS_9ExceptionEEEENS_3OwnIT_EEDpOT0_@Base 0.5.3
 _ZN2kj5Timer20makeTimeoutExceptionEv@Base 0.5.3
 _ZN2kj7TaskSet3addEONS_7PromiseIvEE@Base 0.5.3
 _ZN2kj7TaskSet5traceEv@Base 0.5.3
 _ZN2kj7TaskSetC1ERNS0_12ErrorHandlerE@Base 0.5.3
 _ZN2kj7TaskSetC2ERNS0_12ErrorHandlerE@Base 0.5.3
 _ZN2kj7TaskSetD1Ev@Base 0.5.3
 _ZN2kj7TaskSetD2Ev@Base 0.5.3
 (optional=templinst)_ZN2kj8strArrayINS_5ArrayINS_6StringEEEEES2_OT_PKc@Base 0.5.3
 (optional=templinst)_ZN2kj8strArrayIRNS_6VectorINS_6StringEEEEES2_OT_PKc@Base 0.5.3
 _ZN2kj9EventLoop10enterScopeEv@Base 0.5.3
 _ZN2kj9EventLoop10leaveScopeEv@Base 0.5.3
 _ZN2kj9EventLoop11setRunnableEb@Base 0.5.3
 _ZN2kj9EventLoop3runEj@Base 0.5.3
 _ZN2kj9EventLoop4turnEv@Base 0.5.3
 _ZN2kj9EventLoopC1ERNS_9EventPortE@Base 0.5.3
 _ZN2kj9EventLoopC1Ev@Base 0.5.3
 _ZN2kj9EventLoopC2ERNS_9EventPortE@Base 0.5.3
 _ZN2kj9EventLoopC2Ev@Base 0.5.3
 _ZN2kj9EventLoopD1Ev@Base 0.5.3
 _ZN2kj9EventLoopD2Ev@Base 0.5.3
 _ZN2kj9EventPort11setRunnableEb@Base 0.5.3
 _ZNK2kj13UnixEventPort4wakeEv@Base 0.5.3
 (optional=templinst)_ZNK2kj1_12HeapDisposerINS0_11TaskSetImpl4TaskEE11disposeImplEPv@Base 0.5.3
 (optional=templinst)_ZNK2kj1_12HeapDisposerINS0_11TaskSetImplEE11disposeImplEPv@Base 0.5.3
 (optional=templinst)_ZNK2kj1_12HeapDisposerINS0_16ChainPromiseNodeEE11disposeImplEPv@Base 0.5.3
 (optional=templinst)_ZNK2kj1_12HeapDisposerINS0_18AdapterPromiseNodeI9siginfo_tNS_13UnixEventPort20SignalPromiseAdapterEEEE11disposeImplEPv@Base 0.5.3
 (optional=templinst)_ZNK2kj1_12HeapDisposerINS0_18AdapterPromiseNodeINS0_4VoidENS0_26PromiseAndFulfillerAdapterIvEEEEE11disposeImplEPv@Base 0.5.3
 (optional=templinst)_ZNK2kj1_12HeapDisposerINS0_18AdapterPromiseNodeINS0_4VoidENS_13UnixEventPort19TimerPromiseAdapterEEEE11disposeImplEPv@Base 0.5.3
 (optional=templinst)_ZNK2kj1_12HeapDisposerINS0_20ArrayJoinPromiseNodeIvEEE11disposeImplEPv@Base 0.5.3
 (optional=templinst)_ZNK2kj1_12HeapDisposerINS0_20ImmediatePromiseNodeINS0_4VoidEEEE11disposeImplEPv@Base 0.5.3
 (optional=templinst)_ZNK2kj1_12HeapDisposerINS0_20ImmediatePromiseNodeINS_3OwnINS_13AsyncIoStreamEEEEEE11disposeImplEPv@Base 0.5.3
 (optional=templinst)_ZNK2kj1_12HeapDisposerINS0_20ImmediatePromiseNodeImEEE11disposeImplEPv@Base 0.5.3
 (optional=templinst)_ZNK2kj1_12HeapDisposerINS0_26ImmediateBrokenPromiseNodeEE11disposeImplEPv@Base 0.5.3
 (optional=templinst)_ZNK2kj1_12HeapDisposerINS_13UnixEventPort8TimerSetEE11disposeImplEPv@Base 0.5.3
 (optional=templinst)_ZNK2kj1_12HeapDisposerINS_6ThreadEE11disposeImplEPv@Base 0.5.3
 (optional=templinst)_ZNK2kj1_12IdentityFuncINS_7PromiseIvEEEclEv@Base 0.5.3
 _ZNK2kj1_13NullEventPort4wakeEv@Base 0.5.3
 (optional=templinst)_ZNK2kj1_13WeakFulfillerIvE11disposeImplEPv@Base 0.5.3
 _ZNK2kj1_9NeverDone4waitERNS_9WaitScopeE@Base 0.5.3
 _ZNK2kj9EventPort4wakeEv@Base 0.5.3
 (optional=templinst)_ZNSt8_Rb_treeIPN2kj13UnixEventPort19TimerPromiseAdapterES3_St9_IdentityIS3_ENS1_8TimerSet11TimerBeforeESaIS3_EE15_M_insert_equalIS3_EESt17_Rb_tree_iteratorIS3_EOT_@Base 0.5.3
 (optional=templinst)_ZNSt8_Rb_treeIPN2kj13UnixEventPort19TimerPromiseAdapterES3_St9_IdentityIS3_ENS1_8TimerSet11TimerBeforeESaIS3_EE8_M_eraseEPSt13_Rb_tree_nodeIS3_E@Base 0.5.3
 (optional=templinst)_ZNSt8_Rb_treeIPN2kj1_11TaskSetImpl4TaskESt4pairIKS4_NS0_3OwnIS3_EEESt10_Select1stIS9_ESt4lessIS4_ESaIS9_EE16_M_insert_uniqueIS5_IS4_S8_EEES5_ISt17_Rb_tree_iteratorIS9_EbEOT_@Base 0.5.3
 (optional=templinst)_ZNSt8_Rb_treeIPN2kj1_11TaskSetImpl4TaskESt4pairIKS4_NS0_3OwnIS3_EEESt10_Select1stIS9_ESt4lessIS4_ESaIS9_EE8_M_eraseEPSt13_Rb_tree_nodeIS9_E@Base 0.5.3
 _ZTIN2kj12DatagramPortE@Base 0.5.3
 _ZTIN2kj13AsyncIoStreamE@Base 0.5.3
 _ZTIN2kj13UnixEventPortE@Base 0.5.3
 _ZTIN2kj14NetworkAddressE@Base 0.5.3
 _ZTIN2kj15AsyncIoProviderE@Base 0.5.3
 _ZTIN2kj16AsyncInputStreamE@Base 0.5.3
 _ZTIN2kj16DatagramReceiverE@Base 0.5.3
 _ZTIN2kj16PromiseFulfillerI9siginfo_tEE@Base 0.5.3
 _ZTIN2kj16PromiseFulfillerIvEE@Base 0.5.3
 _ZTIN2kj17AsyncOutputStreamE@Base 0.5.3
 _ZTIN2kj18ConnectionReceiverE@Base 0.5.3
 _ZTIN2kj1_11ForkHubBaseE@Base 0.5.3
 _ZTIN2kj1_11PromiseNodeE@Base 0.5.3
 _ZTIN2kj1_11TaskSetImpl4TaskE@Base 0.5.3
 _ZTIN2kj1_12HeapDisposerINS0_11TaskSetImpl4TaskEEE@Base 0.5.3
 _ZTIN2kj1_12HeapDisposerINS0_11TaskSetImplEEE@Base 0.5.3
 _ZTIN2kj1_12HeapDisposerINS0_16ChainPromiseNodeEEE@Base 0.5.3
 _ZTIN2kj1_12HeapDisposerINS0_18AdapterPromiseNodeI9siginfo_tNS_13UnixEventPort20SignalPromiseAdapterEEEEE@Base 0.5.3
 _ZTIN2kj1_12HeapDisposerINS0_18AdapterPromiseNodeINS0_4VoidENS0_26PromiseAndFulfillerAdapterIvEEEEEE@Base 0.5.3
 _ZTIN2kj1_12HeapDisposerINS0_18AdapterPromiseNodeINS0_4VoidENS_13UnixEventPort19TimerPromiseAdapterEEEEE@Base 0.5.3
 _ZTIN2kj1_12HeapDisposerINS0_20ArrayJoinPromiseNodeIvEEEE@Base 0.5.3
 _ZTIN2kj1_12HeapDisposerINS0_20ImmediatePromiseNodeINS0_4VoidEEEEE@Base 0.5.3
 _ZTIN2kj1_12HeapDisposerINS0_20ImmediatePromiseNodeINS_3OwnINS_13AsyncIoStreamEEEEEEE@Base 0.5.3
 _ZTIN2kj1_12HeapDisposerINS0_20ImmediatePromiseNodeImEEEE@Base 0.5.3
 _ZTIN2kj1_12HeapDisposerINS0_26ImmediateBrokenPromiseNodeEEE@Base 0.5.3
 _ZTIN2kj1_12HeapDisposerINS_13UnixEventPort8TimerSetEEE@Base 0.5.3
 _ZTIN2kj1_12HeapDisposerINS_6ThreadEEE@Base 0.5.3
 _ZTIN2kj1_12RunnableImplIZNS0_11TaskSetImpl4Task4fireEvEUlvE_EE@Base 0.5.3
 _ZTIN2kj1_13NullEventPortE@Base 0.5.3
 _ZTIN2kj1_13WeakFulfillerIvEE@Base 0.5.3
 _ZTIN2kj1_14ForkBranchBaseE@Base 0.5.3
 _ZTIN2kj1_16ChainPromiseNodeE@Base 0.5.3
 _ZTIN2kj1_18AdapterPromiseNodeI9siginfo_tNS_13UnixEventPort20SignalPromiseAdapterEEE@Base 0.5.3
 _ZTIN2kj1_18AdapterPromiseNodeINS0_4VoidENS0_26PromiseAndFulfillerAdapterIvEEEE@Base 0.5.3
 _ZTIN2kj1_18AdapterPromiseNodeINS0_4VoidENS_13UnixEventPort19TimerPromiseAdapterEEE@Base 0.5.3
 _ZTIN2kj1_19LoggingErrorHandlerE@Base 0.5.3
 _ZTIN2kj1_20ArrayJoinPromiseNodeIvEE@Base 0.5.3
 _ZTIN2kj1_20EagerPromiseNodeBaseE@Base 0.5.3
 _ZTIN2kj1_20ImmediatePromiseNodeINS0_4VoidEEE@Base 0.5.3
 _ZTIN2kj1_20ImmediatePromiseNodeINS_3OwnINS_13AsyncIoStreamEEEEE@Base 0.5.3
 _ZTIN2kj1_20ImmediatePromiseNodeImEE@Base 0.5.3
 _ZTIN2kj1_22AdapterPromiseNodeBaseE@Base 0.5.3
 _ZTIN2kj1_24ArrayJoinPromiseNodeBase6BranchE@Base 0.5.3
 _ZTIN2kj1_24ArrayJoinPromiseNodeBaseE@Base 0.5.3
 _ZTIN2kj1_24ExclusiveJoinPromiseNode6BranchE@Base 0.5.3
 _ZTIN2kj1_24ExclusiveJoinPromiseNodeE@Base 0.5.3
 _ZTIN2kj1_24ImmediatePromiseNodeBaseE@Base 0.5.3
 _ZTIN2kj1_24TransformPromiseNodeBaseE@Base 0.5.3
 _ZTIN2kj1_25AttachmentPromiseNodeBaseE@Base 0.5.3
 _ZTIN2kj1_26ImmediateBrokenPromiseNodeE@Base 0.5.3
 _ZTIN2kj1_5EventE@Base 0.5.3
 _ZTIN2kj1_8RunnableE@Base 0.5.3
 _ZTIN2kj23LowLevelAsyncIoProviderE@Base 0.5.3
 _ZTIN2kj5TimerE@Base 0.5.3
 _ZTIN2kj7NetworkE@Base 0.5.3
 _ZTIN2kj7TaskSet12ErrorHandlerE@Base 0.5.3
 _ZTIN2kj8DisposerE@Base 0.5.3
 _ZTIN2kj8FunctionIFvvEE5IfaceE@Base 0.5.3
 _ZTIN2kj9EventPortE@Base 0.5.3
 _ZTSN2kj12DatagramPortE@Base 0.5.3
 _ZTSN2kj13AsyncIoStreamE@Base 0.5.3
 _ZTSN2kj13UnixEventPortE@Base 0.5.3
 _ZTSN2kj14NetworkAddressE@Base 0.5.3
 _ZTSN2kj15AsyncIoProviderE@Base 0.5.3
 _ZTSN2kj16AsyncInputStreamE@Base 0.5.3
 _ZTSN2kj16DatagramReceiverE@Base 0.5.3
 _ZTSN2kj16PromiseFulfillerI9siginfo_tEE@Base 0.5.3
 _ZTSN2kj16PromiseFulfillerIvEE@Base 0.5.3
 _ZTSN2kj17AsyncOutputStreamE@Base 0.5.3
 _ZTSN2kj18ConnectionReceiverE@Base 0.5.3
 _ZTSN2kj1_11ForkHubBaseE@Base 0.5.3
 _ZTSN2kj1_11PromiseNodeE@Base 0.5.3
 _ZTSN2kj1_11TaskSetImpl4TaskE@Base 0.5.3
 _ZTSN2kj1_12HeapDisposerINS0_11TaskSetImpl4TaskEEE@Base 0.5.3
 _ZTSN2kj1_12HeapDisposerINS0_11TaskSetImplEEE@Base 0.5.3
 _ZTSN2kj1_12HeapDisposerINS0_16ChainPromiseNodeEEE@Base 0.5.3
 _ZTSN2kj1_12HeapDisposerINS0_18AdapterPromiseNodeI9siginfo_tNS_13UnixEventPort20SignalPromiseAdapterEEEEE@Base 0.5.3
 _ZTSN2kj1_12HeapDisposerINS0_18AdapterPromiseNodeINS0_4VoidENS0_26PromiseAndFulfillerAdapterIvEEEEEE@Base 0.5.3
 _ZTSN2kj1_12HeapDisposerINS0_18AdapterPromiseNodeINS0_4VoidENS_13UnixEventPort19TimerPromiseAdapterEEEEE@Base 0.5.3
 _ZTSN2kj1_12HeapDisposerINS0_20ArrayJoinPromiseNodeIvEEEE@Base 0.5.3
 _ZTSN2kj1_12HeapDisposerINS0_20ImmediatePromiseNodeINS0_4VoidEEEEE@Base 0.5.3
 _ZTSN2kj1_12HeapDisposerINS0_20ImmediatePromiseNodeINS_3OwnINS_13AsyncIoStreamEEEEEEE@Base 0.5.3
 _ZTSN2kj1_12HeapDisposerINS0_20ImmediatePromiseNodeImEEEE@Base 0.5.3
 _ZTSN2kj1_12HeapDisposerINS0_26ImmediateBrokenPromiseNodeEEE@Base 0.5.3
 _ZTSN2kj1_12HeapDisposerINS_13UnixEventPort8TimerSetEEE@Base 0.5.3
 _ZTSN2kj1_12HeapDisposerINS_6ThreadEEE@Base 0.5.3
 _ZTSN2kj1_12RunnableImplIZNS0_11TaskSetImpl4Task4fireEvEUlvE_EE@Base 0.5.3
 _ZTSN2kj1_13NullEventPortE@Base 0.5.3
 _ZTSN2kj1_13WeakFulfillerIvEE@Base 0.5.3
 _ZTSN2kj1_14ForkBranchBaseE@Base 0.5.3
 _ZTSN2kj1_16ChainPromiseNodeE@Base 0.5.3
 _ZTSN2kj1_18AdapterPromiseNodeI9siginfo_tNS_13UnixEventPort20SignalPromiseAdapterEEE@Base 0.5.3
 _ZTSN2kj1_18AdapterPromiseNodeINS0_4VoidENS0_26PromiseAndFulfillerAdapterIvEEEE@Base 0.5.3
 _ZTSN2kj1_18AdapterPromiseNodeINS0_4VoidENS_13UnixEventPort19TimerPromiseAdapterEEE@Base 0.5.3
 _ZTSN2kj1_19LoggingErrorHandlerE@Base 0.5.3
 _ZTSN2kj1_20ArrayJoinPromiseNodeIvEE@Base 0.5.3
 _ZTSN2kj1_20EagerPromiseNodeBaseE@Base 0.5.3
 _ZTSN2kj1_20ImmediatePromiseNodeINS0_4VoidEEE@Base 0.5.3
 _ZTSN2kj1_20ImmediatePromiseNodeINS_3OwnINS_13AsyncIoStreamEEEEE@Base 0.5.3
 _ZTSN2kj1_20ImmediatePromiseNodeImEE@Base 0.5.3
 _ZTSN2kj1_22AdapterPromiseNodeBaseE@Base 0.5.3
 _ZTSN2kj1_24ArrayJoinPromiseNodeBase6BranchE@Base 0.5.3
 _ZTSN2kj1_24ArrayJoinPromiseNodeBaseE@Base 0.5.3
 _ZTSN2kj1_24ExclusiveJoinPromiseNode6BranchE@Base 0.5.3
 _ZTSN2kj1_24ExclusiveJoinPromiseNodeE@Base 0.5.3
 _ZTSN2kj1_24ImmediatePromiseNodeBaseE@Base 0.5.3
 _ZTSN2kj1_24TransformPromiseNodeBaseE@Base 0.5.3
 _ZTSN2kj1_25AttachmentPromiseNodeBaseE@Base 0.5.3
 _ZTSN2kj1_26ImmediateBrokenPromiseNodeE@Base 0.5.3
 _ZTSN2kj1_5EventE@Base 0.5.3
 _ZTSN2kj1_8RunnableE@Base 0.5.3
 _ZTSN2kj23LowLevelAsyncIoProviderE@Base 0.5.3
 _ZTSN2kj5TimerE@Base 0.5.3
 _ZTSN2kj7NetworkE@Base 0.5.3
 _ZTSN2kj7TaskSet12ErrorHandlerE@Base 0.5.3
 _ZTSN2kj8DisposerE@Base 0.5.3
 _ZTSN2kj8FunctionIFvvEE5IfaceE@Base 0.5.3
 _ZTSN2kj9EventPortE@Base 0.5.3
 _ZTVN2kj12DatagramPortE@Base 0.5.3
 _ZTVN2kj13AsyncIoStreamE@Base 0.5.3
 _ZTVN2kj13UnixEventPortE@Base 0.5.3
 _ZTVN2kj14NetworkAddressE@Base 0.5.3
 _ZTVN2kj18ConnectionReceiverE@Base 0.5.3
 _ZTVN2kj1_11ForkHubBaseE@Base 0.5.3
 _ZTVN2kj1_11PromiseNodeE@Base 0.5.3
 _ZTVN2kj1_11TaskSetImpl4TaskE@Base 0.5.3
 _ZTVN2kj1_12HeapDisposerINS0_11TaskSetImpl4TaskEEE@Base 0.5.3
 _ZTVN2kj1_12HeapDisposerINS0_11TaskSetImplEEE@Base 0.5.3
 _ZTVN2kj1_12HeapDisposerINS0_16ChainPromiseNodeEEE@Base 0.5.3
 _ZTVN2kj1_12HeapDisposerINS0_18AdapterPromiseNodeI9siginfo_tNS_13UnixEventPort20SignalPromiseAdapterEEEEE@Base 0.5.3
 _ZTVN2kj1_12HeapDisposerINS0_18AdapterPromiseNodeINS0_4VoidENS0_26PromiseAndFulfillerAdapterIvEEEEEE@Base 0.5.3
 _ZTVN2kj1_12HeapDisposerINS0_18AdapterPromiseNodeINS0_4VoidENS_13UnixEventPort19TimerPromiseAdapterEEEEE@Base 0.5.3
 _ZTVN2kj1_12HeapDisposerINS0_20ArrayJoinPromiseNodeIvEEEE@Base 0.5.3
 _ZTVN2kj1_12HeapDisposerINS0_20ImmediatePromiseNodeINS0_4VoidEEEEE@Base 0.5.3
 _ZTVN2kj1_12HeapDisposerINS0_20ImmediatePromiseNodeINS_3OwnINS_13AsyncIoStreamEEEEEEE@Base 0.5.3
 _ZTVN2kj1_12HeapDisposerINS0_20ImmediatePromiseNodeImEEEE@Base 0.5.3
 _ZTVN2kj1_12HeapDisposerINS0_26ImmediateBrokenPromiseNodeEEE@Base 0.5.3
 _ZTVN2kj1_12HeapDisposerINS_13UnixEventPort8TimerSetEEE@Base 0.5.3
 _ZTVN2kj1_12HeapDisposerINS_6ThreadEEE@Base 0.5.3
 _ZTVN2kj1_12RunnableImplIZNS0_11TaskSetImpl4Task4fireEvEUlvE_EE@Base 0.5.3
 _ZTVN2kj1_13NullEventPortE@Base 0.5.3
 _ZTVN2kj1_13WeakFulfillerIvEE@Base 0.5.3
 _ZTVN2kj1_14ForkBranchBaseE@Base 0.5.3
 _ZTVN2kj1_16ChainPromiseNodeE@Base 0.5.3
 _ZTVN2kj1_18AdapterPromiseNodeI9siginfo_tNS_13UnixEventPort20SignalPromiseAdapterEEE@Base 0.5.3
 _ZTVN2kj1_18AdapterPromiseNodeINS0_4VoidENS0_26PromiseAndFulfillerAdapterIvEEEE@Base 0.5.3
 _ZTVN2kj1_18AdapterPromiseNodeINS0_4VoidENS_13UnixEventPort19TimerPromiseAdapterEEE@Base 0.5.3
 _ZTVN2kj1_19LoggingErrorHandlerE@Base 0.5.3
 _ZTVN2kj1_20ArrayJoinPromiseNodeIvEE@Base 0.5.3
 _ZTVN2kj1_20EagerPromiseNodeBaseE@Base 0.5.3
 _ZTVN2kj1_20ImmediatePromiseNodeINS0_4VoidEEE@Base 0.5.3
 _ZTVN2kj1_20ImmediatePromiseNodeINS_3OwnINS_13AsyncIoStreamEEEEE@Base 0.5.3
 _ZTVN2kj1_20ImmediatePromiseNodeImEE@Base 0.5.3
 _ZTVN2kj1_22AdapterPromiseNodeBaseE@Base 0.5.3
 _ZTVN2kj1_24ArrayJoinPromiseNodeBase6BranchE@Base 0.5.3
 _ZTVN2kj1_24ArrayJoinPromiseNodeBaseE@Base 0.5.3
 _ZTVN2kj1_24ExclusiveJoinPromiseNode6BranchE@Base 0.5.3
 _ZTVN2kj1_24ExclusiveJoinPromiseNodeE@Base 0.5.3
 _ZTVN2kj1_24ImmediatePromiseNodeBaseE@Base 0.5.3
 _ZTVN2kj1_24TransformPromiseNodeBaseE@Base 0.5.3
 _ZTVN2kj1_25AttachmentPromiseNodeBaseE@Base 0.5.3
 _ZTVN2kj1_26ImmediateBrokenPromiseNodeE@Base 0.5.3
 _ZTVN2kj1_5EventE@Base 0.5.3
 _ZTVN2kj23LowLevelAsyncIoProviderE@Base 0.5.3
 _ZTVN2kj9EventPortE@Base 0.5.3
 (c++)"non-virtual thunk to kj::_::AdapterPromiseNode<kj::_::Void, kj::UnixEventPort::TimerPromiseAdapter>::fulfill(kj::_::Void&&)@Base" 0.5.3
 (c++)"non-virtual thunk to kj::_::AdapterPromiseNode<kj::_::Void, kj::UnixEventPort::TimerPromiseAdapter>::isWaiting()@Base" 0.5.3
 (c++)"non-virtual thunk to kj::_::AdapterPromiseNode<kj::_::Void, kj::UnixEventPort::TimerPromiseAdapter>::reject(kj::Exception&&)@Base" 0.5.3
 (c++)"non-virtual thunk to kj::_::AdapterPromiseNode<kj::_::Void, kj::_::PromiseAndFulfillerAdapter<void> >::fulfill(kj::_::Void&&)@Base" 0.5.3
 (c++)"non-virtual thunk to kj::_::AdapterPromiseNode<kj::_::Void, kj::_::PromiseAndFulfillerAdapter<void> >::isWaiting()@Base" 0.5.3
 (c++)"non-virtual thunk to kj::_::AdapterPromiseNode<kj::_::Void, kj::_::PromiseAndFulfillerAdapter<void> >::reject(kj::Exception&&)@Base" 0.5.3
 (c++)"non-virtual thunk to kj::_::AdapterPromiseNode<siginfo_t, kj::UnixEventPort::SignalPromiseAdapter>::fulfill(siginfo_t&&)@Base" 0.5.3
 (c++)"non-virtual thunk to kj::_::AdapterPromiseNode<siginfo_t, kj::UnixEventPort::SignalPromiseAdapter>::isWaiting()@Base" 0.5.3
 (c++)"non-virtual thunk to kj::_::AdapterPromiseNode<siginfo_t, kj::UnixEventPort::SignalPromiseAdapter>::reject(kj::Exception&&)@Base" 0.5.3
 (c++)"non-virtual thunk to kj::_::ChainPromiseNode::fire()@Base" 0.5.3
 (c++)"non-virtual thunk to kj::_::ChainPromiseNode::getInnerForTrace()@Base" 0.5.3
 (c++)"non-virtual thunk to kj::_::EagerPromiseNodeBase::fire()@Base" 0.5.3
 (c++)"non-virtual thunk to kj::_::EagerPromiseNodeBase::getInnerForTrace()@Base" 0.5.3
 (c++)"non-virtual thunk to kj::_::ForkHubBase::fire()@Base" 0.5.3
 (c++)"non-virtual thunk to kj::_::ForkHubBase::getInnerForTrace()@Base" 0.5.3
 (c++)"non-virtual thunk to kj::_::WeakFulfiller<void>::disposeImpl(void*) const@Base" 0.5.3
libkj-test.so.2 libcapnp2 #MINVER#
 _ZN2kj10TestRunner3runEv@Base 0.5.3
 _ZN2kj10TestRunner7getMainEv@Base 0.5.3
 (optional=templinst)_ZN2kj12ArrayBuilderIjE7disposeEv@Base 0.5.3
 _ZN2kj1_10GlobFilter10applyStateEci@Base 0.5.3
 _ZN2kj1_10GlobFilter7matchesENS_9StringPtrE@Base 0.5.3
 _ZN2kj1_10GlobFilterC1ENS_8ArrayPtrIKcEE@Base 0.5.3
 _ZN2kj1_10GlobFilterC1EPKc@Base 0.5.3
 _ZN2kj1_10GlobFilterC2ENS_8ArrayPtrIKcEE@Base 0.5.3
 _ZN2kj1_10GlobFilterC2EPKc@Base 0.5.3
 _ZN2kj1_10GlobFilterD1Ev@Base 0.5.3
 _ZN2kj1_10GlobFilterD2Ev@Base 0.5.3
 (optional=templinst)_ZN2kj1_12HeapDisposerINS_8FunctionIFNS_11MainBuilder8ValidityENS_9StringPtrEEE4ImplINS0_11BoundMethodIRNS_10TestRunnerEMSA_FS4_S5_EXadL_ZNSA_9setFilterES5_EEEEEEE8instanceE@Base 0.5.3
 (optional=templinst)_ZN2kj1_12HeapDisposerINS_8FunctionIFNS_11MainBuilder8ValidityEvEE4ImplINS0_11BoundMethodIRNS_10TestRunnerEMS9_FS4_vEXadL_ZNS9_3runEvEEEEEEE8instanceE@Base 0.5.3
 (optional=templinst)_ZN2kj1_12HeapDisposerINS_8FunctionIFNS_11MainBuilder8ValidityEvEE4ImplINS0_11BoundMethodIRNS_10TestRunnerEMS9_FS4_vEXadL_ZNS9_7setListEvEEEEEEE8instanceE@Base 0.5.3
 (optional=templinst)_ZN2kj1_12RunnableImplIZNS_10TestRunner3runEvEUlvE_E3runEv@Base 0.5.3
 _ZN2kj1_12hasSubstringENS_9StringPtrES1_@Base 0.5.3
 _ZN2kj1_14LogExpectation10logMessageENS_11LogSeverityEPKciiONS_6StringE@Base 0.5.3
 _ZN2kj1_14LogExpectationC1ENS_11LogSeverityENS_9StringPtrE@Base 0.5.3
 _ZN2kj1_14LogExpectationC2ENS_11LogSeverityENS_9StringPtrE@Base 0.5.3
 _ZN2kj1_14LogExpectationD0Ev@Base 0.5.3
 _ZN2kj1_14LogExpectationD1Ev@Base 0.5.3
 _ZN2kj1_14LogExpectationD2Ev@Base 0.5.3
 (optional=templinst)_ZN2kj1_17HeapArrayDisposer9Allocate_INS_11CappedArrayIcLm26EEELb0ELb0EE8destructEPv@Base 0.5.3
 (optional=templinst)_ZN2kj1_17HeapArrayDisposer9Allocate_INS_11CappedArrayIcLm26EEELb0ELb0EE9constructEPv@Base 0.5.3
 (optional=templinst)_ZN2kj1_4fillINS_8ArrayPtrIKcEEINS_10FixedArrayIcLm1EEENS_11CappedArrayIcLm14EEES4_S4_EEEPcS9_RKT_DpOT0_@Base 0.5.3
 (optional=templinst)_ZN2kj1_4fillINS_8ArrayPtrIKcEEJNS_10FixedArrayIcLm1EEENS_11CappedArrayIcLm14EEES4_S4_EEEPcS9_RKT_DpOT0_@Base 0.5.3
 (optional=templinst)_ZN2kj1_5Debug5FaultC1IIRA30_KcRNS_11LogSeverityERNS_9StringPtrEEEEPS4_iNS_9Exception4TypeESB_SB_DpOT_@Base 0.5.3
 (optional=templinst)_ZN2kj1_5Debug5FaultC1IJRA30_KcRNS_11LogSeverityERNS_9StringPtrEEEEPS4_iNS_9Exception4TypeESB_SB_DpOT_@Base 0.5.3
 (optional=templinst)_ZN2kj1_5Debug5FaultC2IIRA30_KcRNS_11LogSeverityERNS_9StringPtrEEEEPS4_iNS_9Exception4TypeESB_SB_DpOT_@Base 0.5.3
 (optional=templinst)_ZN2kj1_5Debug5FaultC2IJRA30_KcRNS_11LogSeverityERNS_9StringPtrEEEEPS4_iNS_9Exception4TypeESB_SB_DpOT_@Base 0.5.3
 (optional=templinst)_ZN2kj1_6concatIINS_8ArrayPtrIKcEEEEENS_6StringEDpOT_@Base 0.5.3
 (optional=templinst)_ZN2kj1_6concatIJNS_8ArrayPtrIKcEEEEENS_6StringEDpOT_@Base 0.5.3
 (optional=templinst)_ZN2kj3strIIRNS_6StringERA9_KcS1_S1_EEES1_DpOT_@Base 0.5.3
 (optional=templinst)_ZN2kj3strIIRjRA16_KcEEENS_6StringEDpOT_@Base 0.5.3
 (optional=templinst)_ZN2kj3strIJRNS_6StringERA9_KcS1_S1_EEES1_DpOT_@Base 0.5.3
 (optional=templinst)_ZN2kj3strIJRjRA16_KcEEENS_6StringEDpOT_@Base 0.5.3
 (optional=templinst)_ZN2kj8FunctionIFNS_11MainBuilder8ValidityENS_9StringPtrEEE4ImplINS_1_11BoundMethodIRNS_10TestRunnerEMS9_FS2_S3_EXadL_ZNS9_9setFilterES3_EEEEEclES3_@Base 0.5.3
 (optional=templinst)_ZN2kj8FunctionIFNS_11MainBuilder8ValidityEvEE4ImplINS_1_11BoundMethodIRNS_10TestRunnerEMS8_FS2_vEXadL_ZNS8_3runEvEEEEEclEv@Base 0.5.3
 (optional=templinst)_ZN2kj8FunctionIFNS_11MainBuilder8ValidityEvEE4ImplINS_1_11BoundMethodIRNS_10TestRunnerEMS8_FS2_vEXadL_ZNS8_7setListEvEEEEEclEv@Base 0.5.3
 _ZN2kj8TestCaseC1EPKcjS2_@Base 0.5.3
 _ZN2kj8TestCaseC2EPKcjS2_@Base 0.5.3
 _ZN2kj8TestCaseD1Ev@Base 0.5.3
 _ZN2kj8TestCaseD2Ev@Base 0.5.3
 (optional=templinst)_ZN2kj8strArrayIRNS_8ArrayPtrIKPvEEEENS_6StringEOT_PKc@Base 0.5.3
 (optional=templinst)_ZNK2kj1_12HeapDisposerINS_8FunctionIFNS_11MainBuilder8ValidityENS_9StringPtrEEE4ImplINS0_11BoundMethodIRNS_10TestRunnerEMSA_FS4_S5_EXadL_ZNSA_9setFilterES5_EEEEEEE11disposeImplEPv@Base 0.5.3
 (optional=templinst)_ZNK2kj1_12HeapDisposerINS_8FunctionIFNS_11MainBuilder8ValidityEvEE4ImplINS0_11BoundMethodIRNS_10TestRunnerEMS9_FS4_vEXadL_ZNS9_3runEvEEEEEEE11disposeImplEPv@Base 0.5.3
 (optional=templinst)_ZNK2kj1_12HeapDisposerINS_8FunctionIFNS_11MainBuilder8ValidityEvEE4ImplINS0_11BoundMethodIRNS_10TestRunnerEMS9_FS4_vEXadL_ZNS9_7setListEvEEEEEEE11disposeImplEPv@Base 0.5.3
 _ZTIN2kj1_12HeapDisposerINS_8FunctionIFNS_11MainBuilder8ValidityENS_9StringPtrEEE4ImplINS0_11BoundMethodIRNS_10TestRunnerEMSA_FS4_S5_EXadL_ZNSA_9setFilterES5_EEEEEEEE@Base 0.5.3
 _ZTIN2kj1_12HeapDisposerINS_8FunctionIFNS_11MainBuilder8ValidityEvEE4ImplINS0_11BoundMethodIRNS_10TestRunnerEMS9_FS4_vEXadL_ZNS9_3runEvEEEEEEEE@Base 0.5.3
 _ZTIN2kj1_12HeapDisposerINS_8FunctionIFNS_11MainBuilder8ValidityEvEE4ImplINS0_11BoundMethodIRNS_10TestRunnerEMS9_FS4_vEXadL_ZNS9_7setListEvEEEEEEEE@Base 0.5.3
 _ZTIN2kj1_12RunnableImplIZNS_10TestRunner3runEvEUlvE_EE@Base 0.5.3
 _ZTIN2kj1_14LogExpectationE@Base 0.5.3
 _ZTIN2kj1_8RunnableE@Base 0.5.3
 _ZTIN2kj8DisposerE@Base 0.5.3
 _ZTIN2kj8FunctionIFNS_11MainBuilder8ValidityENS_9StringPtrEEE4ImplINS_1_11BoundMethodIRNS_10TestRunnerEMS9_FS2_S3_EXadL_ZNS9_9setFilterES3_EEEEEE@Base 0.5.3
 _ZTIN2kj8FunctionIFNS_11MainBuilder8ValidityENS_9StringPtrEEE5IfaceE@Base 0.5.3
 _ZTIN2kj8FunctionIFNS_11MainBuilder8ValidityEvEE4ImplINS_1_11BoundMethodIRNS_10TestRunnerEMS8_FS2_vEXadL_ZNS8_3runEvEEEEEE@Base 0.5.3
 _ZTIN2kj8FunctionIFNS_11MainBuilder8ValidityEvEE4ImplINS_1_11BoundMethodIRNS_10TestRunnerEMS8_FS2_vEXadL_ZNS8_7setListEvEEEEEE@Base 0.5.3
 _ZTIN2kj8FunctionIFNS_11MainBuilder8ValidityEvEE5IfaceE@Base 0.5.3
 _ZTIN2kj8TestCaseE@Base 0.5.3
 _ZTSN2kj1_12HeapDisposerINS_8FunctionIFNS_11MainBuilder8ValidityENS_9StringPtrEEE4ImplINS0_11BoundMethodIRNS_10TestRunnerEMSA_FS4_S5_EXadL_ZNSA_9setFilterES5_EEEEEEEE@Base 0.5.3
 _ZTSN2kj1_12HeapDisposerINS_8FunctionIFNS_11MainBuilder8ValidityEvEE4ImplINS0_11BoundMethodIRNS_10TestRunnerEMS9_FS4_vEXadL_ZNS9_3runEvEEEEEEEE@Base 0.5.3
 _ZTSN2kj1_12HeapDisposerINS_8FunctionIFNS_11MainBuilder8ValidityEvEE4ImplINS0_11BoundMethodIRNS_10TestRunnerEMS9_FS4_vEXadL_ZNS9_7setListEvEEEEEEEE@Base 0.5.3
 _ZTSN2kj1_12RunnableImplIZNS_10TestRunner3runEvEUlvE_EE@Base 0.5.3
 _ZTSN2kj1_14LogExpectationE@Base 0.5.3
 _ZTSN2kj1_8RunnableE@Base 0.5.3
 _ZTSN2kj8DisposerE@Base 0.5.3
 _ZTSN2kj8FunctionIFNS_11MainBuilder8ValidityENS_9StringPtrEEE4ImplINS_1_11BoundMethodIRNS_10TestRunnerEMS9_FS2_S3_EXadL_ZNS9_9setFilterES3_EEEEEE@Base 0.5.3
 _ZTSN2kj8FunctionIFNS_11MainBuilder8ValidityENS_9StringPtrEEE5IfaceE@Base 0.5.3
 _ZTSN2kj8FunctionIFNS_11MainBuilder8ValidityEvEE4ImplINS_1_11BoundMethodIRNS_10TestRunnerEMS8_FS2_vEXadL_ZNS8_3runEvEEEEEE@Base 0.5.3
 _ZTSN2kj8FunctionIFNS_11MainBuilder8ValidityEvEE4ImplINS_1_11BoundMethodIRNS_10TestRunnerEMS8_FS2_vEXadL_ZNS8_7setListEvEEEEEE@Base 0.5.3
 _ZTSN2kj8FunctionIFNS_11MainBuilder8ValidityEvEE5IfaceE@Base 0.5.3
 _ZTSN2kj8TestCaseE@Base 0.5.3
 _ZTVN2kj1_12HeapDisposerINS_8FunctionIFNS_11MainBuilder8ValidityENS_9StringPtrEEE4ImplINS0_11BoundMethodIRNS_10TestRunnerEMSA_FS4_S5_EXadL_ZNSA_9setFilterES5_EEEEEEEE@Base 0.5.3
 _ZTVN2kj1_12HeapDisposerINS_8FunctionIFNS_11MainBuilder8ValidityEvEE4ImplINS0_11BoundMethodIRNS_10TestRunnerEMS9_FS4_vEXadL_ZNS9_3runEvEEEEEEEE@Base 0.5.3
 _ZTVN2kj1_12HeapDisposerINS_8FunctionIFNS_11MainBuilder8ValidityEvEE4ImplINS0_11BoundMethodIRNS_10TestRunnerEMS9_FS4_vEXadL_ZNS9_7setListEvEEEEEEEE@Base 0.5.3
 _ZTVN2kj1_12RunnableImplIZNS_10TestRunner3runEvEUlvE_EE@Base 0.5.3
 _ZTVN2kj1_14LogExpectationE@Base 0.5.3
 _ZTVN2kj8FunctionIFNS_11MainBuilder8ValidityENS_9StringPtrEEE4ImplINS_1_11BoundMethodIRNS_10TestRunnerEMS9_FS2_S3_EXadL_ZNS9_9setFilterES3_EEEEEE@Base 0.5.3
 _ZTVN2kj8FunctionIFNS_11MainBuilder8ValidityEvEE4ImplINS_1_11BoundMethodIRNS_10TestRunnerEMS8_FS2_vEXadL_ZNS8_3runEvEEEEEE@Base 0.5.3
 _ZTVN2kj8FunctionIFNS_11MainBuilder8ValidityEvEE4ImplINS_1_11BoundMethodIRNS_10TestRunnerEMS8_FS2_vEXadL_ZNS8_7setListEvEEEEEE@Base 0.5.3
 _ZTVN2kj8TestCaseE@Base 0.5.3
 main@Base 0.5.3
libkj.so.2 libcapnp2 #MINVER#
 _ZN2kj10RefcountedD0Ev@Base 0.5.3
 _ZN2kj10RefcountedD1Ev@Base 0.5.3
 _ZN2kj10RefcountedD2Ev@Base 0.5.3
 _ZN2kj10StringTreeC1EONS_5ArrayIS0_EENS_9StringPtrE@Base 0.5.3
 _ZN2kj10StringTreeC2EONS_5ArrayIS0_EENS_9StringPtrE@Base 0.5.3
 _ZN2kj10heapStringEPKcm@Base 0.5.3
 _ZN2kj10heapStringEm@Base 0.5.3
 _ZN2kj11AutoCloseFdD1Ev@Base 0.5.3
 _ZN2kj11AutoCloseFdD2Ev@Base 0.5.3
 _ZN2kj11InputStream4readEPvmm@Base 0.5.3
 _ZN2kj11InputStream4skipEm@Base 0.5.3
 _ZN2kj11InputStreamD0Ev@Base 0.5.3
 _ZN2kj11InputStreamD1Ev@Base 0.5.3
 _ZN2kj11InputStreamD2Ev@Base 0.5.3
 (optional=templinst)_ZN2kj11MainBuilder13addSubCommandENS_9StringPtrENS_8FunctionIFNS2_IFvS1_NS_8ArrayPtrIKS1_EEEEEvEEES1_@Base 0.5.3
 (optional=templinst)_ZN2kj11MainBuilder16addOptionWithArgESt16initializer_listINS0_10OptionNameEENS_8FunctionIFNS0_8ValidityENS_9StringPtrEEEES6_S6_@Base 0.5.3
 _ZN2kj11MainBuilder16callAfterParsingENS_8FunctionIFNS0_8ValidityEvEEE@Base 0.5.3
 _ZN2kj11MainBuilder17expectOptionalArgENS_9StringPtrENS_8FunctionIFNS0_8ValidityES1_EEE@Base 0.5.3
 _ZN2kj11MainBuilder19expectOneOrMoreArgsENS_9StringPtrENS_8FunctionIFNS0_8ValidityES1_EEE@Base 0.5.3
 _ZN2kj11MainBuilder20expectZeroOrMoreArgsENS_9StringPtrENS_8FunctionIFNS0_8ValidityES1_EEE@Base 0.5.3
 _ZN2kj11MainBuilder5buildEv@Base 0.5.3
 _ZN2kj11MainBuilder8MainImpl10usageErrorENS_9StringPtrES2_@Base 0.5.3
 _ZN2kj11MainBuilder8MainImpl8wrapTextERNS_6VectorIcEENS_9StringPtrES5_@Base 0.5.3
 _ZN2kj11MainBuilder8MainImpl9printHelpENS_9StringPtrE@Base 0.5.3
 _ZN2kj11MainBuilder8MainImplclENS_9StringPtrENS_8ArrayPtrIKS2_EE@Base 0.5.3
 (optional=templinst)_ZN2kj11MainBuilder9addOptionESt16initializer_listINS0_10OptionNameEENS_8FunctionIFNS0_8ValidityEvEEENS_9StringPtrE@Base 0.5.3
 _ZN2kj11MainBuilder9expectArgENS_9StringPtrENS_8FunctionIFNS0_8ValidityES1_EEE@Base 0.5.3
 _ZN2kj11MainBuilderC1ERNS_14ProcessContextENS_9StringPtrES3_S3_@Base 0.5.3
 _ZN2kj11MainBuilderC2ERNS_14ProcessContextENS_9StringPtrES3_S3_@Base 0.5.3
 _ZN2kj11MainBuilderD1Ev@Base 0.5.3
 _ZN2kj11MainBuilderD2Ev@Base 0.5.3
 (optional=templinst)_ZN2kj12ArrayBuilderINS_11MainBuilder4Impl3ArgEE7disposeEv@Base 0.5.3
 (optional=templinst)_ZN2kj12ArrayBuilderINS_9StringPtrEE7disposeEv@Base 0.5.3
 (optional=templinst)_ZN2kj12ArrayBuilderIcE7disposeEv@Base 0.5.3
 _ZN2kj12NullDisposer8instanceE@Base 0.5.3
 _ZN2kj12OutputStream5writeENS_8ArrayPtrIKNS1_IKhEEEE@Base 0.5.3
 _ZN2kj12OutputStreamD0Ev@Base 0.5.3
 _ZN2kj12OutputStreamD1Ev@Base 0.5.3
 _ZN2kj12OutputStreamD2Ev@Base 0.5.3
 (optional=templinst)_ZN2kj13ArrayDisposer8Dispose_INS_10StringTree6BranchELb0EE8destructEPv@Base 0.5.3
 (optional=templinst)_ZN2kj13ArrayDisposer8Dispose_INS_11MainBuilder4Impl3ArgELb0EE8destructEPv@Base 0.5.3
 (optional=templinst)_ZN2kj13ArrayDisposer8Dispose_INS_6StringELb0EE8destructEPv@Base 0.5.3
 _ZN2kj13ExceptionImplD0Ev@Base 0.5.3
 _ZN2kj13ExceptionImplD1Ev@Base 0.5.3
 _ZN2kj13ExceptionImplD2Ev@Base 0.5.3
 _ZN2kj13FdInputStream7tryReadEPvmm@Base 0.5.3
 _ZN2kj13FdInputStreamD0Ev@Base 0.5.3
 _ZN2kj13FdInputStreamD1Ev@Base 0.5.3
 _ZN2kj13FdInputStreamD2Ev@Base 0.5.3
 _ZN2kj13getStackTraceENS_8ArrayPtrIPvEE@Base 0.5.3
 _ZN2kj14FdOutputStream5writeENS_8ArrayPtrIKNS1_IKhEEEE@Base 0.5.3
 _ZN2kj14FdOutputStream5writeEPKvm@Base 0.5.3
 _ZN2kj14FdOutputStreamD0Ev@Base 0.5.3
 _ZN2kj14FdOutputStreamD1Ev@Base 0.5.3
 _ZN2kj14FdOutputStreamD2Ev@Base 0.5.3
 _ZN2kj14UnwindDetectorC1Ev@Base 0.5.3
 _ZN2kj14UnwindDetectorC2Ev@Base 0.5.3
 _ZN2kj14runMainAndExitERNS_14ProcessContextEONS_8FunctionIFvNS_9StringPtrENS_8ArrayPtrIKS3_EEEEEiPPc@Base 0.5.3
 _ZN2kj16ArrayInputStream16tryGetReadBufferEv@Base 0.5.3
 _ZN2kj16ArrayInputStream4skipEm@Base 0.5.3
 _ZN2kj16ArrayInputStream7tryReadEPvmm@Base 0.5.3
 _ZN2kj16ArrayInputStreamC1ENS_8ArrayPtrIKhEE@Base 0.5.3
 _ZN2kj16ArrayInputStreamC2ENS_8ArrayPtrIKhEE@Base 0.5.3
 _ZN2kj16ArrayInputStreamD0Ev@Base 0.5.3
 _ZN2kj16ArrayInputStreamD1Ev@Base 0.5.3
 _ZN2kj16ArrayInputStreamD2Ev@Base 0.5.3
 _ZN2kj17ArrayOutputStream14getWriteBufferEv@Base 0.5.3
 _ZN2kj17ArrayOutputStream5writeEPKvm@Base 0.5.3
 _ZN2kj17ArrayOutputStreamC1ENS_8ArrayPtrIhEE@Base 0.5.3
 _ZN2kj17ArrayOutputStreamC2ENS_8ArrayPtrIhEE@Base 0.5.3
 _ZN2kj17ArrayOutputStreamD0Ev@Base 0.5.3
 _ZN2kj17ArrayOutputStreamD1Ev@Base 0.5.3
 _ZN2kj17ArrayOutputStreamD2Ev@Base 0.5.3
 _ZN2kj17ExceptionCallback10logMessageENS_11LogSeverityEPKciiONS_6StringE@Base 0.5.3
 _ZN2kj17ExceptionCallback16onFatalExceptionEONS_9ExceptionE@Base 0.5.3
 _ZN2kj17ExceptionCallback21RootExceptionCallback10logMessageENS_11LogSeverityEPKciiONS_6StringE@Base 0.5.3
 _ZN2kj17ExceptionCallback21RootExceptionCallback16onFatalExceptionEONS_9ExceptionE@Base 0.5.3
 _ZN2kj17ExceptionCallback21RootExceptionCallback22onRecoverableExceptionEONS_9ExceptionE@Base 0.5.3
 _ZN2kj17ExceptionCallback21RootExceptionCallbackD0Ev@Base 0.5.3
 _ZN2kj17ExceptionCallback21RootExceptionCallbackD1Ev@Base 0.5.3
 _ZN2kj17ExceptionCallback21RootExceptionCallbackD2Ev@Base 0.5.3
 _ZN2kj17ExceptionCallback22onRecoverableExceptionEONS_9ExceptionE@Base 0.5.3
 _ZN2kj17ExceptionCallbackC1ERS0_@Base 0.5.3
 _ZN2kj17ExceptionCallbackC1Ev@Base 0.5.3
 _ZN2kj17ExceptionCallbackC2ERS0_@Base 0.5.3
 _ZN2kj17ExceptionCallbackC2Ev@Base 0.5.3
 _ZN2kj17ExceptionCallbackD0Ev@Base 0.5.3
 _ZN2kj17ExceptionCallbackD1Ev@Base 0.5.3
 _ZN2kj17ExceptionCallbackD2Ev@Base 0.5.3
 _ZN2kj17NullArrayDisposer8instanceE@Base 0.5.3
 _ZN2kj17setStandardIoModeEi@Base 0.5.3
 _ZN2kj18trimSourceFilenameENS_9StringPtrE@Base 0.5.3
 _ZN2kj19BufferedInputStream13getReadBufferEv@Base 0.5.3
 _ZN2kj19BufferedInputStreamD0Ev@Base 0.5.3
 _ZN2kj19BufferedInputStreamD1Ev@Base 0.5.3
 _ZN2kj19BufferedInputStreamD2Ev@Base 0.5.3
 _ZN2kj19stringifyStackTraceENS_8ArrayPtrIKPvEE@Base 0.5.3
 _ZN2kj19throwFatalExceptionEONS_9ExceptionE@Base 0.5.3
 _ZN2kj1_11unreachableEv@Base 0.5.3
 _ZN2kj1_12HeapDisposerINS_11MainBuilder4ImplEE8instanceE@Base 0.5.3
 (optional=templinst)_ZN2kj1_12HeapDisposerINS_8FunctionIFNS_11MainBuilder8ValidityEvEE4ImplINS0_11BoundMethodIRNS3_4ImplEMS9_FS4_vEXadL_ZNS9_12printVersionEvEEEEEEE8instanceE@Base 0.5.3
 (optional=templinst)_ZN2kj1_12HeapDisposerINS_8FunctionIFNS_11MainBuilder8ValidityEvEE4ImplINS0_11BoundMethodIRNS3_4ImplEMS9_FS4_vEXadL_ZNS9_17increaseVerbosityEvEEEEEEE8instanceE@Base 0.5.3
 _ZN2kj1_12HeapDisposerINS_8FunctionIFvNS_9StringPtrENS_8ArrayPtrIKS3_EEEE4ImplINS_11MainBuilder8MainImplEEEE8instanceE@Base 0.5.3
 _ZN2kj1_12HeapDisposerINS_9Exception7ContextEE8instanceE@Base 0.5.3
 _ZN2kj1_17HeapArrayDisposer12allocateImplEmmmPFvPvES4_@Base 0.5.3
 _ZN2kj1_17HeapArrayDisposer8instanceE@Base 0.5.3
 (optional=templinst)_ZN2kj1_17HeapArrayDisposer9Allocate_INS_10StringTree6BranchELb0ELb0EE8destructEPv@Base 0.5.3
 (optional=templinst)_ZN2kj1_17HeapArrayDisposer9Allocate_INS_10StringTree6BranchELb0ELb0EE9constructEPv@Base 0.5.3
 (optional=templinst)_ZN2kj1_17HeapArrayDisposer9Allocate_INS_11CappedArrayIcLm26EEELb0ELb0EE8destructEPv@Base 0.5.3
 (optional=templinst)_ZN2kj1_17HeapArrayDisposer9Allocate_INS_11CappedArrayIcLm26EEELb0ELb0EE9constructEPv@Base 0.5.3
 (optional=templinst)_ZN2kj1_17HeapArrayDisposer9Allocate_INS_6StringELb0ELb0EE8destructEPv@Base 0.5.3
 (optional=templinst)_ZN2kj1_17HeapArrayDisposer9Allocate_INS_6StringELb0ELb0EE9constructEPv@Base 0.5.3
 (optional=templinst)_ZN2kj1_17HeapArrayDisposer9Allocate_INS_8ArrayPtrIKcEELb0ELb0EE8destructEPv@Base 0.5.3
 (optional=templinst)_ZN2kj1_17HeapArrayDisposer9Allocate_INS_8ArrayPtrIKcEELb0ELb0EE9constructEPv@Base 0.5.3
 (optional=templinst)_ZN2kj1_17HeapArrayDisposer9Allocate_INS_9StringPtrELb0ELb0EE8destructEPv@Base 0.5.3
 (optional=templinst)_ZN2kj1_17HeapArrayDisposer9Allocate_INS_9StringPtrELb0ELb0EE9constructEPv@Base 0.5.3
 _ZN2kj1_20inlineRequireFailureEPKciS2_S2_S2_@Base 0.5.3
 _ZN2kj1_21runCatchingExceptionsERNS0_8RunnableE@Base 0.5.3
 _ZN2kj1_22uncaughtExceptionCountEv@Base 0.5.3
 _ZN2kj1_4Once5resetEv@Base 0.5.3
 _ZN2kj1_4Once7runOnceERNS1_11InitializerE@Base 0.5.3
 (optional=templinst)_ZN2kj1_4fillINS_8ArrayPtrIKcEEIS4_NS_10FixedArrayIcLm1EEEEEEPcS7_RKT_DpOT0_@Base 0.5.3
 (optional=templinst)_ZN2kj1_4fillINS_8ArrayPtrIKcEEIS4_S4_EEEPcS5_RKT_DpOT0_@Base 0.5.3
 (optional=templinst)_ZN2kj1_4fillINS_8ArrayPtrIKcEEIS4_S4_S4_S4_EEEPcS5_RKT_DpOT0_@Base 0.5.3
 (optional=templinst)_ZN2kj1_4fillINS_8ArrayPtrIKcEEJS4_NS_10FixedArrayIcLm1EEEEEEPcS7_RKT_DpOT0_@Base 0.5.3
 (optional=templinst)_ZN2kj1_4fillINS_8ArrayPtrIKcEEJS4_S4_EEEPcS5_RKT_DpOT0_@Base 0.5.3
 (optional=templinst)_ZN2kj1_4fillINS_8ArrayPtrIKcEEJS4_S4_S4_S4_EEEPcS5_RKT_DpOT0_@Base 0.5.3
 _ZN2kj1_5Debug11logInternalEPKciNS_11LogSeverityES3_NS_8ArrayPtrINS_6StringEEE@Base 0.5.3
 _ZN2kj1_5Debug11minSeverityE@Base 0.5.3
 _ZN2kj1_5Debug16getOsErrorNumberEb@Base 0.5.3
 _ZN2kj1_5Debug23makeDescriptionInternalEPKcNS_8ArrayPtrINS_6StringEEE@Base 0.5.3
 _ZN2kj1_5Debug5Fault4initEPKciNS_9Exception4TypeES4_S4_NS_8ArrayPtrINS_6StringEEE@Base 0.5.3
 _ZN2kj1_5Debug5Fault4initEPKciiS4_S4_NS_8ArrayPtrINS_6StringEEE@Base 0.5.3
 _ZN2kj1_5Debug5Fault5fatalEv@Base 0.5.3
 (optional=templinst)_ZN2kj1_5Debug5FaultC1IIRA14_KcEEEPS4_iNS_9Exception4TypeES7_S7_DpOT_@Base 0.5.3
 (optional=templinst)_ZN2kj1_5Debug5FaultC1IIRA17_KcRKPS4_EEES7_iNS_9Exception4TypeES7_S7_DpOT_@Base 0.5.3
 (optional=templinst)_ZN2kj1_5Debug5FaultC1IIRA17_KcRS4_EEEPS4_iNS_9Exception4TypeES8_S8_DpOT_@Base 0.5.3
 (optional=templinst)_ZN2kj1_5Debug5FaultC1IIRA22_KcRNS_9StringPtrEEEEPS4_iNS_9Exception4TypeES9_S9_DpOT_@Base 0.5.3
 (optional=templinst)_ZN2kj1_5Debug5FaultC1IIRA23_KcEEEPS4_iNS_9Exception4TypeES7_S7_DpOT_@Base 0.5.3
 (optional=templinst)_ZN2kj1_5Debug5FaultC1IIRA24_KcEEEPS4_iNS_9Exception4TypeES7_S7_DpOT_@Base 0.5.3
 (optional=templinst)_ZN2kj1_5Debug5FaultC1IIRA30_KcEEEPS4_iNS_9Exception4TypeES7_S7_DpOT_@Base 0.5.3
 (optional=templinst)_ZN2kj1_5Debug5FaultC1IIRA35_KcEEEPS4_iNS_9Exception4TypeES7_S7_DpOT_@Base 0.5.3
 (optional=templinst)_ZN2kj1_5Debug5FaultC1IIRA36_KcEEEPS4_iNS_9Exception4TypeES7_S7_DpOT_@Base 0.5.3
 (optional=templinst)_ZN2kj1_5Debug5FaultC1IIRA38_KcEEEPS4_iNS_9Exception4TypeES7_S7_DpOT_@Base 0.5.3
 (optional=templinst)_ZN2kj1_5Debug5FaultC1IIRA40_KcEEEPS4_iNS_9Exception4TypeES7_S7_DpOT_@Base 0.5.3
 (optional=templinst)_ZN2kj1_5Debug5FaultC1IIRA43_KcEEEPS4_iNS_9Exception4TypeES7_S7_DpOT_@Base 0.5.3
 (optional=templinst)_ZN2kj1_5Debug5FaultC1IIRA50_KcEEEPS4_iNS_9Exception4TypeES7_S7_DpOT_@Base 0.5.3
 (optional=templinst)_ZN2kj1_5Debug5FaultC1IIRA56_KcEEEPS4_iNS_9Exception4TypeES7_S7_DpOT_@Base 0.5.3
 (optional=templinst)_ZN2kj1_5Debug5FaultC1IIRA57_KcEEEPS4_iNS_9Exception4TypeES7_S7_DpOT_@Base 0.5.3
 (optional=templinst)_ZN2kj1_5Debug5FaultC1IIRA77_KcEEEPS4_iNS_9Exception4TypeES7_S7_DpOT_@Base 0.5.3
 (optional=templinst)_ZN2kj1_5Debug5FaultC1IIRPKcEEES5_iNS_9Exception4TypeES5_S5_DpOT_@Base 0.5.3
 (optional=templinst)_ZN2kj1_5Debug5FaultC1IIRiEEEPKciiS6_S6_DpOT_@Base 0.5.3
 (optional=templinst)_ZN2kj1_5Debug5FaultC1IJRA14_KcEEEPS4_iNS_9Exception4TypeES7_S7_DpOT_@Base 0.5.3
 (optional=templinst)_ZN2kj1_5Debug5FaultC1IJRA17_KcRKPS4_EEES7_iNS_9Exception4TypeES7_S7_DpOT_@Base 0.5.3
 (optional=templinst)_ZN2kj1_5Debug5FaultC1IJRA17_KcRS4_EEEPS4_iNS_9Exception4TypeES8_S8_DpOT_@Base 0.5.3
 (optional=templinst)_ZN2kj1_5Debug5FaultC1IJRA22_KcRNS_9StringPtrEEEEPS4_iNS_9Exception4TypeES9_S9_DpOT_@Base 0.5.3
 (optional=templinst)_ZN2kj1_5Debug5FaultC1IJRA23_KcEEEPS4_iNS_9Exception4TypeES7_S7_DpOT_@Base 0.5.3
 (optional=templinst)_ZN2kj1_5Debug5FaultC1IJRA24_KcEEEPS4_iNS_9Exception4TypeES7_S7_DpOT_@Base 0.5.3
 (optional=templinst)_ZN2kj1_5Debug5FaultC1IJRA30_KcEEEPS4_iNS_9Exception4TypeES7_S7_DpOT_@Base 0.5.3
 (optional=templinst)_ZN2kj1_5Debug5FaultC1IJRA35_KcEEEPS4_iNS_9Exception4TypeES7_S7_DpOT_@Base 0.5.3
 (optional=templinst)_ZN2kj1_5Debug5FaultC1IJRA36_KcEEEPS4_iNS_9Exception4TypeES7_S7_DpOT_@Base 0.5.3
 (optional=templinst)_ZN2kj1_5Debug5FaultC1IJRA38_KcEEEPS4_iNS_9Exception4TypeES7_S7_DpOT_@Base 0.5.3
 (optional=templinst)_ZN2kj1_5Debug5FaultC1IJRA40_KcEEEPS4_iNS_9Exception4TypeES7_S7_DpOT_@Base 0.5.3
 (optional=templinst)_ZN2kj1_5Debug5FaultC1IJRA43_KcEEEPS4_iNS_9Exception4TypeES7_S7_DpOT_@Base 0.5.3
 (optional=templinst)_ZN2kj1_5Debug5FaultC1IJRA50_KcEEEPS4_iNS_9Exception4TypeES7_S7_DpOT_@Base 0.5.3
 (optional=templinst)_ZN2kj1_5Debug5FaultC1IJRA56_KcEEEPS4_iNS_9Exception4TypeES7_S7_DpOT_@Base 0.5.3
 (optional=templinst)_ZN2kj1_5Debug5FaultC1IJRA57_KcEEEPS4_iNS_9Exception4TypeES7_S7_DpOT_@Base 0.5.3
 (optional=templinst)_ZN2kj1_5Debug5FaultC1IJRA77_KcEEEPS4_iNS_9Exception4TypeES7_S7_DpOT_@Base 0.5.3
 (optional=templinst)_ZN2kj1_5Debug5FaultC1IJRPKcEEES5_iNS_9Exception4TypeES5_S5_DpOT_@Base 0.5.3
 (optional=templinst)_ZN2kj1_5Debug5FaultC1IJRiEEEPKciiS6_S6_DpOT_@Base 0.5.3
 (optional=templinst)_ZN2kj1_5Debug5FaultC2IIRA17_KcRKPS4_EEES7_iNS_9Exception4TypeES7_S7_DpOT_@Base 0.5.3
 (optional=templinst)_ZN2kj1_5Debug5FaultC2IIRA17_KcRS4_EEEPS4_iNS_9Exception4TypeES8_S8_DpOT_@Base 0.5.3
 (optional=templinst)_ZN2kj1_5Debug5FaultC2IIRA22_KcRNS_9StringPtrEEEEPS4_iNS_9Exception4TypeES9_S9_DpOT_@Base 0.5.3
 (optional=templinst)_ZN2kj1_5Debug5FaultC2IIRA24_KcEEEPS4_iNS_9Exception4TypeES7_S7_DpOT_@Base 0.5.3
 (optional=templinst)_ZN2kj1_5Debug5FaultC2IIRA38_KcEEEPS4_iNS_9Exception4TypeES7_S7_DpOT_@Base 0.5.3
 (optional=templinst)_ZN2kj1_5Debug5FaultC2IIRA40_KcEEEPS4_iNS_9Exception4TypeES7_S7_DpOT_@Base 0.5.3
 (optional=templinst)_ZN2kj1_5Debug5FaultC2IIRA43_KcEEEPS4_iNS_9Exception4TypeES7_S7_DpOT_@Base 0.5.3
 (optional=templinst)_ZN2kj1_5Debug5FaultC2IIRA50_KcEEEPS4_iNS_9Exception4TypeES7_S7_DpOT_@Base 0.5.3
 (optional=templinst)_ZN2kj1_5Debug5FaultC2IIRPKcEEES5_iNS_9Exception4TypeES5_S5_DpOT_@Base 0.5.3
 (optional=templinst)_ZN2kj1_5Debug5FaultC2IIRiEEEPKciiS6_S6_DpOT_@Base 0.5.3
 (optional=templinst)_ZN2kj1_5Debug5FaultC2IJRA14_KcEEEPS4_iNS_9Exception4TypeES7_S7_DpOT_@Base 0.5.3
 (optional=templinst)_ZN2kj1_5Debug5FaultC2IJRA17_KcRKPS4_EEES7_iNS_9Exception4TypeES7_S7_DpOT_@Base 0.5.3
 (optional=templinst)_ZN2kj1_5Debug5FaultC2IJRA17_KcRS4_EEEPS4_iNS_9Exception4TypeES8_S8_DpOT_@Base 0.5.3
 (optional=templinst)_ZN2kj1_5Debug5FaultC2IJRA22_KcRNS_9StringPtrEEEEPS4_iNS_9Exception4TypeES9_S9_DpOT_@Base 0.5.3
 (optional=templinst)_ZN2kj1_5Debug5FaultC2IJRA23_KcEEEPS4_iNS_9Exception4TypeES7_S7_DpOT_@Base 0.5.3
 (optional=templinst)_ZN2kj1_5Debug5FaultC2IJRA24_KcEEEPS4_iNS_9Exception4TypeES7_S7_DpOT_@Base 0.5.3
 (optional=templinst)_ZN2kj1_5Debug5FaultC2IJRA30_KcEEEPS4_iNS_9Exception4TypeES7_S7_DpOT_@Base 0.5.3
 (optional=templinst)_ZN2kj1_5Debug5FaultC2IJRA35_KcEEEPS4_iNS_9Exception4TypeES7_S7_DpOT_@Base 0.5.3
 (optional=templinst)_ZN2kj1_5Debug5FaultC2IJRA36_KcEEEPS4_iNS_9Exception4TypeES7_S7_DpOT_@Base 0.5.3
 (optional=templinst)_ZN2kj1_5Debug5FaultC2IJRA38_KcEEEPS4_iNS_9Exception4TypeES7_S7_DpOT_@Base 0.5.3
 (optional=templinst)_ZN2kj1_5Debug5FaultC2IJRA40_KcEEEPS4_iNS_9Exception4TypeES7_S7_DpOT_@Base 0.5.3
 (optional=templinst)_ZN2kj1_5Debug5FaultC2IJRA43_KcEEEPS4_iNS_9Exception4TypeES7_S7_DpOT_@Base 0.5.3
 (optional=templinst)_ZN2kj1_5Debug5FaultC2IJRA50_KcEEEPS4_iNS_9Exception4TypeES7_S7_DpOT_@Base 0.5.3
 (optional=templinst)_ZN2kj1_5Debug5FaultC2IJRA56_KcEEEPS4_iNS_9Exception4TypeES7_S7_DpOT_@Base 0.5.3
 (optional=templinst)_ZN2kj1_5Debug5FaultC2IJRA57_KcEEEPS4_iNS_9Exception4TypeES7_S7_DpOT_@Base 0.5.3
 (optional=templinst)_ZN2kj1_5Debug5FaultC2IJRA77_KcEEEPS4_iNS_9Exception4TypeES7_S7_DpOT_@Base 0.5.3
 (optional=templinst)_ZN2kj1_5Debug5FaultC2IJRPKcEEES5_iNS_9Exception4TypeES5_S5_DpOT_@Base 0.5.3
 (optional=templinst)_ZN2kj1_5Debug5FaultC2IJRiEEEPKciiS6_S6_DpOT_@Base 0.5.3
 _ZN2kj1_5Debug5FaultD1Ev@Base 0.5.3
 _ZN2kj1_5Debug5FaultD2Ev@Base 0.5.3
 _ZN2kj1_5Debug7Context10logMessageENS_11LogSeverityEPKciiONS_6StringE@Base 0.5.3
 _ZN2kj1_5Debug7Context16onFatalExceptionEONS_9ExceptionE@Base 0.5.3
 _ZN2kj1_5Debug7Context17ensureInitializedEv@Base 0.5.3
 _ZN2kj1_5Debug7Context22onRecoverableExceptionEONS_9ExceptionE@Base 0.5.3
 _ZN2kj1_5Debug7ContextC1Ev@Base 0.5.3
 _ZN2kj1_5Debug7ContextC2Ev@Base 0.5.3
 _ZN2kj1_5Debug7ContextD0Ev@Base 0.5.3
 _ZN2kj1_5Debug7ContextD1Ev@Base 0.5.3
 _ZN2kj1_5Debug7ContextD2Ev@Base 0.5.3
 _ZN2kj1_5Mutex20assertLockedByCallerENS1_11ExclusivityE@Base 0.5.3
 _ZN2kj1_5Mutex4lockENS1_11ExclusivityE@Base 0.5.3
 _ZN2kj1_5Mutex6unlockENS1_11ExclusivityE@Base 0.5.3
 _ZN2kj1_5MutexC1Ev@Base 0.5.3
 _ZN2kj1_5MutexC2Ev@Base 0.5.3
 _ZN2kj1_5MutexD1Ev@Base 0.5.3
 _ZN2kj1_5MutexD2Ev@Base 0.5.3
 (optional=templinst)_ZN2kj1_6concatIINS_8ArrayPtrIKcEEEEENS_6StringEDpOT_@Base 0.5.3
 (optional=templinst)_ZN2kj1_6concatIINS_8ArrayPtrIKcEENS_10FixedArrayIcLm1EEES4_EEENS_6StringEDpOT_@Base 0.5.3
 (optional=templinst)_ZN2kj1_6concatIINS_8ArrayPtrIKcEES4_EEENS_6StringEDpOT_@Base 0.5.3
 (optional=templinst)_ZN2kj1_6concatIINS_8ArrayPtrIKcEES4_S4_EEENS_6StringEDpOT_@Base 0.5.3
 (optional=templinst)_ZN2kj1_6concatIJNS_8ArrayPtrIKcEEEEENS_6StringEDpOT_@Base 0.5.3
 (optional=templinst)_ZN2kj1_6concatIJNS_8ArrayPtrIKcEENS_10FixedArrayIcLm1EEES4_EEENS_6StringEDpOT_@Base 0.5.3
 (optional=templinst)_ZN2kj1_6concatIJNS_8ArrayPtrIKcEES4_EEENS_6StringEDpOT_@Base 0.5.3
 (optional=templinst)_ZN2kj1_6concatIJNS_8ArrayPtrIKcEES4_S4_EEENS_6StringEDpOT_@Base 0.5.3
 _ZN2kj20BufferedOutputStreamD0Ev@Base 0.5.3
 _ZN2kj20BufferedOutputStreamD1Ev@Base 0.5.3
 _ZN2kj20BufferedOutputStreamD2Ev@Base 0.5.3
 _ZN2kj20getExceptionCallbackEv@Base 0.5.3
 _ZN2kj22ExceptionSafeArrayUtil10destroyAllEv@Base 0.5.3
 _ZN2kj22ExceptionSafeArrayUtil9constructEmPFvPvE@Base 0.5.3
 _ZN2kj22TopLevelProcessContext14getProgramNameEv@Base 0.5.3
 _ZN2kj22TopLevelProcessContext24increaseLoggingVerbosityEv@Base 0.5.3
 _ZN2kj22TopLevelProcessContext4exitEv@Base 0.5.3
 _ZN2kj22TopLevelProcessContext5errorENS_9StringPtrE@Base 0.5.3
 _ZN2kj22TopLevelProcessContext7warningENS_9StringPtrE@Base 0.5.3
 _ZN2kj22TopLevelProcessContext8exitInfoENS_9StringPtrE@Base 0.5.3
 _ZN2kj22TopLevelProcessContext9exitErrorENS_9StringPtrE@Base 0.5.3
 _ZN2kj22TopLevelProcessContextC1ENS_9StringPtrE@Base 0.5.3
 _ZN2kj22TopLevelProcessContextC2ENS_9StringPtrE@Base 0.5.3
 _ZN2kj22printStackTraceOnCrashEv@Base 0.5.3
 _ZN2kj25throwRecoverableExceptionEONS_9ExceptionE@Base 0.5.3
 _ZN2kj26BufferedInputStreamWrapper16tryGetReadBufferEv@Base 0.5.3
 _ZN2kj26BufferedInputStreamWrapper4skipEm@Base 0.5.3
 _ZN2kj26BufferedInputStreamWrapper7tryReadEPvmm@Base 0.5.3
 _ZN2kj26BufferedInputStreamWrapperC1ERNS_11InputStreamENS_8ArrayPtrIhEE@Base 0.5.3
 _ZN2kj26BufferedInputStreamWrapperC2ERNS_11InputStreamENS_8ArrayPtrIhEE@Base 0.5.3
 _ZN2kj26BufferedInputStreamWrapperD0Ev@Base 0.5.3
 _ZN2kj26BufferedInputStreamWrapperD1Ev@Base 0.5.3
 _ZN2kj26BufferedInputStreamWrapperD2Ev@Base 0.5.3
 _ZN2kj27BufferedOutputStreamWrapper14getWriteBufferEv@Base 0.5.3
 _ZN2kj27BufferedOutputStreamWrapper5flushEv@Base 0.5.3
 _ZN2kj27BufferedOutputStreamWrapper5writeEPKvm@Base 0.5.3
 _ZN2kj27BufferedOutputStreamWrapperC1ERNS_12OutputStreamENS_8ArrayPtrIhEE@Base 0.5.3
 _ZN2kj27BufferedOutputStreamWrapperC2ERNS_12OutputStreamENS_8ArrayPtrIhEE@Base 0.5.3
 _ZN2kj27BufferedOutputStreamWrapperD0Ev@Base 0.5.3
 _ZN2kj27BufferedOutputStreamWrapperD1Ev@Base 0.5.3
 _ZN2kj27BufferedOutputStreamWrapperD2Ev@Base 0.5.3
 _ZN2kj27DestructorOnlyArrayDisposer8instanceE@Base 0.5.3
 _ZN2kj3hexEh@Base 0.5.3
 _ZN2kj3hexEj@Base 0.5.3
 _ZN2kj3hexEm@Base 0.5.3
 _ZN2kj3hexEt@Base 0.5.3
 _ZN2kj3hexEy@Base 0.5.3
 (optional=templinst)_ZN2kj3strIINS_6StringEPKcRA2_S2_iRA3_S2_NS_9Exception4TypeES3_NS_9StringPtrES3_S1_S1_EEES1_DpOT_@Base 0.5.3
 (optional=templinst)_ZN2kj3strIINS_9Exception4TypeEPKcNS_9StringPtrES4_NS_6StringES6_RA2_S3_EEES6_DpOT_@Base 0.5.3
 (optional=templinst)_ZN2kj3strIIRA17_KcPS1_EEENS_6StringEDpOT_@Base 0.5.3
 (optional=templinst)_ZN2kj3strIIRA22_KcRiRA3_S1_PcRA9_S1_NS_6StringESA_cEEESA_DpOT_@Base 0.5.3
 (optional=templinst)_ZN2kj3strIIRA24_KcEEENS_6StringEDpOT_@Base 0.5.3
 (optional=templinst)_ZN2kj3strIIRA28_KcRNS_9ExceptionEEEENS_6StringEDpOT_@Base 0.5.3
 (optional=templinst)_ZN2kj3strIIRA2_KcRKNS_9StringPtrEEEENS_6StringEDpOT_@Base 0.5.3
 (optional=templinst)_ZN2kj3strIIRA2_KcRNS_9StringPtrEPS1_EEENS_6StringEDpOT_@Base 0.5.3
 (optional=templinst)_ZN2kj3strIIRA2_KcRcRA19_S1_EEENS_6StringEDpOT_@Base 0.5.3
 (optional=templinst)_ZN2kj3strIIRA2_KcRcRA3_S1_RNS_6StringEEEES7_DpOT_@Base 0.5.3
 (optional=templinst)_ZN2kj3strIIRA2_KcRcS3_RKNS_9StringPtrERA3_S1_RNS_6StringEEEESA_DpOT_@Base 0.5.3
 (optional=templinst)_ZN2kj3strIIRA38_KcEEENS_6StringEDpOT_@Base 0.5.3
 (optional=templinst)_ZN2kj3strIIRA3_KcRNS_8ArrayPtrIS1_EERA37_S1_EEENS_6StringEDpOT_@Base 0.5.3
 (optional=templinst)_ZN2kj3strIIRA43_KcEEENS_6StringEDpOT_@Base 0.5.3
 (optional=templinst)_ZN2kj3strIIRNS_9StringPtrERA21_KcEEENS_6StringEDpOT_@Base 0.5.3
 (optional=templinst)_ZN2kj3strIIRNS_9StringPtrERA3_KcRNS_6StringEEEES6_DpOT_@Base 0.5.3
 (optional=templinst)_ZN2kj3strIJNS_6StringEPKcRA2_S2_iRA3_S2_NS_9Exception4TypeES3_NS_9StringPtrES3_S1_S1_EEES1_DpOT_@Base 0.5.3
 (optional=templinst)_ZN2kj3strIJNS_9Exception4TypeEPKcNS_9StringPtrES4_NS_6StringES6_RA2_S3_EEES6_DpOT_@Base 0.5.3
 (optional=templinst)_ZN2kj3strIJRA17_KcPS1_EEENS_6StringEDpOT_@Base 0.5.3
 (optional=templinst)_ZN2kj3strIJRA22_KcRiRA3_S1_PcRA9_S1_NS_6StringESA_cEEESA_DpOT_@Base 0.5.3
 (optional=templinst)_ZN2kj3strIJRA24_KcEEENS_6StringEDpOT_@Base 0.5.3
 (optional=templinst)_ZN2kj3strIJRA28_KcRNS_9ExceptionEEEENS_6StringEDpOT_@Base 0.5.3
 (optional=templinst)_ZN2kj3strIJRA2_KcRKNS_9StringPtrEEEENS_6StringEDpOT_@Base 0.5.3
 (optional=templinst)_ZN2kj3strIJRA2_KcRNS_9StringPtrEPS1_EEENS_6StringEDpOT_@Base 0.5.3
 (optional=templinst)_ZN2kj3strIJRA2_KcRcRA19_S1_EEENS_6StringEDpOT_@Base 0.5.3
 (optional=templinst)_ZN2kj3strIJRA2_KcRcRA3_S1_RNS_6StringEEEES7_DpOT_@Base 0.5.3
 (optional=templinst)_ZN2kj3strIJRA2_KcRcS3_RKNS_9StringPtrERA3_S1_RNS_6StringEEEESA_DpOT_@Base 0.5.3
 (optional=templinst)_ZN2kj3strIJRA38_KcEEENS_6StringEDpOT_@Base 0.5.3
 (optional=templinst)_ZN2kj3strIJRA3_KcRNS_8ArrayPtrIS1_EERA37_S1_EEENS_6StringEDpOT_@Base 0.5.3
 (optional=templinst)_ZN2kj3strIJRA43_KcEEENS_6StringEDpOT_@Base 0.5.3
 (optional=templinst)_ZN2kj3strIJRNS_9StringPtrERA21_KcEEENS_6StringEDpOT_@Base 0.5.3
 (optional=templinst)_ZN2kj3strIJRNS_9StringPtrERA3_KcRNS_6StringEEEES6_DpOT_@Base 0.5.3
 _ZN2kj5Arena10copyStringENS_9StringPtrE@Base 0.5.3
 _ZN2kj5Arena13allocateBytesEmjb@Base 0.5.3
 (optional=templinst)_ZN2kj5Arena13destroyObjectINS_8FunctionIFNS_11MainBuilder8ValidityENS_9StringPtrEEEEEEvPv@Base 0.5.3
 (optional=templinst)_ZN2kj5Arena13destroyObjectINS_8FunctionIFNS_11MainBuilder8ValidityEvEEEEEvPv@Base 0.5.3
 _ZN2kj5Arena13setDestructorEPvPFvS1_E@Base 0.5.3
 _ZN2kj5Arena21allocateBytesInternalEmj@Base 0.5.3
 _ZN2kj5Arena7cleanupEv@Base 0.5.3
 _ZN2kj5ArenaC1ENS_8ArrayPtrIhEE@Base 0.5.3
 _ZN2kj5ArenaC1Em@Base 0.5.3
 _ZN2kj5ArenaC2ENS_8ArrayPtrIhEE@Base 0.5.3
 _ZN2kj5ArenaC2Em@Base 0.5.3
 _ZN2kj5ArenaD1Ev@Base 0.5.3
 _ZN2kj5ArenaD2Ev@Base 0.5.3
 _ZN2kj6Thread10sendSignalEi@Base 0.5.3
 _ZN2kj6Thread6detachEv@Base 0.5.3
 _ZN2kj6Thread9runThreadEPv@Base 0.5.3
 _ZN2kj6ThreadC1ENS_8FunctionIFvvEEE@Base 0.5.3
 _ZN2kj6ThreadC2ENS_8FunctionIFvvEEE@Base 0.5.3
 _ZN2kj6ThreadD1Ev@Base 0.5.3
 _ZN2kj6ThreadD2Ev@Base 0.5.3
 (optional=templinst)_ZN2kj6VectorIcE3addIIcEEERcDpOT_@Base 0.5.3
 (optional=templinst)_ZN2kj6VectorIcE3addIJcEEERcDpOT_@Base 0.5.3
 (optional=templinst)_ZN2kj6VectorIcE6addAllINS_6StringEEEvOT_@Base 0.5.3
 (optional=templinst)_ZN2kj6VectorIcE6addAllIPKcEEvT_S5_@Base 0.5.3
 (optional=templinst)_ZN2kj8FunctionIFNS_11MainBuilder8ValidityEvEE4ImplINS_1_11BoundMethodIRNS1_4ImplEMS8_FS2_vEXadL_ZNS8_12printVersionEvEEEEEclEv@Base 0.5.3
 (optional=templinst)_ZN2kj8FunctionIFNS_11MainBuilder8ValidityEvEE4ImplINS_1_11BoundMethodIRNS1_4ImplEMS8_FS2_vEXadL_ZNS8_17increaseVerbosityEvEEEEEclEv@Base 0.5.3
 (optional=templinst)_ZN2kj8FunctionIFvNS_9StringPtrENS_8ArrayPtrIKS1_EEEE4ImplINS_11MainBuilder8MainImplEEclES1_S4_@Base 0.5.3
 (optional=templinst)_ZN2kj8strArrayINS_8ArrayPtrIKPvEEEENS_6StringEOT_PKc@Base 0.5.3
 (optional=templinst)_ZN2kj8strArrayIRNS_5ArrayINS_6StringEEEEES2_OT_PKc@Base 0.5.3
 _ZN2kj9Exception11wrapContextEPKciONS_6StringE@Base 0.5.3
 _ZN2kj9Exception7ContextC1ERKS1_@Base 0.5.3
 _ZN2kj9Exception7ContextC2ERKS1_@Base 0.5.3
 _ZN2kj9ExceptionC1ENS0_4TypeENS_6StringEiS2_@Base 0.5.3
 _ZN2kj9ExceptionC1ENS0_4TypeEPKciNS_6StringE@Base 0.5.3
 _ZN2kj9ExceptionC1EOS0_@Base 0.5.3
 _ZN2kj9ExceptionC1ERKS0_@Base 0.5.3
 _ZN2kj9ExceptionC2ENS0_4TypeENS_6StringEiS2_@Base 0.5.3
 _ZN2kj9ExceptionC2ENS0_4TypeEPKciNS_6StringE@Base 0.5.3
 _ZN2kj9ExceptionC2EOS0_@Base 0.5.3
 _ZN2kj9ExceptionC2ERKS0_@Base 0.5.3
 _ZN2kj9ExceptionD1Ev@Base 0.5.3
 _ZN2kj9ExceptionD2Ev@Base 0.5.3
 _ZN2kjmlENS_1_11StringifierENS_11LogSeverityE@Base 0.5.3
 _ZN2kjmlENS_1_11StringifierENS_9Exception4TypeE@Base 0.5.3
 _ZN2kjmlENS_1_11StringifierERKNS_9ExceptionE@Base 0.5.3
 _ZNK2kj10Refcounted11disposeImplEPv@Base 0.5.3
 _ZNK2kj10StringTree7flattenEv@Base 0.5.3
 _ZNK2kj10StringTree9flattenToEPc@Base 0.5.3
 _ZNK2kj12NullDisposer11disposeImplEPv@Base 0.5.3
 _ZNK2kj13ExceptionImpl4whatEv@Base 0.5.3
 _ZNK2kj14UnwindDetector11isUnwindingEv@Base 0.5.3
 _ZNK2kj14UnwindDetector32catchExceptionsAsSecondaryFaultsERNS_1_8RunnableE@Base 0.5.3
 _ZNK2kj17NullArrayDisposer11disposeImplEPvmmmPFvS1_E@Base 0.5.3
 _ZNK2kj1_11StringifiermlEDn@Base 0.5.3
 _ZNK2kj1_11StringifiermlEPKv@Base 0.5.3
 _ZNK2kj1_11StringifiermlEa@Base 0.5.3
 _ZNK2kj1_11StringifiermlEb@Base 0.5.3
 _ZNK2kj1_11StringifiermlEd@Base 0.5.3
 _ZNK2kj1_11StringifiermlEf@Base 0.5.3
 _ZNK2kj1_11StringifiermlEh@Base 0.5.3
 _ZNK2kj1_11StringifiermlEi@Base 0.5.3
 _ZNK2kj1_11StringifiermlEj@Base 0.5.3
 _ZNK2kj1_11StringifiermlEl@Base 0.5.3
 _ZNK2kj1_11StringifiermlEm@Base 0.5.3
 _ZNK2kj1_11StringifiermlEs@Base 0.5.3
 _ZNK2kj1_11StringifiermlEt@Base 0.5.3
 _ZNK2kj1_11StringifiermlEx@Base 0.5.3
 _ZNK2kj1_11StringifiermlEy@Base 0.5.3
 (optional=templinst)_ZNK2kj1_12HeapDisposerINS_11MainBuilder4ImplEE11disposeImplEPv@Base 0.5.3
 (optional=templinst)_ZNK2kj1_12HeapDisposerINS_8FunctionIFNS_11MainBuilder8ValidityEvEE4ImplINS0_11BoundMethodIRNS3_4ImplEMS9_FS4_vEXadL_ZNS9_12printVersionEvEEEEEEE11disposeImplEPv@Base 0.5.3
 (optional=templinst)_ZNK2kj1_12HeapDisposerINS_8FunctionIFNS_11MainBuilder8ValidityEvEE4ImplINS0_11BoundMethodIRNS3_4ImplEMS9_FS4_vEXadL_ZNS9_17increaseVerbosityEvEEEEEEE11disposeImplEPv@Base 0.5.3
 (optional=templinst)_ZNK2kj1_12HeapDisposerINS_8FunctionIFvNS_9StringPtrENS_8ArrayPtrIKS3_EEEE4ImplINS_11MainBuilder8MainImplEEEE11disposeImplEPv@Base 0.5.3
 (optional=templinst)_ZNK2kj1_12HeapDisposerINS_9Exception7ContextEE11disposeImplEPv@Base 0.5.3
 _ZNK2kj1_17HeapArrayDisposer11disposeImplEPvmmmPFvS2_E@Base 0.5.3
 _ZNK2kj27DestructorOnlyArrayDisposer11disposeImplEPvmmmPFvS1_E@Base 0.5.3
 _ZNK2kj5parse1_10ParseFloatclERKNS_5ArrayIcEERKNS_5MaybeIS4_EERKNS7_INS_1_5TupleIINS7_IcEES4_EEEEE@Base 0.5.3
 _ZNK2kj5parse1_10ParseFloatclERKNS_5ArrayIcEERKNS_5MaybeIS4_EERKNS7_INS_1_5TupleIJNS7_IcEES4_EEEEE@Base 0.5.3
 (optional=templinst)_ZNSt8_Rb_treeIN2kj8ArrayPtrIKcEESt4pairIKS3_PNS0_11MainBuilder4Impl6OptionEESt10_Select1stISA_ENS7_16CharArrayCompareESaISA_EE8_M_eraseEPSt13_Rb_tree_nodeISA_E@Base 0.5.3
 (optional=templinst)_ZNSt8_Rb_treeIN2kj9StringPtrESt4pairIKS1_NS0_11MainBuilder4Impl10SubCommandEESt10_Select1stIS7_ESt4lessIS1_ESaIS7_EE16_M_insert_uniqueIS2_IS1_S6_EEES2_ISt17_Rb_tree_iteratorIS7_EbEOT_@Base 0.5.3
 (optional=templinst)_ZNSt8_Rb_treeIN2kj9StringPtrESt4pairIKS1_NS0_11MainBuilder4Impl10SubCommandEESt10_Select1stIS7_ESt4lessIS1_ESaIS7_EE4findERS3_@Base 0.5.3
 (optional=templinst)_ZNSt8_Rb_treeIN2kj9StringPtrESt4pairIKS1_NS0_11MainBuilder4Impl10SubCommandEESt10_Select1stIS7_ESt4lessIS1_ESaIS7_EE8_M_eraseEPSt13_Rb_tree_nodeIS7_E@Base 0.5.3
 (optional=templinst)_ZNSt8_Rb_treeIPKN2kj11MainBuilder4Impl6OptionES5_St9_IdentityIS5_ENS2_18OptionDisplayOrderESaIS5_EE16_M_insert_uniqueIS5_EESt4pairISt17_Rb_tree_iteratorIS5_EbEOT_@Base 0.5.3
 (optional=templinst)_ZNSt8_Rb_treeIPKN2kj11MainBuilder4Impl6OptionES5_St9_IdentityIS5_ENS2_18OptionDisplayOrderESaIS5_EE8_M_eraseEPSt13_Rb_tree_nodeIS5_E@Base 0.5.3
 (optional=templinst)_ZNSt8_Rb_treeIcSt4pairIKcPN2kj11MainBuilder4Impl6OptionEESt10_Select1stIS7_ESt4lessIcESaIS7_EE8_M_eraseEPSt13_Rb_tree_nodeIS7_E@Base 0.5.3
 _ZTIN2kj10RefcountedE@Base 0.5.3
 _ZTIN2kj11InputStreamE@Base 0.5.3
 _ZTIN2kj12NullDisposerE@Base 0.5.3
 _ZTIN2kj12OutputStreamE@Base 0.5.3
 _ZTIN2kj13ArrayDisposerE@Base 0.5.3
 _ZTIN2kj13ExceptionImplE@Base 0.5.3
 _ZTIN2kj13FdInputStreamE@Base 0.5.3
 _ZTIN2kj14FdOutputStreamE@Base 0.5.3
 _ZTIN2kj14ProcessContextE@Base 0.5.3
 _ZTIN2kj16ArrayInputStreamE@Base 0.5.3
 _ZTIN2kj17ArrayOutputStreamE@Base 0.5.3
 _ZTIN2kj17ExceptionCallback21RootExceptionCallbackE@Base 0.5.3
 _ZTIN2kj17ExceptionCallbackE@Base 0.5.3
 _ZTIN2kj17NullArrayDisposerE@Base 0.5.3
 _ZTIN2kj19BufferedInputStreamE@Base 0.5.3
 _ZTIN2kj1_12HeapDisposerINS_11MainBuilder4ImplEEE@Base 0.5.3
 _ZTIN2kj1_12HeapDisposerINS_8FunctionIFNS_11MainBuilder8ValidityEvEE4ImplINS0_11BoundMethodIRNS3_4ImplEMS9_FS4_vEXadL_ZNS9_12printVersionEvEEEEEEEE@Base 0.5.3
 _ZTIN2kj1_12HeapDisposerINS_8FunctionIFNS_11MainBuilder8ValidityEvEE4ImplINS0_11BoundMethodIRNS3_4ImplEMS9_FS4_vEXadL_ZNS9_17increaseVerbosityEvEEEEEEEE@Base 0.5.3
 _ZTIN2kj1_12HeapDisposerINS_8FunctionIFvNS_9StringPtrENS_8ArrayPtrIKS3_EEEE4ImplINS_11MainBuilder8MainImplEEEEE@Base 0.5.3
 _ZTIN2kj1_12HeapDisposerINS_9Exception7ContextEEE@Base 0.5.3
 _ZTIN2kj1_17HeapArrayDisposerE@Base 0.5.3
 _ZTIN2kj1_5Debug7ContextE@Base 0.5.3
 _ZTIN2kj1_8RunnableE@Base 0.5.3
 _ZTIN2kj20BufferedOutputStreamE@Base 0.5.3
 _ZTIN2kj22TopLevelProcessContext22CleanShutdownExceptionE@Base 0.5.3
 _ZTIN2kj22TopLevelProcessContextE@Base 0.5.3
 _ZTIN2kj26BufferedInputStreamWrapperE@Base 0.5.3
 _ZTIN2kj27BufferedOutputStreamWrapperE@Base 0.5.3
 _ZTIN2kj27DestructorOnlyArrayDisposerE@Base 0.5.3
 _ZTIN2kj8DisposerE@Base 0.5.3
 _ZTIN2kj8FunctionIFNS_11MainBuilder8ValidityEvEE4ImplINS_1_11BoundMethodIRNS1_4ImplEMS8_FS2_vEXadL_ZNS8_12printVersionEvEEEEEE@Base 0.5.3
 _ZTIN2kj8FunctionIFNS_11MainBuilder8ValidityEvEE4ImplINS_1_11BoundMethodIRNS1_4ImplEMS8_FS2_vEXadL_ZNS8_17increaseVerbosityEvEEEEEE@Base 0.5.3
 _ZTIN2kj8FunctionIFNS_11MainBuilder8ValidityEvEE5IfaceE@Base 0.5.3
 _ZTIN2kj8FunctionIFvNS_9StringPtrENS_8ArrayPtrIKS1_EEEE4ImplINS_11MainBuilder8MainImplEEE@Base 0.5.3
 _ZTIN2kj8FunctionIFvNS_9StringPtrENS_8ArrayPtrIKS1_EEEE5IfaceE@Base 0.5.3
 _ZTIN2kj9ExceptionE@Base 0.5.3
 _ZTSN2kj10RefcountedE@Base 0.5.3
 _ZTSN2kj11InputStreamE@Base 0.5.3
 _ZTSN2kj12NullDisposerE@Base 0.5.3
 _ZTSN2kj12OutputStreamE@Base 0.5.3
 _ZTSN2kj13ArrayDisposerE@Base 0.5.3
 _ZTSN2kj13ExceptionImplE@Base 0.5.3
 _ZTSN2kj13FdInputStreamE@Base 0.5.3
 _ZTSN2kj14FdOutputStreamE@Base 0.5.3
 _ZTSN2kj14ProcessContextE@Base 0.5.3
 _ZTSN2kj16ArrayInputStreamE@Base 0.5.3
 _ZTSN2kj17ArrayOutputStreamE@Base 0.5.3
 _ZTSN2kj17ExceptionCallback21RootExceptionCallbackE@Base 0.5.3
 _ZTSN2kj17ExceptionCallbackE@Base 0.5.3
 _ZTSN2kj17NullArrayDisposerE@Base 0.5.3
 _ZTSN2kj19BufferedInputStreamE@Base 0.5.3
 _ZTSN2kj1_12HeapDisposerINS_11MainBuilder4ImplEEE@Base 0.5.3
 _ZTSN2kj1_12HeapDisposerINS_8FunctionIFNS_11MainBuilder8ValidityEvEE4ImplINS0_11BoundMethodIRNS3_4ImplEMS9_FS4_vEXadL_ZNS9_12printVersionEvEEEEEEEE@Base 0.5.3
 _ZTSN2kj1_12HeapDisposerINS_8FunctionIFNS_11MainBuilder8ValidityEvEE4ImplINS0_11BoundMethodIRNS3_4ImplEMS9_FS4_vEXadL_ZNS9_17increaseVerbosityEvEEEEEEEE@Base 0.5.3
 _ZTSN2kj1_12HeapDisposerINS_8FunctionIFvNS_9StringPtrENS_8ArrayPtrIKS3_EEEE4ImplINS_11MainBuilder8MainImplEEEEE@Base 0.5.3
 _ZTSN2kj1_12HeapDisposerINS_9Exception7ContextEEE@Base 0.5.3
 _ZTSN2kj1_17HeapArrayDisposerE@Base 0.5.3
 _ZTSN2kj1_5Debug7ContextE@Base 0.5.3
 _ZTSN2kj1_8RunnableE@Base 0.5.3
 _ZTSN2kj20BufferedOutputStreamE@Base 0.5.3
 _ZTSN2kj22TopLevelProcessContext22CleanShutdownExceptionE@Base 0.5.3
 _ZTSN2kj22TopLevelProcessContextE@Base 0.5.3
 _ZTSN2kj26BufferedInputStreamWrapperE@Base 0.5.3
 _ZTSN2kj27BufferedOutputStreamWrapperE@Base 0.5.3
 _ZTSN2kj27DestructorOnlyArrayDisposerE@Base 0.5.3
 _ZTSN2kj8DisposerE@Base 0.5.3
 _ZTSN2kj8FunctionIFNS_11MainBuilder8ValidityEvEE4ImplINS_1_11BoundMethodIRNS1_4ImplEMS8_FS2_vEXadL_ZNS8_12printVersionEvEEEEEE@Base 0.5.3
 _ZTSN2kj8FunctionIFNS_11MainBuilder8ValidityEvEE4ImplINS_1_11BoundMethodIRNS1_4ImplEMS8_FS2_vEXadL_ZNS8_17increaseVerbosityEvEEEEEE@Base 0.5.3
 _ZTSN2kj8FunctionIFNS_11MainBuilder8ValidityEvEE5IfaceE@Base 0.5.3
 _ZTSN2kj8FunctionIFvNS_9StringPtrENS_8ArrayPtrIKS1_EEEE4ImplINS_11MainBuilder8MainImplEEE@Base 0.5.3
 _ZTSN2kj8FunctionIFvNS_9StringPtrENS_8ArrayPtrIKS1_EEEE5IfaceE@Base 0.5.3
 _ZTSN2kj9ExceptionE@Base 0.5.3
 _ZTVN2kj10RefcountedE@Base 0.5.3
 _ZTVN2kj11InputStreamE@Base 0.5.3
 _ZTVN2kj12NullDisposerE@Base 0.5.3
 _ZTVN2kj12OutputStreamE@Base 0.5.3
 _ZTVN2kj13ExceptionImplE@Base 0.5.3
 _ZTVN2kj13FdInputStreamE@Base 0.5.3
 _ZTVN2kj14FdOutputStreamE@Base 0.5.3
 _ZTVN2kj16ArrayInputStreamE@Base 0.5.3
 _ZTVN2kj17ArrayOutputStreamE@Base 0.5.3
 _ZTVN2kj17ExceptionCallback21RootExceptionCallbackE@Base 0.5.3
 _ZTVN2kj17ExceptionCallbackE@Base 0.5.3
 _ZTVN2kj17NullArrayDisposerE@Base 0.5.3
 _ZTVN2kj19BufferedInputStreamE@Base 0.5.3
 _ZTVN2kj1_12HeapDisposerINS_11MainBuilder4ImplEEE@Base 0.5.3
 _ZTVN2kj1_12HeapDisposerINS_8FunctionIFNS_11MainBuilder8ValidityEvEE4ImplINS0_11BoundMethodIRNS3_4ImplEMS9_FS4_vEXadL_ZNS9_12printVersionEvEEEEEEEE@Base 0.5.3
 _ZTVN2kj1_12HeapDisposerINS_8FunctionIFNS_11MainBuilder8ValidityEvEE4ImplINS0_11BoundMethodIRNS3_4ImplEMS9_FS4_vEXadL_ZNS9_17increaseVerbosityEvEEEEEEEE@Base 0.5.3
 _ZTVN2kj1_12HeapDisposerINS_8FunctionIFvNS_9StringPtrENS_8ArrayPtrIKS3_EEEE4ImplINS_11MainBuilder8MainImplEEEEE@Base 0.5.3
 _ZTVN2kj1_12HeapDisposerINS_9Exception7ContextEEE@Base 0.5.3
 _ZTVN2kj1_17HeapArrayDisposerE@Base 0.5.3
 _ZTVN2kj1_5Debug7ContextE@Base 0.5.3
 _ZTVN2kj20BufferedOutputStreamE@Base 0.5.3
 _ZTVN2kj22TopLevelProcessContextE@Base 0.5.3
 _ZTVN2kj26BufferedInputStreamWrapperE@Base 0.5.3
 _ZTVN2kj27BufferedOutputStreamWrapperE@Base 0.5.3
 _ZTVN2kj27DestructorOnlyArrayDisposerE@Base 0.5.3
 _ZTVN2kj8FunctionIFNS_11MainBuilder8ValidityEvEE4ImplINS_1_11BoundMethodIRNS1_4ImplEMS8_FS2_vEXadL_ZNS8_12printVersionEvEEEEEE@Base 0.5.3
 _ZTVN2kj8FunctionIFNS_11MainBuilder8ValidityEvEE4ImplINS_1_11BoundMethodIRNS1_4ImplEMS8_FS2_vEXadL_ZNS8_17increaseVerbosityEvEEEEEE@Base 0.5.3
 _ZTVN2kj8FunctionIFvNS_9StringPtrENS_8ArrayPtrIKS1_EEEE4ImplINS_11MainBuilder8MainImplEEE@Base 0.5.3
